
d:/Education/UW/Aerospec/particle_boron/firmware-beta/mvp-beta/target/3.0.0/boron/mvp-beta.elf:     file format elf32-littlearm

Sections:
Idx Name          Size      VMA       LMA       File off  Algn
  0 .module_info  00000018  000d4000  000d4000  00004000  2**0
                  CONTENTS, ALLOC, LOAD, READONLY, DATA
  1 .dynalib      00000004  000d4018  000d4018  00004018  2**2
                  CONTENTS, ALLOC, LOAD, READONLY, DATA
  2 .text         0000ae90  000d4020  000d4020  00004020  2**3
                  CONTENTS, ALLOC, LOAD, READONLY, CODE
  3 .ARM.exidx    00000008  000deeb0  000deeb0  0000eeb0  2**2
                  CONTENTS, ALLOC, LOAD, READONLY, DATA
  4 .backup       00000004  2003f400  000deeb8  0000f400  2**2
                  CONTENTS, ALLOC, LOAD, DATA
  5 .data         00000070  2003ddac  000deebc  0001ddac  2**2
                  CONTENTS, ALLOC, LOAD, DATA
  6 .bss          000009d4  2003de20  2003de20  0002de20  2**3
                  ALLOC
  7 .module_info_suffix 00000028  000def2c  000def2c  0001ef2c  2**0
                  CONTENTS, ALLOC, LOAD, READONLY, DATA
  8 .module_info_crc 00000004  000def54  000def54  0001ef54  2**0
                  CONTENTS, ALLOC, LOAD, READONLY, DATA
  9 .debug_info   002c3e61  00000000  00000000  0001ef58  2**0
                  CONTENTS, READONLY, DEBUGGING
 10 .debug_abbrev 00025481  00000000  00000000  002e2db9  2**0
                  CONTENTS, READONLY, DEBUGGING
 11 .debug_loc    0004d0e4  00000000  00000000  0030823a  2**0
                  CONTENTS, READONLY, DEBUGGING
 12 .debug_aranges 00003b30  00000000  00000000  0035531e  2**0
                  CONTENTS, READONLY, DEBUGGING
 13 .debug_ranges 0000c350  00000000  00000000  00358e4e  2**0
                  CONTENTS, READONLY, DEBUGGING
 14 .debug_macro  0004a7d3  00000000  00000000  0036519e  2**0
                  CONTENTS, READONLY, DEBUGGING
 15 .debug_line   00064f14  00000000  00000000  003af971  2**0
                  CONTENTS, READONLY, DEBUGGING
 16 .debug_str    0013a93f  00000000  00000000  00414885  2**0
                  CONTENTS, READONLY, DEBUGGING
 17 .debug_frame  0000b240  00000000  00000000  0054f1c4  2**2
                  CONTENTS, READONLY, DEBUGGING

Disassembly of section .text:

000d4020 <module_user_pre_init>:
   d4020:	4809      	ldr	r0, [pc, #36]	; (d4048 <module_user_pre_init+0x28>)
   d4022:	490a      	ldr	r1, [pc, #40]	; (d404c <module_user_pre_init+0x2c>)
   d4024:	4288      	cmp	r0, r1
   d4026:	b508      	push	{r3, lr}
   d4028:	d005      	beq.n	d4036 <module_user_pre_init+0x16>
   d402a:	4a09      	ldr	r2, [pc, #36]	; (d4050 <module_user_pre_init+0x30>)
   d402c:	4282      	cmp	r2, r0
   d402e:	d002      	beq.n	d4036 <module_user_pre_init+0x16>
   d4030:	1a12      	subs	r2, r2, r0
   d4032:	f009 fdf5 	bl	ddc20 <memcpy>
   d4036:	4807      	ldr	r0, [pc, #28]	; (d4054 <module_user_pre_init+0x34>)
   d4038:	4a07      	ldr	r2, [pc, #28]	; (d4058 <module_user_pre_init+0x38>)
   d403a:	2100      	movs	r1, #0
   d403c:	1a12      	subs	r2, r2, r0
   d403e:	f009 fe17 	bl	ddc70 <memset>
   d4042:	4801      	ldr	r0, [pc, #4]	; (d4048 <module_user_pre_init+0x28>)
   d4044:	bd08      	pop	{r3, pc}
   d4046:	bf00      	nop
   d4048:	2003ddac 	.word	0x2003ddac
   d404c:	000deebc 	.word	0x000deebc
   d4050:	2003de1c 	.word	0x2003de1c
   d4054:	2003de20 	.word	0x2003de20
   d4058:	2003e7f4 	.word	0x2003e7f4

000d405c <module_user_init>:
   d405c:	b570      	push	{r4, r5, r6, lr}
   d405e:	4e07      	ldr	r6, [pc, #28]	; (d407c <module_user_init+0x20>)
   d4060:	4c07      	ldr	r4, [pc, #28]	; (d4080 <module_user_init+0x24>)
   d4062:	f006 fe9f 	bl	dada4 <module_user_init_hook>
   d4066:	1ba4      	subs	r4, r4, r6
   d4068:	08a4      	lsrs	r4, r4, #2
   d406a:	2500      	movs	r5, #0
   d406c:	42a5      	cmp	r5, r4
   d406e:	d100      	bne.n	d4072 <module_user_init+0x16>
   d4070:	bd70      	pop	{r4, r5, r6, pc}
   d4072:	f856 3b04 	ldr.w	r3, [r6], #4
   d4076:	4798      	blx	r3
   d4078:	3501      	adds	r5, #1
   d407a:	e7f7      	b.n	d406c <module_user_init+0x10>
   d407c:	000dee84 	.word	0x000dee84
   d4080:	000deea8 	.word	0x000deea8

000d4084 <module_user_setup>:
   d4084:	f000 baf8 	b.w	d4678 <setup>

000d4088 <module_user_loop>:
   d4088:	b508      	push	{r3, lr}
   d408a:	f000 ffc9 	bl	d5020 <loop>
   d408e:	e8bd 4008 	ldmia.w	sp!, {r3, lr}
   d4092:	f006 be49 	b.w	dad28 <_post_loop>

000d4096 <_Znwj>:
   d4096:	f004 bf41 	b.w	d8f1c <malloc>

000d409a <_Znaj>:
   d409a:	f004 bf3f 	b.w	d8f1c <malloc>

000d409e <_ZdlPv>:
   d409e:	f004 bf45 	b.w	d8f2c <free>
	...

000d40a4 <__cxa_pure_virtual>:
   d40a4:	b508      	push	{r3, lr}
   d40a6:	4a03      	ldr	r2, [pc, #12]	; (d40b4 <__cxa_pure_virtual+0x10>)
   d40a8:	2100      	movs	r1, #0
   d40aa:	200c      	movs	r0, #12
   d40ac:	f004 fe38 	bl	d8d20 <panic_>
   d40b0:	e7fe      	b.n	d40b0 <__cxa_pure_virtual+0xc>
   d40b2:	bf00      	nop
   d40b4:	000d88b5 	.word	0x000d88b5

000d40b8 <__cxa_guard_acquire>:
   d40b8:	7800      	ldrb	r0, [r0, #0]
   d40ba:	fab0 f080 	clz	r0, r0
   d40be:	0940      	lsrs	r0, r0, #5
   d40c0:	4770      	bx	lr

000d40c2 <__cxa_guard_release>:
   d40c2:	2301      	movs	r3, #1
   d40c4:	7003      	strb	r3, [r0, #0]
   d40c6:	4770      	bx	lr

000d40c8 <_ZN10CloudClass22update_string_variableEPKc18Spark_Data_TypeDefPKvPv>:

    static const void* update_string_variable(const char* name, Spark_Data_TypeDef type, const void* var, void* reserved)
    {
        const String* s = (const String*)var;
        return s->c_str();
    }
   d40c8:	6810      	ldr	r0, [r2, #0]
   d40ca:	4770      	bx	lr

000d40cc <_ZN8particle11SPISettingsD1Ev>:
  SPISettings()
  {
  }

  virtual ~SPISettings() {
  }
   d40cc:	4770      	bx	lr

000d40ce <_ZN4File9availableEv>:
  void setpos(FatPos_t* pos);
  /** \return The number of bytes available from the current position
   * to EOF for normal files.  Zero is returned for directory files.
   */
  uint32_t available() {
    return isFile() ? fileSize() - curPosition() : 0;
   d40ce:	7c03      	ldrb	r3, [r0, #16]
   d40d0:	f013 0308 	ands.w	r3, r3, #8
   d40d4:	bf1e      	ittt	ne
   d40d6:	6ac3      	ldrne	r3, [r0, #44]	; 0x2c
   d40d8:	6a40      	ldrne	r0, [r0, #36]	; 0x24
   d40da:	1a1b      	subne	r3, r3, r0
  /** \return number of bytes available from the current position to EOF
   *   or INT_MAX if more than INT_MAX bytes are available.
   */
  int available() {
    uint32_t n = FatFile::available();
    return n > INT_MAX ? INT_MAX : n;
   d40dc:	2b00      	cmp	r3, #0
  }
   d40de:	bfac      	ite	ge
   d40e0:	4618      	movge	r0, r3
   d40e2:	f06f 4000 	mvnlt.w	r0, #2147483648	; 0x80000000
   d40e6:	4770      	bx	lr

000d40e8 <_ZN4FileD1Ev>:
class File : public FatFile, public Stream {
   d40e8:	4770      	bx	lr

000d40ea <_ZN5SdFatD1Ev>:
//==============================================================================
/**
 * \class SdFat
 * \brief Main file system class for %SdFat library.
 */
class SdFat : public SdFileSystem<SdSpiCard> {
   d40ea:	4770      	bx	lr

000d40ec <_ZN8particle11SPISettingsD0Ev>:
  virtual ~SPISettings() {
   d40ec:	b510      	push	{r4, lr}
  }
   d40ee:	2110      	movs	r1, #16
  virtual ~SPISettings() {
   d40f0:	4604      	mov	r4, r0
  }
   d40f2:	f007 faf8 	bl	db6e6 <_ZdlPvj>
   d40f6:	4620      	mov	r0, r4
   d40f8:	bd10      	pop	{r4, pc}

000d40fa <_ZN4FileD0Ev>:
   d40fa:	b510      	push	{r4, lr}
   d40fc:	2134      	movs	r1, #52	; 0x34
   d40fe:	4604      	mov	r4, r0
   d4100:	f007 faf1 	bl	db6e6 <_ZdlPvj>
   d4104:	4620      	mov	r0, r4
   d4106:	bd10      	pop	{r4, pc}

000d4108 <_ZN4File5flushEv>:
  /** Ensure that any bytes written to the file are saved to the SD card. */
  void flush() {
    FatFile::sync();
   d4108:	3010      	adds	r0, #16
   d410a:	f002 bfc7 	b.w	d709c <_ZN7FatFile4syncEv>

000d410e <_ZN4File4peekEv>:
  /** Return the next available byte without consuming it.
   *
   * \return The byte if no error and not at eof else -1;
   */
  int peek() {
    return FatFile::peek();
   d410e:	3010      	adds	r0, #16
   d4110:	f002 bee1 	b.w	d6ed6 <_ZN7FatFile4peekEv>

000d4114 <_ZN4File4readEv>:
  /** Read the next byte from a file.
   *
   * \return For success return the next byte in the file as an int.
   * If an error occurs or end of file is reached return -1.
   */
  int read() {
   d4114:	b507      	push	{r0, r1, r2, lr}
   * \return For success read returns the next byte in the file as an int.
   * If an error occurs or end of file is reached -1 is returned.
   */
  int read() {
    uint8_t b;
    return read(&b, 1) == 1 ? b : -1;
   d4116:	2201      	movs	r2, #1
   d4118:	f10d 0107 	add.w	r1, sp, #7
   d411c:	3010      	adds	r0, #16
   d411e:	f002 fdf7 	bl	d6d10 <_ZN7FatFile4readEPvj>
   d4122:	2801      	cmp	r0, #1
   d4124:	bf0c      	ite	eq
   d4126:	f89d 0007 	ldrbeq.w	r0, [sp, #7]
   d412a:	f04f 30ff 	movne.w	r0, #4294967295
    return FatFile::read();
  }
   d412e:	b003      	add	sp, #12
   d4130:	f85d fb04 	ldr.w	pc, [sp], #4

000d4134 <_ZN4File5writeEPKhj>:
   * include write() is called before a file has been opened, write is called
   * for a read-only file, device is full, a corrupt file system or an
   * I/O error.
   */
  size_t write(const uint8_t *buf, size_t size) {
    return FatFile::write(buf, size);
   d4134:	3010      	adds	r0, #16
   d4136:	f003 b83b 	b.w	d71b0 <_ZN7FatFile5writeEPKvj>

000d413a <_ZN4File5writeEh>:
  size_t write(uint8_t b) {
   d413a:	b507      	push	{r0, r1, r2, lr}
  /** Write a single byte.
   * \param[in] b The byte to be written.
   * \return +1 for success or -1 for failure.
   */
  int write(uint8_t b) {
    return write(&b, 1);
   d413c:	2201      	movs	r2, #1
   d413e:	f88d 1007 	strb.w	r1, [sp, #7]
   d4142:	3010      	adds	r0, #16
   d4144:	f10d 0107 	add.w	r1, sp, #7
   d4148:	f003 f832 	bl	d71b0 <_ZN7FatFile5writeEPKvj>
  }
   d414c:	b003      	add	sp, #12
   d414e:	f85d fb04 	ldr.w	pc, [sp], #4
	...

000d4154 <_ZN15Adafruit_IL0373D1Ev>:
/**************************************************************************/
/*!
    @brief  Class for interfacing with IL0373 EPD drivers
*/
/**************************************************************************/
class Adafruit_IL0373 : public Adafruit_EPD {
   d4154:	b510      	push	{r4, lr}
   d4156:	4b03      	ldr	r3, [pc, #12]	; (d4164 <_ZN15Adafruit_IL0373D1Ev+0x10>)
   d4158:	6003      	str	r3, [r0, #0]
   d415a:	4604      	mov	r4, r0
   d415c:	f004 f91c 	bl	d8398 <_ZN12Adafruit_EPDD1Ev>
   d4160:	4620      	mov	r0, r4
   d4162:	bd10      	pop	{r4, pc}
   d4164:	000de85c 	.word	0x000de85c

000d4168 <_ZN11SystemClassD1Ev>:
    system_error_t error_;
    SleepResult compatResult_;
};


class SystemClass {
   d4168:	b510      	push	{r4, lr}
   d416a:	4604      	mov	r4, r0
        if (wakeupSource_) {
   d416c:	6800      	ldr	r0, [r0, #0]
   d416e:	b108      	cbz	r0, d4174 <_ZN11SystemClassD1Ev+0xc>
            free(wakeupSource_);
   d4170:	f004 fedc 	bl	d8f2c <free>
class SystemClass {
   d4174:	4620      	mov	r0, r4
   d4176:	bd10      	pop	{r4, pc}

000d4178 <_ZN10CloudClass12syncTimeDoneEv.isra.0>:
    bool syncTimeDone(void)
   d4178:	b508      	push	{r3, lr}
        return !spark_sync_time_pending(nullptr) || disconnected();
   d417a:	2000      	movs	r0, #0
   d417c:	f004 feb6 	bl	d8eec <spark_sync_time_pending>
   d4180:	b128      	cbz	r0, d418e <_ZN10CloudClass12syncTimeDoneEv.isra.0+0x16>
    static bool connected(void) { return spark_cloud_flag_connected(); }
   d4182:	f004 fe9b 	bl	d8ebc <spark_cloud_flag_connected>
        return !spark_sync_time_pending(nullptr) || disconnected();
   d4186:	f080 0001 	eor.w	r0, r0, #1
   d418a:	b2c0      	uxtb	r0, r0
    }
   d418c:	bd08      	pop	{r3, pc}
        return !spark_sync_time_pending(nullptr) || disconnected();
   d418e:	2001      	movs	r0, #1
   d4190:	e7fc      	b.n	d418c <_ZN10CloudClass12syncTimeDoneEv.isra.0+0x14>
	...

000d4194 <_Z8renameID6String>:

/* 
    Renaming cloud function. handler() is required to parse out the 
    returned value from the cloud and store it in eeprom. 
 */
int renameID(String name) {
   d4194:	b510      	push	{r4, lr}
   d4196:	b086      	sub	sp, #24
	void setCharAt(unsigned int index, char c);
	char operator [] (unsigned int index) const;
	char& operator [] (unsigned int index);
	void getBytes(unsigned char *buf, unsigned int bufsize, unsigned int index=0) const;
	void toCharArray(char *buf, unsigned int bufsize, unsigned int index=0) const
		{getBytes((unsigned char *)buf, bufsize, index);}
   d4198:	2300      	movs	r3, #0
   d419a:	a901      	add	r1, sp, #4
   d419c:	2214      	movs	r2, #20
   d419e:	4604      	mov	r4, r0
   d41a0:	f005 f902 	bl	d93a8 <_ZNK6String8getBytesEPhjj>
    char ID[ID_BUFF_SIZE];
    name.toCharArray(ID,ID_BUFF_SIZE);
    EEPROM.put(NAME_ADDR,ID);
   d41a4:	f007 fa04 	bl	db5b0 <_Z21__fetch_global_EEPROMv>
        return t;
    }

    template <typename T> const T &put( int idx, const T &t )
    {
        HAL_EEPROM_Put(idx, &t, sizeof(T));
   d41a8:	2214      	movs	r2, #20
   d41aa:	a901      	add	r1, sp, #4
   d41ac:	200a      	movs	r0, #10
   d41ae:	f004 fba9 	bl	d8904 <HAL_EEPROM_Put>
    deviceID = name;
   d41b2:	4621      	mov	r1, r4
   d41b4:	4802      	ldr	r0, [pc, #8]	; (d41c0 <_Z8renameID6String+0x2c>)
   d41b6:	f005 f88b 	bl	d92d0 <_ZN6StringaSERKS_>

    return 0;
}
   d41ba:	2000      	movs	r0, #0
   d41bc:	b006      	add	sp, #24
   d41be:	bd10      	pop	{r4, pc}
   d41c0:	2003e3c4 	.word	0x2003e3c4

000d41c4 <_Z13setSampleRate6String>:




int setSampleRate(String usr_input){
   d41c4:	b507      	push	{r0, r1, r2, lr}
  unsigned long senDuty;
  int num_input = usr_input.toInt();
   d41c6:	f005 f907 	bl	d93d8 <_ZNK6String5toIntEv>

  TaskRates enum_input;
  enum_input = (TaskRates) num_input;

  switch(enum_input)
   d41ca:	b2c0      	uxtb	r0, r0
   d41cc:	2802      	cmp	r0, #2
   d41ce:	d017      	beq.n	d4200 <_Z13setSampleRate6String+0x3c>
   d41d0:	2803      	cmp	r0, #3
   d41d2:	d005      	beq.n	d41e0 <_Z13setSampleRate6String+0x1c>
   d41d4:	2801      	cmp	r0, #1
   d41d6:	d015      	beq.n	d4204 <_Z13setSampleRate6String+0x40>
   d41d8:	2001      	movs	r0, #1
  EEPROM.put(DUTY_SEN_ADDR,senDuty);
  SENSOR_CYCLE = senDuty;

  return 0;

}
   d41da:	b003      	add	sp, #12
   d41dc:	f85d fb04 	ldr.w	pc, [sp], #4
      senDuty = 5;
   d41e0:	2305      	movs	r3, #5
      senDuty = 20;
   d41e2:	9301      	str	r3, [sp, #4]
  EEPROM.put(DUTY_SEN_ADDR,senDuty);
   d41e4:	f007 f9e4 	bl	db5b0 <_Z21__fetch_global_EEPROMv>
   d41e8:	2204      	movs	r2, #4
   d41ea:	eb0d 0102 	add.w	r1, sp, r2
   d41ee:	f44f 7082 	mov.w	r0, #260	; 0x104
   d41f2:	f004 fb87 	bl	d8904 <HAL_EEPROM_Put>
  SENSOR_CYCLE = senDuty;
   d41f6:	4b04      	ldr	r3, [pc, #16]	; (d4208 <_Z13setSampleRate6String+0x44>)
   d41f8:	9a01      	ldr	r2, [sp, #4]
   d41fa:	601a      	str	r2, [r3, #0]
  return 0;
   d41fc:	2000      	movs	r0, #0
   d41fe:	e7ec      	b.n	d41da <_Z13setSampleRate6String+0x16>
      senDuty = 10;
   d4200:	230a      	movs	r3, #10
   d4202:	e7ee      	b.n	d41e2 <_Z13setSampleRate6String+0x1e>
      senDuty = 20;
   d4204:	2314      	movs	r3, #20
   d4206:	e7ec      	b.n	d41e2 <_Z13setSampleRate6String+0x1e>
   d4208:	2003e2c4 	.word	0x2003e2c4

000d420c <_Z14setDisplayRate6String>:




int setDisplayRate(String usr_input){
   d420c:	b507      	push	{r0, r1, r2, lr}

  unsigned long scrDuty;
  int num_input = usr_input.toInt();
   d420e:	f005 f8e3 	bl	d93d8 <_ZNK6String5toIntEv>

  TaskRates enum_input;
  enum_input = (TaskRates) num_input;

  switch(enum_input)
   d4212:	b2c0      	uxtb	r0, r0
   d4214:	2802      	cmp	r0, #2
   d4216:	d017      	beq.n	d4248 <_Z14setDisplayRate6String+0x3c>
   d4218:	2803      	cmp	r0, #3
   d421a:	d005      	beq.n	d4228 <_Z14setDisplayRate6String+0x1c>
   d421c:	2801      	cmp	r0, #1
   d421e:	d015      	beq.n	d424c <_Z14setDisplayRate6String+0x40>
   d4220:	2001      	movs	r0, #1
  EEPROM.put(DUTY_SEN_ADDR,scrDuty);
  DISPLAY_REFRESH = scrDuty;

  return 0;

}
   d4222:	b003      	add	sp, #12
   d4224:	f85d fb04 	ldr.w	pc, [sp], #4
      scrDuty = 5;
   d4228:	2305      	movs	r3, #5
      scrDuty = 20;
   d422a:	9301      	str	r3, [sp, #4]
  EEPROM.put(DUTY_SEN_ADDR,scrDuty);
   d422c:	f007 f9c0 	bl	db5b0 <_Z21__fetch_global_EEPROMv>
   d4230:	2204      	movs	r2, #4
   d4232:	eb0d 0102 	add.w	r1, sp, r2
   d4236:	f44f 7082 	mov.w	r0, #260	; 0x104
   d423a:	f004 fb63 	bl	d8904 <HAL_EEPROM_Put>
  DISPLAY_REFRESH = scrDuty;
   d423e:	4b04      	ldr	r3, [pc, #16]	; (d4250 <_Z14setDisplayRate6String+0x44>)
   d4240:	9a01      	ldr	r2, [sp, #4]
   d4242:	601a      	str	r2, [r3, #0]
  return 0;
   d4244:	2000      	movs	r0, #0
   d4246:	e7ec      	b.n	d4222 <_Z14setDisplayRate6String+0x16>
      scrDuty = 10;
   d4248:	230a      	movs	r3, #10
   d424a:	e7ee      	b.n	d422a <_Z14setDisplayRate6String+0x1e>
      scrDuty = 20;
   d424c:	2314      	movs	r3, #20
   d424e:	e7ec      	b.n	d422a <_Z14setDisplayRate6String+0x1e>
   d4250:	2003de30 	.word	0x2003de30

000d4254 <_Z14setPublishRate6String>:

int setPublishRate(String usr_input){
   d4254:	b507      	push	{r0, r1, r2, lr}

  unsigned long pubDuty;
  int num_input = usr_input.toInt();
   d4256:	f005 f8bf 	bl	d93d8 <_ZNK6String5toIntEv>

  TaskRates enum_input;
  enum_input = (TaskRates) num_input;


  switch(enum_input)
   d425a:	b2c0      	uxtb	r0, r0
   d425c:	2802      	cmp	r0, #2
   d425e:	d017      	beq.n	d4290 <_Z14setPublishRate6String+0x3c>
   d4260:	2803      	cmp	r0, #3
   d4262:	d005      	beq.n	d4270 <_Z14setPublishRate6String+0x1c>
   d4264:	2801      	cmp	r0, #1
   d4266:	d016      	beq.n	d4296 <_Z14setPublishRate6String+0x42>
   d4268:	2001      	movs	r0, #1

  EEPROM.put(DUTY_PUB_ADDR,pubDuty);
  PUBLISH_RATE = pubDuty;

  return 0;
}
   d426a:	b003      	add	sp, #12
   d426c:	f85d fb04 	ldr.w	pc, [sp], #4
      pubDuty = 60;
   d4270:	233c      	movs	r3, #60	; 0x3c
      pubDuty = 600;
   d4272:	9301      	str	r3, [sp, #4]
  EEPROM.put(DUTY_PUB_ADDR,pubDuty);
   d4274:	f007 f99c 	bl	db5b0 <_Z21__fetch_global_EEPROMv>
   d4278:	2204      	movs	r2, #4
   d427a:	eb0d 0102 	add.w	r1, sp, r2
   d427e:	f240 1009 	movw	r0, #265	; 0x109
   d4282:	f004 fb3f 	bl	d8904 <HAL_EEPROM_Put>
  PUBLISH_RATE = pubDuty;
   d4286:	4b05      	ldr	r3, [pc, #20]	; (d429c <_Z14setPublishRate6String+0x48>)
   d4288:	9a01      	ldr	r2, [sp, #4]
   d428a:	601a      	str	r2, [r3, #0]
  return 0;
   d428c:	2000      	movs	r0, #0
   d428e:	e7ec      	b.n	d426a <_Z14setPublishRate6String+0x16>
      pubDuty = 300;
   d4290:	f44f 7396 	mov.w	r3, #300	; 0x12c
   d4294:	e7ed      	b.n	d4272 <_Z14setPublishRate6String+0x1e>
      pubDuty = 600;
   d4296:	f44f 7316 	mov.w	r3, #600	; 0x258
   d429a:	e7ea      	b.n	d4272 <_Z14setPublishRate6String+0x1e>
   d429c:	2003de38 	.word	0x2003de38

000d42a0 <_ZN5Print6printfEPKcz>:
    size_t println(double, int = 2);
    size_t println(const Printable&);
    size_t println(void);
    size_t println(const __FlashStringHelper*);

    size_t printf(const char* format, ...) __attribute__ ((format(printf, 2, 3)))
   d42a0:	b40e      	push	{r1, r2, r3}
   d42a2:	b503      	push	{r0, r1, lr}
   d42a4:	ab03      	add	r3, sp, #12
    {
        va_list args;
        va_start(args, format);
        auto r = this->vprintf(false, format, args);
   d42a6:	2100      	movs	r1, #0
    size_t printf(const char* format, ...) __attribute__ ((format(printf, 2, 3)))
   d42a8:	f853 2b04 	ldr.w	r2, [r3], #4
        va_start(args, format);
   d42ac:	9301      	str	r3, [sp, #4]
        auto r = this->vprintf(false, format, args);
   d42ae:	f006 fb34 	bl	da91a <_ZN5Print7vprintfEbPKcSt9__va_list>
        va_end(args);
        return r;
    }
   d42b2:	b002      	add	sp, #8
   d42b4:	f85d eb04 	ldr.w	lr, [sp], #4
   d42b8:	b003      	add	sp, #12
   d42ba:	4770      	bx	lr

000d42bc <_ZNK8particle11SPISettings7printToER5Print>:
  bool operator!=(const SPISettings& other) const
  {
    return !(other == *this);
  }

  virtual size_t printTo(Print& p) const
   d42bc:	b573      	push	{r0, r1, r4, r5, r6, lr}
   d42be:	4604      	mov	r4, r0
   d42c0:	4608      	mov	r0, r1
  {
    if (default_ && clock_ == 0)
   d42c2:	7922      	ldrb	r2, [r4, #4]
   d42c4:	68a3      	ldr	r3, [r4, #8]
   d42c6:	b132      	cbz	r2, d42d6 <_ZNK8particle11SPISettings7printToER5Print+0x1a>
   d42c8:	b9a3      	cbnz	r3, d42f4 <_ZNK8particle11SPISettings7printToER5Print+0x38>
      return p.print("<SPISettings default>");
   d42ca:	490b      	ldr	r1, [pc, #44]	; (d42f8 <_ZNK8particle11SPISettings7printToER5Print+0x3c>)
    else
      return p.printf("<SPISettings %s%u %s MODE%u>", default_ ? "default " : "", (unsigned int)clock_,
          bitOrder_ == MSBFIRST ? "MSB" : "LSB", (unsigned int)dataMode_);
  }
   d42cc:	b002      	add	sp, #8
   d42ce:	e8bd 4070 	ldmia.w	sp!, {r4, r5, r6, lr}
      return p.print("<SPISettings default>");
   d42d2:	f006 ba0f 	b.w	da6f4 <_ZN5Print5printEPKc>
      return p.printf("<SPISettings %s%u %s MODE%u>", default_ ? "default " : "", (unsigned int)clock_,
   d42d6:	4a09      	ldr	r2, [pc, #36]	; (d42fc <_ZNK8particle11SPISettings7printToER5Print+0x40>)
   d42d8:	7b26      	ldrb	r6, [r4, #12]
   d42da:	4d09      	ldr	r5, [pc, #36]	; (d4300 <_ZNK8particle11SPISettings7printToER5Print+0x44>)
   d42dc:	4909      	ldr	r1, [pc, #36]	; (d4304 <_ZNK8particle11SPISettings7printToER5Print+0x48>)
   d42de:	7b64      	ldrb	r4, [r4, #13]
   d42e0:	2e01      	cmp	r6, #1
   d42e2:	bf18      	it	ne
   d42e4:	4629      	movne	r1, r5
   d42e6:	e9cd 1400 	strd	r1, r4, [sp]
   d42ea:	4907      	ldr	r1, [pc, #28]	; (d4308 <_ZNK8particle11SPISettings7printToER5Print+0x4c>)
   d42ec:	f7ff ffd8 	bl	d42a0 <_ZN5Print6printfEPKcz>
  }
   d42f0:	b002      	add	sp, #8
   d42f2:	bd70      	pop	{r4, r5, r6, pc}
      return p.printf("<SPISettings %s%u %s MODE%u>", default_ ? "default " : "", (unsigned int)clock_,
   d42f4:	4a05      	ldr	r2, [pc, #20]	; (d430c <_ZNK8particle11SPISettings7printToER5Print+0x50>)
   d42f6:	e7ef      	b.n	d42d8 <_ZNK8particle11SPISettings7printToER5Print+0x1c>
   d42f8:	000dde85 	.word	0x000dde85
   d42fc:	000dded7 	.word	0x000dded7
   d4300:	000dde81 	.word	0x000dde81
   d4304:	000dde7d 	.word	0x000dde7d
   d4308:	000dde9b 	.word	0x000dde9b
   d430c:	000dde74 	.word	0x000dde74

000d4310 <_ZN5Print8printlnfEPKcz>:

    size_t printlnf(const char* format, ...) __attribute__ ((format(printf, 2, 3)))
   d4310:	b40e      	push	{r1, r2, r3}
   d4312:	b503      	push	{r0, r1, lr}
   d4314:	ab03      	add	r3, sp, #12
    {
        va_list args;
        va_start(args, format);
        auto r = this->vprintf(true, format, args);
   d4316:	2101      	movs	r1, #1
    size_t printlnf(const char* format, ...) __attribute__ ((format(printf, 2, 3)))
   d4318:	f853 2b04 	ldr.w	r2, [r3], #4
        va_start(args, format);
   d431c:	9301      	str	r3, [sp, #4]
        auto r = this->vprintf(true, format, args);
   d431e:	f006 fafc 	bl	da91a <_ZN5Print7vprintfEbPKcSt9__va_list>
        va_end(args);
        return r;
    }
   d4322:	b002      	add	sp, #8
   d4324:	f85d eb04 	ldr.w	lr, [sp], #4
   d4328:	b003      	add	sp, #12
   d432a:	4770      	bx	lr

000d432c <_Z14onDataReceivedPKhjRKN8particle13BlePeerDeviceEPv>:


void onDataReceived(const uint8_t *data, size_t len, const BlePeerDevice &peer, void *context)
{
   d432c:	b538      	push	{r3, r4, r5, lr}
   d432e:	4604      	mov	r4, r0
    // }
    
    // new version of onDataReceived
    //data[0] contains numbers of received data 
    int val = (int) data[0];
    if(val == count_flag){
   d4330:	4d0e      	ldr	r5, [pc, #56]	; (d436c <_Z14onDataReceivedPKhjRKN8particle13BlePeerDeviceEPv+0x40>)
   Serial.printlnf("The onDataRecived is working. \n");
   d4332:	f006 fe61 	bl	daff8 <_Z16_fetch_usbserialv>
   d4336:	490e      	ldr	r1, [pc, #56]	; (d4370 <_Z14onDataReceivedPKhjRKN8particle13BlePeerDeviceEPv+0x44>)
   d4338:	f7ff ffea 	bl	d4310 <_ZN5Print8printlnfEPKcz>
    int val = (int) data[0];
   d433c:	7824      	ldrb	r4, [r4, #0]
    if(val == count_flag){
   d433e:	682b      	ldr	r3, [r5, #0]
   d4340:	42a3      	cmp	r3, r4
   d4342:	d107      	bne.n	d4354 <_Z14onDataReceivedPKhjRKN8particle13BlePeerDeviceEPv+0x28>

      Serial.printlnf("We had received all datas\n");
   d4344:	f006 fe58 	bl	daff8 <_Z16_fetch_usbserialv>
   d4348:	490a      	ldr	r1, [pc, #40]	; (d4374 <_Z14onDataReceivedPKhjRKN8particle13BlePeerDeviceEPv+0x48>)
   d434a:	f7ff ffe1 	bl	d4310 <_ZN5Print8printlnfEPKcz>
      count_flag = 0;
   d434e:	2300      	movs	r3, #0
   d4350:	602b      	str	r3, [r5, #0]

      Serial.printlnf("There are some errors in the data and we need to transmit data again \n");
      Serial.printlnf("The Data is %d \n", val);
    }

}
   d4352:	bd38      	pop	{r3, r4, r5, pc}
      Serial.printlnf("There are some errors in the data and we need to transmit data again \n");
   d4354:	f006 fe50 	bl	daff8 <_Z16_fetch_usbserialv>
   d4358:	4907      	ldr	r1, [pc, #28]	; (d4378 <_Z14onDataReceivedPKhjRKN8particle13BlePeerDeviceEPv+0x4c>)
   d435a:	f7ff ffd9 	bl	d4310 <_ZN5Print8printlnfEPKcz>
      Serial.printlnf("The Data is %d \n", val);
   d435e:	f006 fe4b 	bl	daff8 <_Z16_fetch_usbserialv>
   d4362:	4906      	ldr	r1, [pc, #24]	; (d437c <_Z14onDataReceivedPKhjRKN8particle13BlePeerDeviceEPv+0x50>)
   d4364:	4622      	mov	r2, r4
   d4366:	f7ff ffd3 	bl	d4310 <_ZN5Print8printlnfEPKcz>
}
   d436a:	e7f2      	b.n	d4352 <_Z14onDataReceivedPKhjRKN8particle13BlePeerDeviceEPv+0x26>
   d436c:	2003e3c0 	.word	0x2003e3c0
   d4370:	000ddeb8 	.word	0x000ddeb8
   d4374:	000dded8 	.word	0x000dded8
   d4378:	000ddef3 	.word	0x000ddef3
   d437c:	000ddf3a 	.word	0x000ddf3a

000d4380 <_ZN5SdFat5beginEhN8particle11SPISettingsE>:
   *
   * \param[in] csPin SD card chip select pin.
   * \param[in] spiSettings SPI speed, mode, and bit order.
   * \return true for success else false.
   */
  bool begin(uint8_t csPin = SS, SPISettings spiSettings = SPI_FULL_SPEED) {
   d4380:	b530      	push	{r4, r5, lr}
   d4382:	b085      	sub	sp, #20
class SPISettings : public Printable {
   d4384:	4b1b      	ldr	r3, [pc, #108]	; (d43f4 <_ZN5SdFat5beginEhN8particle11SPISettingsE+0x74>)
   d4386:	9300      	str	r3, [sp, #0]
   d4388:	7913      	ldrb	r3, [r2, #4]
   d438a:	f88d 3004 	strb.w	r3, [sp, #4]
   d438e:	6893      	ldr	r3, [r2, #8]
   d4390:	9302      	str	r3, [sp, #8]
    return m_card.begin(&m_spi, csPin, spiSettings) &&
   d4392:	f500 658c 	add.w	r5, r0, #1120	; 0x460
   d4396:	8993      	ldrh	r3, [r2, #12]
   d4398:	f8ad 300c 	strh.w	r3, [sp, #12]
  bool begin(uint8_t csPin = SS, SPISettings spiSettings = SPI_FULL_SPEED) {
   d439c:	4604      	mov	r4, r0
    return m_card.begin(&m_spi, csPin, spiSettings) &&
   d439e:	460a      	mov	r2, r1
   d43a0:	466b      	mov	r3, sp
   d43a2:	f200 416c 	addw	r1, r0, #1132	; 0x46c
   d43a6:	4628      	mov	r0, r5
   d43a8:	f003 fa3a 	bl	d7820 <_ZN9SdSpiCard5beginEP14SdSpiAltDriverhN8particle11SPISettingsE>
   d43ac:	b910      	cbnz	r0, d43b4 <_ZN5SdFat5beginEhN8particle11SPISettingsE+0x34>
   d43ae:	2000      	movs	r0, #0
           SdFileSystem::begin();
  }
   d43b0:	b005      	add	sp, #20
   d43b2:	bd30      	pop	{r4, r5, pc}
   * \param[in] part partition to initialize.
   * \return The value true is returned for success and
   * the value false is returned for failure.
   */
  bool begin(BlockDriver* blockDev, uint8_t part = 0) {
    m_blockDev = blockDev;
   d43b4:	6025      	str	r5, [r4, #0]
  FatVolume* vol() {
    return this;
  }
  /** \return a pointer to the volume working directory. */
  FatFile* vwd() {
    return &m_vwd;
   d43b6:	f204 453c 	addw	r5, r4, #1084	; 0x43c
    vwd()->close();
   d43ba:	4628      	mov	r0, r5
   d43bc:	f002 fea4 	bl	d7108 <_ZN7FatFile5closeEv>
    return (part ? init(part) : init(1) || init(0))
   d43c0:	2101      	movs	r1, #1
   d43c2:	4620      	mov	r0, r4
   d43c4:	f003 f8da 	bl	d757c <_ZN9FatVolume4initEh>
   d43c8:	4601      	mov	r1, r0
   d43ca:	b168      	cbz	r0, d43e8 <_ZN5SdFat5beginEhN8particle11SPISettingsE+0x68>
            && vwd()->openRoot(this) && FatFile::setCwd(vwd());
   d43cc:	4621      	mov	r1, r4
   d43ce:	4628      	mov	r0, r5
   d43d0:	f002 fc85 	bl	d6cde <_ZN7FatFile8openRootEP9FatVolume>
   d43d4:	2800      	cmp	r0, #0
   d43d6:	d0ea      	beq.n	d43ae <_ZN5SdFat5beginEhN8particle11SPISettingsE+0x2e>
    if (!dir->isDir()) {
   d43d8:	f894 343c 	ldrb.w	r3, [r4, #1084]	; 0x43c
   d43dc:	f013 0f70 	tst.w	r3, #112	; 0x70
   d43e0:	d0e5      	beq.n	d43ae <_ZN5SdFat5beginEhN8particle11SPISettingsE+0x2e>
    m_cwd = dir;
   d43e2:	4b05      	ldr	r3, [pc, #20]	; (d43f8 <_ZN5SdFat5beginEhN8particle11SPISettingsE+0x78>)
   d43e4:	601d      	str	r5, [r3, #0]
    return true;
   d43e6:	e7e3      	b.n	d43b0 <_ZN5SdFat5beginEhN8particle11SPISettingsE+0x30>
    return (part ? init(part) : init(1) || init(0))
   d43e8:	4620      	mov	r0, r4
   d43ea:	f003 f8c7 	bl	d757c <_ZN9FatVolume4initEh>
   d43ee:	2800      	cmp	r0, #0
   d43f0:	d1ec      	bne.n	d43cc <_ZN5SdFat5beginEhN8particle11SPISettingsE+0x4c>
   d43f2:	e7dc      	b.n	d43ae <_ZN5SdFat5beginEhN8particle11SPISettingsE+0x2e>
   d43f4:	000de218 	.word	0x000de218
   d43f8:	2003e5b8 	.word	0x2003e5b8

000d43fc <_Z14update_averageP6SampleP12Data_average>:
  average->pt_03 = average->pt_03 + latest->pt_03;
   d43fc:	8842      	ldrh	r2, [r0, #2]
   d43fe:	684b      	ldr	r3, [r1, #4]
   d4400:	4413      	add	r3, r2
   d4402:	604b      	str	r3, [r1, #4]
  average->pt_05 = average->pt_05 + latest->pt_05;
   d4404:	8882      	ldrh	r2, [r0, #4]
   d4406:	688b      	ldr	r3, [r1, #8]
   d4408:	4413      	add	r3, r2
   d440a:	608b      	str	r3, [r1, #8]
  average->pt_10 = average->pt_10 + latest->pt_10;
   d440c:	88c2      	ldrh	r2, [r0, #6]
   d440e:	68cb      	ldr	r3, [r1, #12]
   d4410:	4413      	add	r3, r2
   d4412:	60cb      	str	r3, [r1, #12]
  average->pt_25 = average->pt_25 + latest->pt_25;
   d4414:	8902      	ldrh	r2, [r0, #8]
   d4416:	690b      	ldr	r3, [r1, #16]
   d4418:	4413      	add	r3, r2
   d441a:	610b      	str	r3, [r1, #16]
  average->pt_50 = average->pt_50 + latest->pt_50;
   d441c:	8942      	ldrh	r2, [r0, #10]
   d441e:	694b      	ldr	r3, [r1, #20]
   d4420:	4413      	add	r3, r2
   d4422:	614b      	str	r3, [r1, #20]
  average->pt_100 = average->pt_100 + latest->pt_100;
   d4424:	8982      	ldrh	r2, [r0, #12]
   d4426:	698b      	ldr	r3, [r1, #24]
   d4428:	4413      	add	r3, r2
   d442a:	618b      	str	r3, [r1, #24]
  average->pm10_env = average->pm10_env + latest->pm10_env;
   d442c:	89c2      	ldrh	r2, [r0, #14]
   d442e:	69cb      	ldr	r3, [r1, #28]
   d4430:	4413      	add	r3, r2
   d4432:	61cb      	str	r3, [r1, #28]
  average->pm25_env = average->pm25_env + latest->pm25_env;
   d4434:	8a02      	ldrh	r2, [r0, #16]
   d4436:	6a0b      	ldr	r3, [r1, #32]
   d4438:	4413      	add	r3, r2
   d443a:	620b      	str	r3, [r1, #32]
  average->pm100_env = average->pm100_env + latest->pm100_env;
   d443c:	8a42      	ldrh	r2, [r0, #18]
   d443e:	6a4b      	ldr	r3, [r1, #36]	; 0x24
   d4440:	4413      	add	r3, r2
   d4442:	624b      	str	r3, [r1, #36]	; 0x24
  average->pm10_st = average->pm10_st + latest->pm10_st;
   d4444:	8a82      	ldrh	r2, [r0, #20]
   d4446:	6a8b      	ldr	r3, [r1, #40]	; 0x28
   d4448:	4413      	add	r3, r2
   d444a:	628b      	str	r3, [r1, #40]	; 0x28
  average->pm25_st = average->pm25_st + latest->pm25_st;
   d444c:	8ac2      	ldrh	r2, [r0, #22]
   d444e:	6acb      	ldr	r3, [r1, #44]	; 0x2c
   d4450:	4413      	add	r3, r2
   d4452:	62cb      	str	r3, [r1, #44]	; 0x2c
  average->pm100_st = average->pm100_st + latest->pm100_st;
   d4454:	8b02      	ldrh	r2, [r0, #24]
   d4456:	6b0b      	ldr	r3, [r1, #48]	; 0x30
  average->temp = average->temp + latest->temp;
   d4458:	edd1 7a0d 	vldr	s15, [r1, #52]	; 0x34
  average->pm100_st = average->pm100_st + latest->pm100_st;
   d445c:	4413      	add	r3, r2
   d445e:	630b      	str	r3, [r1, #48]	; 0x30
  average->temp = average->temp + latest->temp;
   d4460:	ed90 7a07 	vldr	s14, [r0, #28]
  average->N++;
   d4464:	f8b1 3044 	ldrh.w	r3, [r1, #68]	; 0x44
  average->temp = average->temp + latest->temp;
   d4468:	ee77 7a87 	vadd.f32	s15, s15, s14
  average->N++;
   d446c:	3301      	adds	r3, #1
  average->temp = average->temp + latest->temp;
   d446e:	edc1 7a0d 	vstr	s15, [r1, #52]	; 0x34
  average->humidity = average->humidity + latest->humidity;
   d4472:	ed90 7a08 	vldr	s14, [r0, #32]
   d4476:	edd1 7a0e 	vldr	s15, [r1, #56]	; 0x38
   d447a:	ee77 7a87 	vadd.f32	s15, s15, s14
   d447e:	edc1 7a0e 	vstr	s15, [r1, #56]	; 0x38
  average->pressure = average->pressure + latest->pressure;
   d4482:	ed90 7a09 	vldr	s14, [r0, #36]	; 0x24
   d4486:	edd1 7a0f 	vldr	s15, [r1, #60]	; 0x3c
   d448a:	ee77 7a87 	vadd.f32	s15, s15, s14
   d448e:	edc1 7a0f 	vstr	s15, [r1, #60]	; 0x3c
  average->altitude = average->altitude + latest->altitude;
   d4492:	ed90 7a0a 	vldr	s14, [r0, #40]	; 0x28
   d4496:	edd1 7a10 	vldr	s15, [r1, #64]	; 0x40
  average->N++;
   d449a:	f8a1 3044 	strh.w	r3, [r1, #68]	; 0x44
  average->altitude = average->altitude + latest->altitude;
   d449e:	ee77 7a87 	vadd.f32	s15, s15, s14
   d44a2:	edc1 7a10 	vstr	s15, [r1, #64]	; 0x40
}
   d44a6:	4770      	bx	lr

000d44a8 <_Z11displayInitv>:
void displayInit(){
   d44a8:	b530      	push	{r4, r5, lr}
  epd.clearBuffer();
   d44aa:	4c26      	ldr	r4, [pc, #152]	; (d4544 <_Z11displayInitv+0x9c>)
void displayInit(){
   d44ac:	b0b7      	sub	sp, #220	; 0xdc
  epd.clearBuffer();
   d44ae:	4620      	mov	r0, r4
   d44b0:	f003 ffdc 	bl	d846c <_ZN12Adafruit_EPD11clearBufferEv>
  epd.fillScreen(EPD_WHITE);
   d44b4:	4620      	mov	r0, r4
   d44b6:	2101      	movs	r1, #1
   d44b8:	f001 f91f 	bl	d56fa <_ZN12Adafruit_GFX10fillScreenEt>
  const unsigned char myBitmapBitmap [] PROGMEM = {
   d44bc:	4922      	ldr	r1, [pc, #136]	; (d4548 <_Z11displayInitv+0xa0>)
   d44be:	22af      	movs	r2, #175	; 0xaf
   d44c0:	a80a      	add	r0, sp, #40	; 0x28
   d44c2:	f009 fbad 	bl	ddc20 <memcpy>
  epd.drawBitmap(95, 40, myBitmapBitmap, 40, 35, EPD_BLACK);
   d44c6:	2500      	movs	r5, #0
   d44c8:	2228      	movs	r2, #40	; 0x28
   d44ca:	2323      	movs	r3, #35	; 0x23
   d44cc:	e9cd 3501 	strd	r3, r5, [sp, #4]
   d44d0:	9200      	str	r2, [sp, #0]
   d44d2:	eb0d 0302 	add.w	r3, sp, r2
   d44d6:	4620      	mov	r0, r4
   d44d8:	215f      	movs	r1, #95	; 0x5f
   d44da:	f001 f9c1 	bl	d5860 <_ZN12Adafruit_GFX10drawBitmapEssPKhsst>
  char ID[20] = "-";
   d44de:	232d      	movs	r3, #45	; 0x2d
   d44e0:	4629      	mov	r1, r5
   d44e2:	2210      	movs	r2, #16
   d44e4:	a806      	add	r0, sp, #24
   d44e6:	9305      	str	r3, [sp, #20]
   d44e8:	f009 fbc2 	bl	ddc70 <memset>
  EEPROM.get(NAME_ADDR,ID);
   d44ec:	f007 f860 	bl	db5b0 <_Z21__fetch_global_EEPROMv>
        HAL_EEPROM_Get(idx, &t, sizeof(T));
   d44f0:	2214      	movs	r2, #20
   d44f2:	eb0d 0102 	add.w	r1, sp, r2
   d44f6:	200a      	movs	r0, #10
   d44f8:	f004 f9fc 	bl	d88f4 <HAL_EEPROM_Get>
  epd.setTextSize(1);
   d44fc:	4620      	mov	r0, r4
   d44fe:	2101      	movs	r1, #1
   d4500:	f001 fbdc 	bl	d5cbc <_ZN12Adafruit_GFX11setTextSizeEh>
  epd.setCursor(97, 80);
   d4504:	2250      	movs	r2, #80	; 0x50
   d4506:	4620      	mov	r0, r4
   d4508:	2161      	movs	r1, #97	; 0x61
   d450a:	f001 fbd4 	bl	d5cb6 <_ZN12Adafruit_GFX9setCursorEss>
  epd.setTextColor(EPD_BLACK);
   d450e:	4629      	mov	r1, r5
   d4510:	4620      	mov	r0, r4
   d4512:	f001 fbd8 	bl	d5cc6 <_ZN12Adafruit_GFX12setTextColorEt>
  epd.print(VERSION_R);
   d4516:	490d      	ldr	r1, [pc, #52]	; (d454c <_Z11displayInitv+0xa4>)
   d4518:	4620      	mov	r0, r4
   d451a:	f006 f8eb 	bl	da6f4 <_ZN5Print5printEPKc>
  epd.setCursor(73, 90);
   d451e:	225a      	movs	r2, #90	; 0x5a
   d4520:	4620      	mov	r0, r4
   d4522:	2149      	movs	r1, #73	; 0x49
   d4524:	f001 fbc7 	bl	d5cb6 <_ZN12Adafruit_GFX9setCursorEss>
  epd.print("Device: ");
   d4528:	4909      	ldr	r1, [pc, #36]	; (d4550 <_Z11displayInitv+0xa8>)
   d452a:	4620      	mov	r0, r4
   d452c:	f006 f8e2 	bl	da6f4 <_ZN5Print5printEPKc>
  epd.print(ID);
   d4530:	a905      	add	r1, sp, #20
   d4532:	4620      	mov	r0, r4
   d4534:	f006 f8de 	bl	da6f4 <_ZN5Print5printEPKc>
  epd.display();
   d4538:	4620      	mov	r0, r4
   d453a:	f004 f892 	bl	d8662 <_ZN12Adafruit_EPD7displayEv>
}
   d453e:	b037      	add	sp, #220	; 0xdc
   d4540:	bd30      	pop	{r4, r5, pc}
   d4542:	bf00      	nop
   d4544:	2003e3d4 	.word	0x2003e3d4
   d4548:	000de24c 	.word	0x000de24c
   d454c:	000ddf4b 	.word	0x000ddf4b
   d4550:	000ddf52 	.word	0x000ddf52

000d4554 <_Z8ble_initv>:

void ble_init(){
   d4554:	b510      	push	{r4, lr}
   d4556:	b0a0      	sub	sp, #128	; 0x80

  BLE.on();
   d4558:	f005 fb56 	bl	d9c08 <_ZN8particle14BleLocalDevice11getInstanceEv>
   d455c:	f005 fba2 	bl	d9ca4 <_ZNK8particle14BleLocalDevice2onEv>

  // robert testing (possible solution)
  rxCharacteristic.onDataReceived(onDataReceived,NULL);
   d4560:	493d      	ldr	r1, [pc, #244]	; (d4658 <_Z8ble_initv+0x104>)
   d4562:	483e      	ldr	r0, [pc, #248]	; (d465c <_Z8ble_initv+0x108>)
   d4564:	2200      	movs	r2, #0
   d4566:	f005 fe9f 	bl	da2a8 <_ZN8particle17BleCharacteristic14onDataReceivedEPFvPKhjRKNS_13BlePeerDeviceEPvES6_>

  //heartRateMeasurementCharacteristic.onDataReceived(onDataReceived, NULL);

  //BLE.addCharacteristic(heartRateMeasurementCharacteristic);
  BLE.addCharacteristic(txCharacteristic);
   d456a:	f005 fb4d 	bl	d9c08 <_ZN8particle14BleLocalDevice11getInstanceEv>
   d456e:	4a3c      	ldr	r2, [pc, #240]	; (d4660 <_Z8ble_initv+0x10c>)
   d4570:	4601      	mov	r1, r0
   d4572:	a817      	add	r0, sp, #92	; 0x5c
   d4574:	f005 ff8c 	bl	da490 <_ZN8particle14BleLocalDevice17addCharacteristicERKNS_17BleCharacteristicE>
   d4578:	a817      	add	r0, sp, #92	; 0x5c
   d457a:	f005 fc1a 	bl	d9db2 <_ZN8particle17BleCharacteristicD1Ev>
  BLE.addCharacteristic(rxCharacteristic);
   d457e:	f005 fb43 	bl	d9c08 <_ZN8particle14BleLocalDevice11getInstanceEv>
   d4582:	4a36      	ldr	r2, [pc, #216]	; (d465c <_Z8ble_initv+0x108>)
   d4584:	4601      	mov	r1, r0
   d4586:	a817      	add	r0, sp, #92	; 0x5c
   d4588:	f005 ff82 	bl	da490 <_ZN8particle14BleLocalDevice17addCharacteristicERKNS_17BleCharacteristicE>
   d458c:	a817      	add	r0, sp, #92	; 0x5c
   d458e:	f005 fc10 	bl	d9db2 <_ZN8particle17BleCharacteristicD1Ev>

  BleAdvertisingData data;
   d4592:	a817      	add	r0, sp, #92	; 0x5c
   d4594:	f005 f9a9 	bl	d98ea <_ZN8particle18BleAdvertisingDataC1Ev>
  data.appendServiceUUID(serviceUuid);
   d4598:	4932      	ldr	r1, [pc, #200]	; (d4664 <_Z8ble_initv+0x110>)
   d459a:	a80a      	add	r0, sp, #40	; 0x28
   d459c:	f005 f8a8 	bl	d96f0 <_ZN8particle7BleUuidC1ERKS0_>
    size_t appendLocalName(const String& name);
    size_t appendAppearance(ble_sig_appearance_t appearance);

    template<typename T>
    size_t appendServiceUUID(T uuid, bool force = false) {
        BleUuid tempUUID(uuid);
   d45a0:	a90a      	add	r1, sp, #40	; 0x28
   d45a2:	a80f      	add	r0, sp, #60	; 0x3c
   d45a4:	f005 f8a4 	bl	d96f0 <_ZN8particle7BleUuidC1ERKS0_>
        if (tempUUID.type() == BleUuidType::SHORT) {
   d45a8:	a80f      	add	r0, sp, #60	; 0x3c
   d45aa:	f005 f8e7 	bl	d977c <_ZNK8particle7BleUuid4typeEv>
   d45ae:	4604      	mov	r4, r0
            uint16_t uuid16 = tempUUID.shorted();
   d45b0:	a80f      	add	r0, sp, #60	; 0x3c
        if (tempUUID.type() == BleUuidType::SHORT) {
   d45b2:	2c00      	cmp	r4, #0
   d45b4:	d147      	bne.n	d4646 <_Z8ble_initv+0xf2>
            uint16_t uuid16 = tempUUID.shorted();
   d45b6:	f005 f900 	bl	d97ba <_ZNK8particle7BleUuid7shortedEv>
            return append(BleAdvertisingDataType::SERVICE_UUID_16BIT_COMPLETE, reinterpret_cast<const uint8_t*>(&uuid16), sizeof(uint16_t), force);
   d45ba:	9400      	str	r4, [sp, #0]
            uint16_t uuid16 = tempUUID.shorted();
   d45bc:	f8ad 0018 	strh.w	r0, [sp, #24]
            return append(BleAdvertisingDataType::SERVICE_UUID_16BIT_COMPLETE, reinterpret_cast<const uint8_t*>(&uuid16), sizeof(uint16_t), force);
   d45c0:	2302      	movs	r3, #2
   d45c2:	aa06      	add	r2, sp, #24
   d45c4:	2103      	movs	r1, #3
        }
        else {
            return append(BleAdvertisingDataType::SERVICE_UUID_128BIT_COMPLETE, tempUUID.rawBytes(), BLE_SIG_UUID_128BIT_LEN, force);
   d45c6:	a817      	add	r0, sp, #92	; 0x5c
   d45c8:	f005 f984 	bl	d98d4 <_ZN8particle18BleAdvertisingData6appendENS_22BleAdvertisingDataTypeEPKhjb>
    inline static SleepResult sleep(const pin_t* pins, size_t pinsSize, const InterruptMode* edgeTriggerMode, size_t edgeTriggerModeSize, SleepOptionFlags flag, std::chrono::seconds s) {
        return sleep(pins, pinsSize, edgeTriggerMode, edgeTriggerModeSize, flag, s.count());
    }

    static String deviceID(void) {
        return spark_deviceID();
   d45cc:	a802      	add	r0, sp, #8
   d45ce:	f004 fc7d 	bl	d8ecc <spark_deviceID>
};

class StringSumHelper : public String
{
public:
	StringSumHelper(const String &s) : String(s) {}
   d45d2:	4925      	ldr	r1, [pc, #148]	; (d4668 <_Z8ble_initv+0x114>)
   d45d4:	a80f      	add	r0, sp, #60	; 0x3c
   d45d6:	f004 fe8a 	bl	d92ee <_ZN6StringC1ERKS_>

  String myID = System.deviceID();
  String LocalName = deviceID + " " + myID;
   d45da:	4924      	ldr	r1, [pc, #144]	; (d466c <_Z8ble_initv+0x118>)
   d45dc:	a80f      	add	r0, sp, #60	; 0x3c
   d45de:	f004 fece 	bl	d937e <_ZplRK15StringSumHelperPKc>
   d45e2:	a902      	add	r1, sp, #8
   d45e4:	f004 febf 	bl	d9366 <_ZplRK15StringSumHelperRK6String>
   d45e8:	4601      	mov	r1, r0
   d45ea:	a806      	add	r0, sp, #24
   d45ec:	f004 fe7f 	bl	d92ee <_ZN6StringC1ERKS_>
class StringSumHelper : public String
   d45f0:	a80f      	add	r0, sp, #60	; 0x3c
   d45f2:	f004 fdf1 	bl	d91d8 <_ZN6StringD1Ev>
  String LocalName2 = "A e06";
   d45f6:	491e      	ldr	r1, [pc, #120]	; (d4670 <_Z8ble_initv+0x11c>)
   d45f8:	a80a      	add	r0, sp, #40	; 0x28
   d45fa:	f004 fe38 	bl	d926e <_ZN6StringC1EPKc>
  
  data.appendLocalName(deviceID);
   d45fe:	491a      	ldr	r1, [pc, #104]	; (d4668 <_Z8ble_initv+0x114>)
   d4600:	a817      	add	r0, sp, #92	; 0x5c
   d4602:	f005 f99d 	bl	d9940 <_ZN8particle18BleAdvertisingData15appendLocalNameERK6String>
  // 16-bit: Company ID (0xffff)
  // Byte: Internal packet identifier (0x55)
  // 32-bit: Color code

  // Company ID (0xffff internal use/testing)
  buf[offset++] = 0xff;
   d4606:	4b1b      	ldr	r3, [pc, #108]	; (d4674 <_Z8ble_initv+0x120>)
   d4608:	930f      	str	r3, [sp, #60]	; 0x3c
  // Internal packet type. This is arbitrary, but provides an extra
  // check to make sure the data is my data, since we use the 0xffff company
  // code.
  buf[offset++] = 0x55;
  const uint32_t myColor = 0xff0000;
  memcpy(&buf[offset], &myColor, 4);
   d460a:	2400      	movs	r4, #0
   d460c:	f44f 437f 	mov.w	r3, #65280	; 0xff00
  // Our specific data, color code
  
  offset += 4;

  data.appendCustomData(buf,offset );
   d4610:	a90f      	add	r1, sp, #60	; 0x3c
  memcpy(&buf[offset], &myColor, 4);
   d4612:	f8ad 3040 	strh.w	r3, [sp, #64]	; 0x40
  data.appendCustomData(buf,offset );
   d4616:	2207      	movs	r2, #7
   d4618:	4623      	mov	r3, r4
   d461a:	a817      	add	r0, sp, #92	; 0x5c
  memcpy(&buf[offset], &myColor, 4);
   d461c:	f88d 4042 	strb.w	r4, [sp, #66]	; 0x42
  data.appendCustomData(buf,offset );
   d4620:	f005 f991 	bl	d9946 <_ZN8particle18BleAdvertisingData16appendCustomDataEPKhjb>
  BLE.advertise(&data);
   d4624:	f005 faf0 	bl	d9c08 <_ZN8particle14BleLocalDevice11getInstanceEv>
   d4628:	4622      	mov	r2, r4
   d462a:	a917      	add	r1, sp, #92	; 0x5c
   d462c:	f005 fb5a 	bl	d9ce4 <_ZNK8particle14BleLocalDevice9advertiseEPNS_18BleAdvertisingDataES2_>
  String LocalName2 = "A e06";
   d4630:	a80a      	add	r0, sp, #40	; 0x28
   d4632:	f004 fdd1 	bl	d91d8 <_ZN6StringD1Ev>
  String LocalName = deviceID + " " + myID;
   d4636:	a806      	add	r0, sp, #24
   d4638:	f004 fdce 	bl	d91d8 <_ZN6StringD1Ev>
  String myID = System.deviceID();
   d463c:	a802      	add	r0, sp, #8
   d463e:	f004 fdcb 	bl	d91d8 <_ZN6StringD1Ev>

  
}
   d4642:	b020      	add	sp, #128	; 0x80
   d4644:	bd10      	pop	{r4, pc}
   d4646:	f005 f8bd 	bl	d97c4 <_ZNK8particle7BleUuid8rawBytesEv>
   d464a:	2300      	movs	r3, #0
   d464c:	9300      	str	r3, [sp, #0]
   d464e:	4602      	mov	r2, r0
   d4650:	2310      	movs	r3, #16
   d4652:	2107      	movs	r1, #7
   d4654:	e7b7      	b.n	d45c6 <_Z8ble_initv+0x72>
   d4656:	bf00      	nop
   d4658:	000d432d 	.word	0x000d432d
   d465c:	2003e5a4 	.word	0x2003e5a4
   d4660:	2003e5ac 	.word	0x2003e5ac
   d4664:	2003e2d4 	.word	0x2003e2d4
   d4668:	2003e3c4 	.word	0x2003e3c4
   d466c:	000de0b1 	.word	0x000de0b1
   d4670:	000ddf5b 	.word	0x000ddf5b
   d4674:	0055ffff 	.word	0x0055ffff

000d4678 <setup>:
{ 
   d4678:	e92d 41f0 	stmdb	sp!, {r4, r5, r6, r7, r8, lr}
  pinMode(PM_RST,OUTPUT);
   d467c:	2101      	movs	r1, #1
{ 
   d467e:	b08a      	sub	sp, #40	; 0x28
  pinMode(PM_RST,OUTPUT);
   d4680:	2013      	movs	r0, #19
   d4682:	f006 ff57 	bl	db534 <pinMode>
  pinMode(PP5V0_EN,OUTPUT);
   d4686:	2101      	movs	r1, #1
   d4688:	2008      	movs	r0, #8
   d468a:	f006 ff53 	bl	db534 <pinMode>
  digitalWrite(PM_RST,HIGH);
   d468e:	2101      	movs	r1, #1
   d4690:	2013      	movs	r0, #19
   d4692:	f006 ff60 	bl	db556 <digitalWrite>
  digitalWrite(PP5V0_EN,HIGH);
   d4696:	2101      	movs	r1, #1
   d4698:	2008      	movs	r0, #8
   d469a:	f006 ff5c 	bl	db556 <digitalWrite>
        return register_function(call_raw_user_function, (void*)func, funcKey);
   d469e:	4a6d      	ldr	r2, [pc, #436]	; (d4854 <setup+0x1dc>)
   d46a0:	496d      	ldr	r1, [pc, #436]	; (d4858 <setup+0x1e0>)
   d46a2:	486e      	ldr	r0, [pc, #440]	; (d485c <setup+0x1e4>)
        return spark_variable(varKey, (const void*)userVar, CloudVariableTypeInt::TYPE_ID, NULL);
   d46a4:	4f6e      	ldr	r7, [pc, #440]	; (d4860 <setup+0x1e8>)
   d46a6:	4e6f      	ldr	r6, [pc, #444]	; (d4864 <setup+0x1ec>)
   d46a8:	4d6f      	ldr	r5, [pc, #444]	; (d4868 <setup+0x1f0>)
        return register_function(call_raw_user_function, (void*)func, funcKey);
   d46aa:	f006 fbc3 	bl	dae34 <_ZN10CloudClass17register_functionEPFiPvPKcS0_ES0_S2_>
   d46ae:	4a6f      	ldr	r2, [pc, #444]	; (d486c <setup+0x1f4>)
   d46b0:	496f      	ldr	r1, [pc, #444]	; (d4870 <setup+0x1f8>)
   d46b2:	486a      	ldr	r0, [pc, #424]	; (d485c <setup+0x1e4>)
   d46b4:	f006 fbbe 	bl	dae34 <_ZN10CloudClass17register_functionEPFiPvPKcS0_ES0_S2_>
   d46b8:	4a6e      	ldr	r2, [pc, #440]	; (d4874 <setup+0x1fc>)
   d46ba:	496f      	ldr	r1, [pc, #444]	; (d4878 <setup+0x200>)
   d46bc:	4867      	ldr	r0, [pc, #412]	; (d485c <setup+0x1e4>)
   d46be:	f006 fbb9 	bl	dae34 <_ZN10CloudClass17register_functionEPFiPvPKcS0_ES0_S2_>
   d46c2:	4a6e      	ldr	r2, [pc, #440]	; (d487c <setup+0x204>)
   d46c4:	496e      	ldr	r1, [pc, #440]	; (d4880 <setup+0x208>)
   d46c6:	4865      	ldr	r0, [pc, #404]	; (d485c <setup+0x1e4>)
   d46c8:	f006 fbb4 	bl	dae34 <_ZN10CloudClass17register_functionEPFiPvPKcS0_ES0_S2_>
        return spark_variable(varKey, (const void*)userVar, CloudVariableTypeInt::TYPE_ID, NULL);
   d46cc:	2300      	movs	r3, #0
   d46ce:	2202      	movs	r2, #2
   d46d0:	4639      	mov	r1, r7
   d46d2:	486c      	ldr	r0, [pc, #432]	; (d4884 <setup+0x20c>)
   d46d4:	f004 fbda 	bl	d8e8c <spark_variable>
   d46d8:	2300      	movs	r3, #0
   d46da:	2202      	movs	r2, #2
   d46dc:	4631      	mov	r1, r6
   d46de:	486a      	ldr	r0, [pc, #424]	; (d4888 <setup+0x210>)
   d46e0:	f004 fbd4 	bl	d8e8c <spark_variable>
   d46e4:	2300      	movs	r3, #0
   d46e6:	2202      	movs	r2, #2
   d46e8:	4629      	mov	r1, r5
   d46ea:	4868      	ldr	r0, [pc, #416]	; (d488c <setup+0x214>)
   d46ec:	f004 fbce 	bl	d8e8c <spark_variable>
        spark_variable_t extra = {};
   d46f0:	2400      	movs	r4, #0
        extra.size = sizeof(extra);
   d46f2:	230c      	movs	r3, #12
        spark_variable_t extra = {};
   d46f4:	9405      	str	r4, [sp, #20]
        extra.size = sizeof(extra);
   d46f6:	f8ad 3014 	strh.w	r3, [sp, #20]
        extra.update = update_string_variable;
   d46fa:	4b65      	ldr	r3, [pc, #404]	; (d4890 <setup+0x218>)
        return spark_variable(varKey, userVar, CloudVariableTypeString::TYPE_ID, &extra);
   d46fc:	4965      	ldr	r1, [pc, #404]	; (d4894 <setup+0x21c>)
        extra.update = update_string_variable;
   d46fe:	9306      	str	r3, [sp, #24]
        return spark_variable(varKey, userVar, CloudVariableTypeString::TYPE_ID, &extra);
   d4700:	2204      	movs	r2, #4
   d4702:	ab05      	add	r3, sp, #20
   d4704:	4864      	ldr	r0, [pc, #400]	; (d4898 <setup+0x220>)
        spark_variable_t extra = {};
   d4706:	9407      	str	r4, [sp, #28]
        return spark_variable(varKey, userVar, CloudVariableTypeString::TYPE_ID, &extra);
   d4708:	f004 fbc0 	bl	d8e8c <spark_variable>

#if HAL_PLATFORM_NCP && HAL_PLATFORM_CELLULAR
// FIXME: there should be a separate macro to indicate that this functionality
// is available
    int setActiveSim(SimType sim) {
        return cellular_set_active_sim(sim, nullptr);
   d470c:	4621      	mov	r1, r4
   d470e:	2001      	movs	r0, #1
   d4710:	f004 faba 	bl	d8c88 <cellular_set_active_sim>
  const uint8_t val = 0x01;
   d4714:	f04f 0801 	mov.w	r8, #1
        cellular_credentials_clear(nullptr);
   d4718:	4620      	mov	r0, r4
   d471a:	f004 fabf 	bl	d8c9c <cellular_credentials_clear>
  dct_write_app_data(&val, DCT_SETUP_DONE_OFFSET, 1);
   d471e:	4642      	mov	r2, r8
   d4720:	f641 71c6 	movw	r1, #8134	; 0x1fc6
   d4724:	f10d 0003 	add.w	r0, sp, #3
  const uint8_t val = 0x01;
   d4728:	f88d 8003 	strb.w	r8, [sp, #3]
  dct_write_app_data(&val, DCT_SETUP_DONE_OFFSET, 1);
   d472c:	f004 fac0 	bl	d8cb0 <dct_write_app_data>
        network_off(*this, 0, 0, NULL);
   d4730:	485a      	ldr	r0, [pc, #360]	; (d489c <setup+0x224>)
   d4732:	4623      	mov	r3, r4
   d4734:	4622      	mov	r2, r4
   d4736:	4621      	mov	r1, r4
   d4738:	6840      	ldr	r0, [r0, #4]
   d473a:	f004 fb6f 	bl	d8e1c <network_off>
  delay(1000);
   d473e:	f44f 707a 	mov.w	r0, #1000	; 0x3e8
   d4742:	f006 f9ed 	bl	dab20 <delay>
      dataMode_{dataMode}
   d4746:	4b56      	ldr	r3, [pc, #344]	; (d48a0 <setup+0x228>)
   d4748:	9305      	str	r3, [sp, #20]
  SD.begin(SD_CS);
   d474a:	aa05      	add	r2, sp, #20
   d474c:	4b55      	ldr	r3, [pc, #340]	; (d48a4 <setup+0x22c>)
   d474e:	4856      	ldr	r0, [pc, #344]	; (d48a8 <setup+0x230>)
   d4750:	9307      	str	r3, [sp, #28]
   d4752:	2102      	movs	r1, #2
   d4754:	f88d 4018 	strb.w	r4, [sp, #24]
   d4758:	f8ad 8020 	strh.w	r8, [sp, #32]
   d475c:	f7ff fe10 	bl	d4380 <_ZN5SdFat5beginEhN8particle11SPISettingsE>
  delay(1000);
   d4760:	f44f 707a 	mov.w	r0, #1000	; 0x3e8
   d4764:	f006 f9dc 	bl	dab20 <delay>
  bme.begin();
   d4768:	2176      	movs	r1, #118	; 0x76
   d476a:	4850      	ldr	r0, [pc, #320]	; (d48ac <setup+0x234>)
   d476c:	f001 fef0 	bl	d6550 <_ZN15Adafruit_BME2805beginEh>
  pm.begin();
   d4770:	484f      	ldr	r0, [pc, #316]	; (d48b0 <setup+0x238>)
   d4772:	f000 fe90 	bl	d5496 <_ZN7PMSA0035beginEv>
  epd.begin();
   d4776:	4641      	mov	r1, r8
   d4778:	484e      	ldr	r0, [pc, #312]	; (d48b4 <setup+0x23c>)
   d477a:	f003 fb53 	bl	d7e24 <_ZN15Adafruit_IL03735beginEb>
  delay(5000);
   d477e:	f241 3088 	movw	r0, #5000	; 0x1388
   d4782:	f006 f9cd 	bl	dab20 <delay>
  EEPROM.get(NAME_ADDR,ID);
   d4786:	f006 ff13 	bl	db5b0 <_Z21__fetch_global_EEPROMv>
   d478a:	2214      	movs	r2, #20
   d478c:	eb0d 0102 	add.w	r1, sp, r2
   d4790:	200a      	movs	r0, #10
   d4792:	f004 f8af 	bl	d88f4 <HAL_EEPROM_Get>
  deviceID = String(ID);
   d4796:	a905      	add	r1, sp, #20
   d4798:	a801      	add	r0, sp, #4
   d479a:	f004 fd68 	bl	d926e <_ZN6StringC1EPKc>
   d479e:	a901      	add	r1, sp, #4
   d47a0:	483c      	ldr	r0, [pc, #240]	; (d4894 <setup+0x21c>)
   d47a2:	f004 fdaf 	bl	d9304 <_ZN6StringaSEOS_>
   d47a6:	a801      	add	r0, sp, #4
   d47a8:	f004 fd16 	bl	d91d8 <_ZN6StringD1Ev>
  EEPROM.get(DUTY_PUB_ADDR,duty_check);
   d47ac:	f006 ff00 	bl	db5b0 <_Z21__fetch_global_EEPROMv>
   d47b0:	2202      	movs	r2, #2
   d47b2:	a901      	add	r1, sp, #4
   d47b4:	f240 1009 	movw	r0, #265	; 0x109
   d47b8:	f004 f89c 	bl	d88f4 <HAL_EEPROM_Get>
  if(duty_check != 0xFFFF){
   d47bc:	f8bd 2004 	ldrh.w	r2, [sp, #4]
   d47c0:	f64f 73ff 	movw	r3, #65535	; 0xffff
   d47c4:	429a      	cmp	r2, r3
   d47c6:	d024      	beq.n	d4812 <setup+0x19a>
    EEPROM.get(DUTY_SCR_ADDR,DISPLAY_REFRESH);
   d47c8:	f006 fef2 	bl	db5b0 <_Z21__fetch_global_EEPROMv>
   d47cc:	2204      	movs	r2, #4
   d47ce:	4639      	mov	r1, r7
   d47d0:	20ff      	movs	r0, #255	; 0xff
   d47d2:	f004 f88f 	bl	d88f4 <HAL_EEPROM_Get>
    EEPROM.get(DUTY_SEN_ADDR,SENSOR_CYCLE);
   d47d6:	f006 feeb 	bl	db5b0 <_Z21__fetch_global_EEPROMv>
   d47da:	2204      	movs	r2, #4
   d47dc:	4631      	mov	r1, r6
   d47de:	f44f 7082 	mov.w	r0, #260	; 0x104
   d47e2:	f004 f887 	bl	d88f4 <HAL_EEPROM_Get>
    EEPROM.get(DUTY_PUB_ADDR,PUBLISH_RATE);
   d47e6:	f006 fee3 	bl	db5b0 <_Z21__fetch_global_EEPROMv>
   d47ea:	2204      	movs	r2, #4
   d47ec:	4629      	mov	r1, r5
   d47ee:	f240 1009 	movw	r0, #265	; 0x109
   d47f2:	f004 f87f 	bl	d88f4 <HAL_EEPROM_Get>
  ble_init();
   d47f6:	f7ff fead 	bl	d4554 <_Z8ble_initv>
  PHONE_BACKUP_REQUEST = true;
   d47fa:	4b2f      	ldr	r3, [pc, #188]	; (d48b8 <setup+0x240>)
   d47fc:	2201      	movs	r2, #1
   d47fe:	701a      	strb	r2, [r3, #0]
  displayInit();  
   d4800:	f7ff fe52 	bl	d44a8 <_Z11displayInitv>
  delay(5000);
   d4804:	f241 3088 	movw	r0, #5000	; 0x1388
   d4808:	f006 f98a 	bl	dab20 <delay>
}
   d480c:	b00a      	add	sp, #40	; 0x28
   d480e:	e8bd 81f0 	ldmia.w	sp!, {r4, r5, r6, r7, r8, pc}
    DISPLAY_REFRESH = 60*15;
   d4812:	f44f 7361 	mov.w	r3, #900	; 0x384
   d4816:	603b      	str	r3, [r7, #0]
    SENSOR_CYCLE = 30;
   d4818:	231e      	movs	r3, #30
   d481a:	6033      	str	r3, [r6, #0]
    PUBLISH_RATE = 36000;
   d481c:	f648 43a0 	movw	r3, #36000	; 0x8ca0
   d4820:	602b      	str	r3, [r5, #0]
    EEPROM.put(DUTY_SCR_ADDR,DISPLAY_REFRESH);
   d4822:	f006 fec5 	bl	db5b0 <_Z21__fetch_global_EEPROMv>
        HAL_EEPROM_Put(idx, &t, sizeof(T));
   d4826:	4639      	mov	r1, r7
   d4828:	2204      	movs	r2, #4
   d482a:	20ff      	movs	r0, #255	; 0xff
   d482c:	f004 f86a 	bl	d8904 <HAL_EEPROM_Put>
    EEPROM.put(DUTY_SEN_ADDR,SENSOR_CYCLE);
   d4830:	f006 febe 	bl	db5b0 <_Z21__fetch_global_EEPROMv>
   d4834:	4631      	mov	r1, r6
   d4836:	2204      	movs	r2, #4
   d4838:	f44f 7082 	mov.w	r0, #260	; 0x104
   d483c:	f004 f862 	bl	d8904 <HAL_EEPROM_Put>
    EEPROM.put(DUTY_PUB_ADDR,PUBLISH_RATE);
   d4840:	f006 feb6 	bl	db5b0 <_Z21__fetch_global_EEPROMv>
   d4844:	2204      	movs	r2, #4
   d4846:	4629      	mov	r1, r5
   d4848:	f240 1009 	movw	r0, #265	; 0x109
   d484c:	f004 f85a 	bl	d8904 <HAL_EEPROM_Put>
        return t;
   d4850:	e7d1      	b.n	d47f6 <setup+0x17e>
   d4852:	bf00      	nop
   d4854:	000ddf61 	.word	0x000ddf61
   d4858:	000d4195 	.word	0x000d4195
   d485c:	000dae09 	.word	0x000dae09
   d4860:	2003de30 	.word	0x2003de30
   d4864:	2003e2c4 	.word	0x2003e2c4
   d4868:	2003de38 	.word	0x2003de38
   d486c:	000ddf6f 	.word	0x000ddf6f
   d4870:	000d420d 	.word	0x000d420d
   d4874:	000ddf86 	.word	0x000ddf86
   d4878:	000d4255 	.word	0x000d4255
   d487c:	000ddf9d 	.word	0x000ddf9d
   d4880:	000d41c5 	.word	0x000d41c5
   d4884:	000ddfb3 	.word	0x000ddfb3
   d4888:	000ddfc8 	.word	0x000ddfc8
   d488c:	000ddfdb 	.word	0x000ddfdb
   d4890:	000d40c9 	.word	0x000d40c9
   d4894:	2003e3c4 	.word	0x2003e3c4
   d4898:	000ddfe8 	.word	0x000ddfe8
   d489c:	2003e660 	.word	0x2003e660
   d48a0:	000de218 	.word	0x000de218
   d48a4:	02faf080 	.word	0x02faf080
   d48a8:	2003de3c 	.word	0x2003de3c
   d48ac:	2003e380 	.word	0x2003e380
   d48b0:	2003e498 	.word	0x2003e498
   d48b4:	2003e3d4 	.word	0x2003e3d4
   d48b8:	2003de34 	.word	0x2003de34

000d48bc <_Z12write_to_blePc>:


void write_to_ble(char *packet){
   d48bc:	b570      	push	{r4, r5, r6, lr}
   d48be:	b0c4      	sub	sp, #272	; 0x110
   d48c0:	4605      	mov	r5, r0
   d48c2:	2400      	movs	r4, #0
  uint8_t txBuf[UART_TX_BUF_SIZE];
  size_t txLen = 0;

  for (size_t i = 0; i < strlen(packet); i++)
  {
    txBuf[txLen++] = packet[i];
   d48c4:	ae01      	add	r6, sp, #4
  for (size_t i = 0; i < strlen(packet); i++)
   d48c6:	4628      	mov	r0, r5
   d48c8:	f009 fa1d 	bl	ddd06 <strlen>
   d48cc:	42a0      	cmp	r0, r4
   d48ce:	d903      	bls.n	d48d8 <_Z12write_to_blePc+0x1c>
    txBuf[txLen++] = packet[i];
   d48d0:	5d2b      	ldrb	r3, [r5, r4]
   d48d2:	55a3      	strb	r3, [r4, r6]
  for (size_t i = 0; i < strlen(packet); i++)
   d48d4:	3401      	adds	r4, #1
   d48d6:	e7f6      	b.n	d48c6 <_Z12write_to_blePc+0xa>
    //Serial.write(txBuf[txLen - 1]);
  }
  if (txLen > 0)
   d48d8:	b12c      	cbz	r4, d48e6 <_Z12write_to_blePc+0x2a>
  {
    txCharacteristic.setValue(txBuf, txLen);
   d48da:	4804      	ldr	r0, [pc, #16]	; (d48ec <_Z12write_to_blePc+0x30>)
   d48dc:	2300      	movs	r3, #0
   d48de:	4622      	mov	r2, r4
   d48e0:	a901      	add	r1, sp, #4
   d48e2:	f005 f889 	bl	d99f8 <_ZN8particle17BleCharacteristic8setValueEPKhjNS_11BleTxRxTypeE>
  }

}
   d48e6:	b044      	add	sp, #272	; 0x110
   d48e8:	bd70      	pop	{r4, r5, r6, pc}
   d48ea:	bf00      	nop
   d48ec:	2003e5ac 	.word	0x2003e5ac

000d48f0 <_Z10backUp2BLEPc>:

Robert's version.

*/

void backUp2BLE(char *output){
   d48f0:	b5f0      	push	{r4, r5, r6, r7, lr}
   d48f2:	b091      	sub	sp, #68	; 0x44
   d48f4:	4607      	mov	r7, r0
  Serial.println("I came here, please find me\n");
   d48f6:	f006 fb7f 	bl	daff8 <_Z16_fetch_usbserialv>
   d48fa:	494c      	ldr	r1, [pc, #304]	; (d4a2c <_Z10backUp2BLEPc+0x13c>)
class File : public FatFile, public Stream {
   d48fc:	4e4c      	ldr	r6, [pc, #304]	; (d4a30 <_Z10backUp2BLEPc+0x140>)
   d48fe:	f005 ff0c 	bl	da71a <_ZN5Print7printlnEPKc>
    virtual int available() = 0;
    virtual int read() = 0;
    virtual int peek() = 0;
    virtual void flush() = 0;

    Stream() {_timeout=1000;}
   d4902:	f44f 727a 	mov.w	r2, #1000	; 0x3e8
   d4906:	9205      	str	r2, [sp, #20]
  File() {}
   d4908:	4a4a      	ldr	r2, [pc, #296]	; (d4a34 <_Z10backUp2BLEPc+0x144>)
    tmpFile.open(vwd(), path, oflag);
   d490a:	494b      	ldr	r1, [pc, #300]	; (d4a38 <_Z10backUp2BLEPc+0x148>)
   d490c:	9203      	str	r2, [sp, #12]
  FatFile() : m_attr(FILE_ATTR_CLOSED), m_error(0) {}
   d490e:	2300      	movs	r3, #0
   d4910:	4a4a      	ldr	r2, [pc, #296]	; (d4a3c <_Z10backUp2BLEPc+0x14c>)
   d4912:	f8ad 301c 	strh.w	r3, [sp, #28]
   d4916:	a807      	add	r0, sp, #28
class File : public FatFile, public Stream {
   d4918:	ac07      	add	r4, sp, #28
    Print() : write_error(0) {}
   d491a:	9304      	str	r3, [sp, #16]
   d491c:	f002 fbfb 	bl	d7116 <_ZN7FatFile4openEPS_PKci>
   d4920:	cc0f      	ldmia	r4!, {r0, r1, r2, r3}
   d4922:	f106 0510 	add.w	r5, r6, #16
   d4926:	c50f      	stmia	r5!, {r0, r1, r2, r3}
   d4928:	cc0f      	ldmia	r4!, {r0, r1, r2, r3}
   d492a:	c50f      	stmia	r5!, {r0, r1, r2, r3}
   d492c:	6823      	ldr	r3, [r4, #0]
   d492e:	602b      	str	r3, [r5, #0]
class Print
   d4930:	9b04      	ldr	r3, [sp, #16]
   d4932:	6073      	str	r3, [r6, #4]
class Stream : public Print
   d4934:	9b05      	ldr	r3, [sp, #20]
   d4936:	60b3      	str	r3, [r6, #8]
   d4938:	9b06      	ldr	r3, [sp, #24]
   d493a:	60f3      	str	r3, [r6, #12]
  myFile = SD.open("Backup.txt");
  if(!myFile)
   d493c:	7c33      	ldrb	r3, [r6, #16]
   d493e:	2b00      	cmp	r3, #0
   d4940:	d048      	beq.n	d49d4 <_Z10backUp2BLEPc+0xe4>
  {
  Serial.println("Ensure your macro file open\n");
  }
  if(myFile){
    Serial.println("File exist\n");
   d4942:	f006 fb59 	bl	daff8 <_Z16_fetch_usbserialv>
   d4946:	493e      	ldr	r1, [pc, #248]	; (d4a40 <_Z10backUp2BLEPc+0x150>)

    // This is the flag for counting the number has been sent;
    // The reason why it is -2 is becasue one for "device name" and the other for "header of the table" 
    count_flag = -2 ;
   d4948:	4c3e      	ldr	r4, [pc, #248]	; (d4a44 <_Z10backUp2BLEPc+0x154>)
    Serial.println("File exist\n");
   d494a:	f005 fee6 	bl	da71a <_ZN5Print7printlnEPKc>
    char start[12] ="BACKUPSTART";
   d494e:	4a3e      	ldr	r2, [pc, #248]	; (d4a48 <_Z10backUp2BLEPc+0x158>)
    count_flag = -2 ;
   d4950:	f06f 0301 	mvn.w	r3, #1
    char start[12] ="BACKUPSTART";
   d4954:	6810      	ldr	r0, [r2, #0]
   d4956:	6851      	ldr	r1, [r2, #4]
    count_flag = -2 ;
   d4958:	6023      	str	r3, [r4, #0]
    char start[12] ="BACKUPSTART";
   d495a:	ab03      	add	r3, sp, #12
   d495c:	c303      	stmia	r3!, {r0, r1}
   d495e:	6890      	ldr	r0, [r2, #8]
    char end[10] ="BACKUPEND";
   d4960:	4a3a      	ldr	r2, [pc, #232]	; (d4a4c <_Z10backUp2BLEPc+0x15c>)
    char start[12] ="BACKUPSTART";
   d4962:	6018      	str	r0, [r3, #0]
    char end[10] ="BACKUPEND";
   d4964:	6851      	ldr	r1, [r2, #4]
   d4966:	6810      	ldr	r0, [r2, #0]
   d4968:	8912      	ldrh	r2, [r2, #8]
   d496a:	466b      	mov	r3, sp
   d496c:	c303      	stmia	r3!, {r0, r1}

    write_to_ble(start);
   d496e:	a803      	add	r0, sp, #12
    char end[10] ="BACKUPEND";
   d4970:	801a      	strh	r2, [r3, #0]
    write_to_ble(start);
   d4972:	f7ff ffa3 	bl	d48bc <_Z12write_to_blePc>
    

    Serial.println(millis());
   d4976:	f006 fb3f 	bl	daff8 <_Z16_fetch_usbserialv>
   d497a:	4605      	mov	r5, r0

#ifdef __cplusplus
extern "C" {
#endif

inline system_tick_t millis(void) { return HAL_Timer_Get_Milli_Seconds(); }
   d497c:	f003 ffaa 	bl	d88d4 <HAL_Timer_Get_Milli_Seconds>
            val = n;
        }
#if __GNUC__ >= 9
#pragma GCC diagnostic pop
#endif // __GNUC__ >= 9
        return printNumber(val, base) + t;
   d4980:	220a      	movs	r2, #10
   d4982:	4601      	mov	r1, r0
   d4984:	4628      	mov	r0, r5
   d4986:	f005 fed2 	bl	da72e <_ZN5Print11printNumberEmh>
        n += println();
   d498a:	4628      	mov	r0, r5
   d498c:	f005 feb9 	bl	da702 <_ZN5Print7printlnEv>
    while (myFile.available()) {
   d4990:	4d27      	ldr	r5, [pc, #156]	; (d4a30 <_Z10backUp2BLEPc+0x140>)
      if(!myFile.fgets(output,SAMPLE_CHAR_SIZE)) break;
   d4992:	f105 0610 	add.w	r6, r5, #16
    while (myFile.available()) {
   d4996:	4628      	mov	r0, r5
   d4998:	f7ff fb99 	bl	d40ce <_ZN4File9availableEv>
   d499c:	b328      	cbz	r0, d49ea <_Z10backUp2BLEPc+0xfa>
      if(!myFile.fgets(output,SAMPLE_CHAR_SIZE)) break;
   d499e:	2300      	movs	r3, #0
   d49a0:	f240 1209 	movw	r2, #265	; 0x109
   d49a4:	4639      	mov	r1, r7
   d49a6:	4630      	mov	r0, r6
   d49a8:	f002 fa60 	bl	d6e6c <_ZN7FatFile5fgetsEPcsS0_>
   d49ac:	b1e8      	cbz	r0, d49ea <_Z10backUp2BLEPc+0xfa>
      write_to_ble(output);
   d49ae:	4638      	mov	r0, r7
   d49b0:	f7ff ff84 	bl	d48bc <_Z12write_to_blePc>
      count_flag++;
   d49b4:	6823      	ldr	r3, [r4, #0]
   d49b6:	3301      	adds	r3, #1
   d49b8:	6023      	str	r3, [r4, #0]
      if(!BLE.connected()) {
   d49ba:	f005 f925 	bl	d9c08 <_ZN8particle14BleLocalDevice11getInstanceEv>
   d49be:	f005 f9a4 	bl	d9d0a <_ZNK8particle14BleLocalDevice9connectedEv>
   d49c2:	2800      	cmp	r0, #0
   d49c4:	d1e7      	bne.n	d4996 <_Z10backUp2BLEPc+0xa6>
        Serial.println("connection lost");
   d49c6:	f006 fb17 	bl	daff8 <_Z16_fetch_usbserialv>
   d49ca:	4921      	ldr	r1, [pc, #132]	; (d4a50 <_Z10backUp2BLEPc+0x160>)
   d49cc:	f005 fea5 	bl	da71a <_ZN5Print7printlnEPKc>
  /*
    for cases where the phone starts and the backup file does not exist, SD.open
    will fail and the backup request will be turned off.
  */
    PHONE_BACKUP_REQUEST = false;
}
   d49d0:	b011      	add	sp, #68	; 0x44
   d49d2:	bdf0      	pop	{r4, r5, r6, r7, pc}
  Serial.println("Ensure your macro file open\n");
   d49d4:	f006 fb10 	bl	daff8 <_Z16_fetch_usbserialv>
   d49d8:	491e      	ldr	r1, [pc, #120]	; (d4a54 <_Z10backUp2BLEPc+0x164>)
   d49da:	f005 fe9e 	bl	da71a <_ZN5Print7printlnEPKc>
  if(myFile){
   d49de:	7c33      	ldrb	r3, [r6, #16]
   d49e0:	2b00      	cmp	r3, #0
   d49e2:	d1ae      	bne.n	d4942 <_Z10backUp2BLEPc+0x52>
    PHONE_BACKUP_REQUEST = false;
   d49e4:	4a1c      	ldr	r2, [pc, #112]	; (d4a58 <_Z10backUp2BLEPc+0x168>)
   d49e6:	7013      	strb	r3, [r2, #0]
    return;
   d49e8:	e7f2      	b.n	d49d0 <_Z10backUp2BLEPc+0xe0>
    myFile.close();
   d49ea:	481c      	ldr	r0, [pc, #112]	; (d4a5c <_Z10backUp2BLEPc+0x16c>)
   d49ec:	f002 fb8c 	bl	d7108 <_ZN7FatFile5closeEv>
    write_to_ble(end);
   d49f0:	4668      	mov	r0, sp
   d49f2:	f7ff ff63 	bl	d48bc <_Z12write_to_blePc>
    delay(1000);
   d49f6:	f44f 707a 	mov.w	r0, #1000	; 0x3e8
   d49fa:	f006 f891 	bl	dab20 <delay>
  Serial.printlnf("Communication Broadcast");
   d49fe:	f006 fafb 	bl	daff8 <_Z16_fetch_usbserialv>
   d4a02:	4917      	ldr	r1, [pc, #92]	; (d4a60 <_Z10backUp2BLEPc+0x170>)
   d4a04:	f7ff fc84 	bl	d4310 <_ZN5Print8printlnfEPKcz>
  Serial.println(millis());
   d4a08:	f006 faf6 	bl	daff8 <_Z16_fetch_usbserialv>
   d4a0c:	4604      	mov	r4, r0
   d4a0e:	f003 ff61 	bl	d88d4 <HAL_Timer_Get_Milli_Seconds>
        return printNumber(val, base) + t;
   d4a12:	220a      	movs	r2, #10
   d4a14:	4601      	mov	r1, r0
   d4a16:	4620      	mov	r0, r4
   d4a18:	f005 fe89 	bl	da72e <_ZN5Print11printNumberEmh>
        n += println();
   d4a1c:	4620      	mov	r0, r4
   d4a1e:	f005 fe70 	bl	da702 <_ZN5Print7printlnEv>
    PHONE_BACKUP_REQUEST = false;
   d4a22:	4b0d      	ldr	r3, [pc, #52]	; (d4a58 <_Z10backUp2BLEPc+0x168>)
   d4a24:	2200      	movs	r2, #0
   d4a26:	701a      	strb	r2, [r3, #0]
   d4a28:	e7d2      	b.n	d49d0 <_Z10backUp2BLEPc+0xe0>
   d4a2a:	bf00      	nop
   d4a2c:	000ddff2 	.word	0x000ddff2
   d4a30:	2003e464 	.word	0x2003e464
   d4a34:	000de22c 	.word	0x000de22c
   d4a38:	2003e278 	.word	0x2003e278
   d4a3c:	000de00f 	.word	0x000de00f
   d4a40:	000de01a 	.word	0x000de01a
   d4a44:	2003e3c0 	.word	0x2003e3c0
   d4a48:	000de06b 	.word	0x000de06b
   d4a4c:	000de077 	.word	0x000de077
   d4a50:	000de043 	.word	0x000de043
   d4a54:	000de026 	.word	0x000de026
   d4a58:	2003de34 	.word	0x2003de34
   d4a5c:	2003e474 	.word	0x2003e474
   d4a60:	000de053 	.word	0x000de053

000d4a64 <_Z13record_sample17SampleDestination>:
void record_sample(SampleDestination dest){
   d4a64:	b500      	push	{lr}
   d4a66:	b0c5      	sub	sp, #276	; 0x114
  Serial.println("I am here\n");
   d4a68:	f006 fac6 	bl	daff8 <_Z16_fetch_usbserialv>
   d4a6c:	4906      	ldr	r1, [pc, #24]	; (d4a88 <_Z13record_sample17SampleDestination+0x24>)
   d4a6e:	f005 fe54 	bl	da71a <_ZN5Print7printlnEPKc>
      Serial.println("I am here2\n");
   d4a72:	f006 fac1 	bl	daff8 <_Z16_fetch_usbserialv>
   d4a76:	4905      	ldr	r1, [pc, #20]	; (d4a8c <_Z13record_sample17SampleDestination+0x28>)
   d4a78:	f005 fe4f 	bl	da71a <_ZN5Print7printlnEPKc>
        backUp2BLE(data);
   d4a7c:	a801      	add	r0, sp, #4
   d4a7e:	f7ff ff37 	bl	d48f0 <_Z10backUp2BLEPc>
}
   d4a82:	b045      	add	sp, #276	; 0x114
   d4a84:	f85d fb04 	ldr.w	pc, [sp], #4
   d4a88:	000de081 	.word	0x000de081
   d4a8c:	000de08c 	.word	0x000de08c

000d4a90 <_ZN8particle26AbstractTypeDiagnosticDataIlE3getEtRl>:
inline AbstractTypeDiagnosticData<UnderlyingTypeT>::AbstractTypeDiagnosticData(DiagnosticDataId id, const char* name, diag_type type) :
        AbstractDiagnosticData(id, name, type) {
}

template<typename UnderlyingTypeT>
inline int AbstractTypeDiagnosticData<UnderlyingTypeT>::get(DiagnosticDataId id, UnderlyingTypeT& val) {
   d4a90:	b530      	push	{r4, r5, lr}
   d4a92:	b085      	sub	sp, #20
   d4a94:	460d      	mov	r5, r1
    const diag_source* src = nullptr;
   d4a96:	2200      	movs	r2, #0
    const int ret = diag_get_source(id, &src, nullptr);
   d4a98:	4669      	mov	r1, sp
    const diag_source* src = nullptr;
   d4a9a:	9200      	str	r2, [sp, #0]
    const int ret = diag_get_source(id, &src, nullptr);
   d4a9c:	f004 f950 	bl	d8d40 <diag_get_source>
    if (ret != SYSTEM_ERROR_NONE) {
   d4aa0:	b9b0      	cbnz	r0, d4ad0 <_ZN8particle26AbstractTypeDiagnosticDataIlE3getEtRl+0x40>
        return ret;
    }
    return get(src, val);
   d4aa2:	9c00      	ldr	r4, [sp, #0]
    SPARK_ASSERT(src && src->callback);
   d4aa4:	b10c      	cbz	r4, d4aaa <_ZN8particle26AbstractTypeDiagnosticDataIlE3getEtRl+0x1a>
   d4aa6:	6923      	ldr	r3, [r4, #16]
   d4aa8:	b923      	cbnz	r3, d4ab4 <_ZN8particle26AbstractTypeDiagnosticDataIlE3getEtRl+0x24>
   d4aaa:	4a0a      	ldr	r2, [pc, #40]	; (d4ad4 <_ZN8particle26AbstractTypeDiagnosticDataIlE3getEtRl+0x44>)
   d4aac:	2100      	movs	r1, #0
   d4aae:	200a      	movs	r0, #10
   d4ab0:	f004 f936 	bl	d8d20 <panic_>
    diag_source_get_cmd_data d = { sizeof(diag_source_get_cmd_data), 0 /* reserved */, data, size };
   d4ab4:	2300      	movs	r3, #0
   d4ab6:	f8ad 3006 	strh.w	r3, [sp, #6]
   d4aba:	230c      	movs	r3, #12
   d4abc:	f8ad 3004 	strh.w	r3, [sp, #4]
   d4ac0:	2304      	movs	r3, #4
   d4ac2:	9303      	str	r3, [sp, #12]
   d4ac4:	9502      	str	r5, [sp, #8]
    const int ret = src->callback(src, DIAG_SOURCE_CMD_GET, &d);
   d4ac6:	6923      	ldr	r3, [r4, #16]
   d4ac8:	aa01      	add	r2, sp, #4
   d4aca:	2101      	movs	r1, #1
   d4acc:	4620      	mov	r0, r4
   d4ace:	4798      	blx	r3
}
   d4ad0:	b005      	add	sp, #20
   d4ad2:	bd30      	pop	{r4, r5, pc}
   d4ad4:	000d88b5 	.word	0x000d88b5

000d4ad8 <_ZNK11SystemClass13batteryChargeEv.isra.0>:
            return r;
        }
        return val;
    }

    float batteryCharge() const {
   d4ad8:	b507      	push	{r0, r1, r2, lr}
inline AbstractIntegerDiagnosticData::AbstractIntegerDiagnosticData(DiagnosticDataId id, const char* name) :
        AbstractTypeDiagnosticData<int32_t>(id, name, DIAG_TYPE_INT) {
}

inline int AbstractIntegerDiagnosticData::get(DiagnosticDataId id, IntType& val) {
    return AbstractTypeDiagnosticData<IntType>::get(id, val);
   d4ada:	2003      	movs	r0, #3
   d4adc:	a901      	add	r1, sp, #4
   d4ade:	f7ff ffd7 	bl	d4a90 <_ZN8particle26AbstractTypeDiagnosticDataIlE3getEtRl>
        // XXX: we could potentially simply call FuelGauge::getNormalizedSoC(),
        // however in order to exactly match the vitals values sent to the cloud we are going to use
        // diagnostic source as well.
        particle::AbstractIntegerDiagnosticData::IntType val;
        int r = particle::AbstractIntegerDiagnosticData::get(DIAG_ID_SYSTEM_BATTERY_CHARGE, val);
        if (r) {
   d4ae2:	b940      	cbnz	r0, d4af6 <_ZNK11SystemClass13batteryChargeEv.isra.0+0x1e>
    StorageT value() const {
        return value_;
    }

    constexpr float toFloat() const {
        return static_cast<float>(value_) / constexpr_pow(2.0f, N);
   d4ae4:	f8bd 3004 	ldrh.w	r3, [sp, #4]
   d4ae8:	ee00 3a10 	vmov	s0, r3
   d4aec:	eebb 0acc 	vcvt.f32.u32	s0, s0, #8

        using SocFixedPointT = particle::FixedPointUQ<8, 8>;

        SocFixedPointT soc(static_cast<typename SocFixedPointT::type>(val));
        return soc.toFloat();
    }
   d4af0:	b003      	add	sp, #12
   d4af2:	f85d fb04 	ldr.w	pc, [sp], #4
            return -1.0f;
   d4af6:	eebf 0a00 	vmov.f32	s0, #240	; 0xbf800000 -1.0
   d4afa:	e7f9      	b.n	d4af0 <_ZNK11SystemClass13batteryChargeEv.isra.0+0x18>

000d4afc <_Z11take_sampleP6Sample>:
void take_sample(Sample* latest){
   d4afc:	b510      	push	{r4, lr}
   d4afe:	4604      	mov	r4, r0
  pm.poll();
   d4b00:	4837      	ldr	r0, [pc, #220]	; (d4be0 <_Z11take_sampleP6Sample+0xe4>)
   d4b02:	f000 fcd5 	bl	d54b0 <_ZN7PMSA0034pollEv>
  if (Time.isValid()){
   d4b06:	f005 ff8f 	bl	daa28 <_ZN9TimeClass7isValidEv>
   d4b0a:	b1b0      	cbz	r0, d4b3a <_Z11take_sampleP6Sample+0x3e>
    latest->seconds = Time.second();
   d4b0c:	f005 ffd2 	bl	daab4 <_ZN9TimeClass6secondEv>
   d4b10:	f884 002c 	strb.w	r0, [r4, #44]	; 0x2c
    latest->minute = Time.minute();
   d4b14:	f005 ffc2 	bl	daa9c <_ZN9TimeClass6minuteEv>
   d4b18:	f884 002d 	strb.w	r0, [r4, #45]	; 0x2d
    latest->hour = Time.hour();
   d4b1c:	f005 ffb2 	bl	daa84 <_ZN9TimeClass4hourEv>
   d4b20:	f884 002e 	strb.w	r0, [r4, #46]	; 0x2e
    latest->day = Time.day();
   d4b24:	f005 ffd2 	bl	daacc <_ZN9TimeClass3dayEv>
   d4b28:	f884 002f 	strb.w	r0, [r4, #47]	; 0x2f
    latest->month = Time.month();
   d4b2c:	f005 ffda 	bl	daae4 <_ZN9TimeClass5monthEv>
   d4b30:	f884 0030 	strb.w	r0, [r4, #48]	; 0x30
    latest->year = Time.year();
   d4b34:	f005 ffde 	bl	daaf4 <_ZN9TimeClass4yearEv>
   d4b38:	8660      	strh	r0, [r4, #50]	; 0x32
  latest->pt_03 = pm.pt_03();
   d4b3a:	4829      	ldr	r0, [pc, #164]	; (d4be0 <_Z11take_sampleP6Sample+0xe4>)
   d4b3c:	f000 fcee 	bl	d551c <_ZN7PMSA0035pt_03Ev>
   d4b40:	8060      	strh	r0, [r4, #2]
  latest->pt_05 = pm.pt_05();
   d4b42:	4827      	ldr	r0, [pc, #156]	; (d4be0 <_Z11take_sampleP6Sample+0xe4>)
   d4b44:	f000 fcec 	bl	d5520 <_ZN7PMSA0035pt_05Ev>
   d4b48:	80a0      	strh	r0, [r4, #4]
  latest->pt_10 = pm.pt_10();
   d4b4a:	4825      	ldr	r0, [pc, #148]	; (d4be0 <_Z11take_sampleP6Sample+0xe4>)
   d4b4c:	f000 fcea 	bl	d5524 <_ZN7PMSA0035pt_10Ev>
   d4b50:	80e0      	strh	r0, [r4, #6]
  latest->pt_25 = pm.pt_25();
   d4b52:	4823      	ldr	r0, [pc, #140]	; (d4be0 <_Z11take_sampleP6Sample+0xe4>)
   d4b54:	f000 fce8 	bl	d5528 <_ZN7PMSA0035pt_25Ev>
   d4b58:	8120      	strh	r0, [r4, #8]
  latest->pt_50 = pm.pt_50();
   d4b5a:	4821      	ldr	r0, [pc, #132]	; (d4be0 <_Z11take_sampleP6Sample+0xe4>)
   d4b5c:	f000 fce6 	bl	d552c <_ZN7PMSA0035pt_50Ev>
   d4b60:	8160      	strh	r0, [r4, #10]
  latest->pt_100 = pm.pt_100();
   d4b62:	481f      	ldr	r0, [pc, #124]	; (d4be0 <_Z11take_sampleP6Sample+0xe4>)
   d4b64:	f000 fce4 	bl	d5530 <_ZN7PMSA0036pt_100Ev>
   d4b68:	81a0      	strh	r0, [r4, #12]
  latest->pm10_env = pm.pm10_env();
   d4b6a:	481d      	ldr	r0, [pc, #116]	; (d4be0 <_Z11take_sampleP6Sample+0xe4>)
   d4b6c:	f000 fcd0 	bl	d5510 <_ZN7PMSA0038pm10_envEv>
   d4b70:	81e0      	strh	r0, [r4, #14]
  latest->pm25_env = pm.pm25_env();
   d4b72:	481b      	ldr	r0, [pc, #108]	; (d4be0 <_Z11take_sampleP6Sample+0xe4>)
   d4b74:	f000 fcce 	bl	d5514 <_ZN7PMSA0038pm25_envEv>
   d4b78:	8220      	strh	r0, [r4, #16]
  latest->pm100_env = pm.pm100_env();
   d4b7a:	4819      	ldr	r0, [pc, #100]	; (d4be0 <_Z11take_sampleP6Sample+0xe4>)
   d4b7c:	f000 fccc 	bl	d5518 <_ZN7PMSA0039pm100_envEv>
   d4b80:	8260      	strh	r0, [r4, #18]
  latest->pm10_st = pm.pm10_st();
   d4b82:	4817      	ldr	r0, [pc, #92]	; (d4be0 <_Z11take_sampleP6Sample+0xe4>)
   d4b84:	f000 fcbe 	bl	d5504 <_ZN7PMSA0037pm10_stEv>
   d4b88:	82a0      	strh	r0, [r4, #20]
  latest->pm25_st = pm.pm25_st();
   d4b8a:	4815      	ldr	r0, [pc, #84]	; (d4be0 <_Z11take_sampleP6Sample+0xe4>)
   d4b8c:	f000 fcbc 	bl	d5508 <_ZN7PMSA0037pm25_stEv>
   d4b90:	82e0      	strh	r0, [r4, #22]
  latest->pm100_st = pm.pm100_st();
   d4b92:	4813      	ldr	r0, [pc, #76]	; (d4be0 <_Z11take_sampleP6Sample+0xe4>)
   d4b94:	f000 fcba 	bl	d550c <_ZN7PMSA0038pm100_stEv>
   d4b98:	8320      	strh	r0, [r4, #24]
  latest->temp = bme.readTemperature();
   d4b9a:	4812      	ldr	r0, [pc, #72]	; (d4be4 <_Z11take_sampleP6Sample+0xe8>)
   d4b9c:	f001 f978 	bl	d5e90 <_ZN15Adafruit_BME28015readTemperatureEv>
  latest->humidity = bme.readHumidity();
   d4ba0:	4810      	ldr	r0, [pc, #64]	; (d4be4 <_Z11take_sampleP6Sample+0xe8>)
  latest->temp = bme.readTemperature();
   d4ba2:	ed84 0a07 	vstr	s0, [r4, #28]
  latest->humidity = bme.readHumidity();
   d4ba6:	f001 fb21 	bl	d61ec <_ZN15Adafruit_BME28012readHumidityEv>
  latest->pressure = bme.readPressure();
   d4baa:	480e      	ldr	r0, [pc, #56]	; (d4be4 <_Z11take_sampleP6Sample+0xe8>)
  latest->humidity = bme.readHumidity();
   d4bac:	ed84 0a08 	vstr	s0, [r4, #32]
  latest->pressure = bme.readPressure();
   d4bb0:	f001 f99c 	bl	d5eec <_ZN15Adafruit_BME28012readPressureEv>
  latest->altitude = bme.readAltitude(SEALEVELPRESSURE_HPA);
   d4bb4:	480b      	ldr	r0, [pc, #44]	; (d4be4 <_Z11take_sampleP6Sample+0xe8>)
  latest->pressure = bme.readPressure();
   d4bb6:	ed84 0a09 	vstr	s0, [r4, #36]	; 0x24
  latest->altitude = bme.readAltitude(SEALEVELPRESSURE_HPA);
   d4bba:	ed9f 0a0b 	vldr	s0, [pc, #44]	; d4be8 <_Z11take_sampleP6Sample+0xec>
   d4bbe:	f001 fa6f 	bl	d60a0 <_ZN15Adafruit_BME28012readAltitudeEf>
   d4bc2:	ed84 0a0a 	vstr	s0, [r4, #40]	; 0x28
  latest->battery = System.batteryCharge();
   d4bc6:	f7ff ff87 	bl	d4ad8 <_ZNK11SystemClass13batteryChargeEv.isra.0>
  update_average(latest, &run_average_BLE);
   d4bca:	4908      	ldr	r1, [pc, #32]	; (d4bec <_Z11take_sampleP6Sample+0xf0>)
  latest->battery = System.batteryCharge();
   d4bcc:	ed84 0a0d 	vstr	s0, [r4, #52]	; 0x34
  update_average(latest, &run_average_BLE);
   d4bd0:	4620      	mov	r0, r4
   d4bd2:	f7ff fc13 	bl	d43fc <_Z14update_averageP6SampleP12Data_average>
}
   d4bd6:	e8bd 4010 	ldmia.w	sp!, {r4, lr}
  update_average(latest, &run_average_CLOUD);
   d4bda:	4905      	ldr	r1, [pc, #20]	; (d4bf0 <_Z11take_sampleP6Sample+0xf4>)
   d4bdc:	f7ff bc0e 	b.w	d43fc <_Z14update_averageP6SampleP12Data_average>
   d4be0:	2003e498 	.word	0x2003e498
   d4be4:	2003e380 	.word	0x2003e380
   d4be8:	447d5000 	.word	0x447d5000
   d4bec:	2003e514 	.word	0x2003e514
   d4bf0:	2003e55c 	.word	0x2003e55c

000d4bf4 <_Z11displayDATAP6Sample>:
{
   d4bf4:	b530      	push	{r4, r5, lr}
   d4bf6:	ed2d 8b02 	vpush	{d8}
   d4bfa:	b093      	sub	sp, #76	; 0x4c
  CellularSignal sig = Cellular.RSSI();
   d4bfc:	49c0      	ldr	r1, [pc, #768]	; (d4f00 <_Z11displayDATAP6Sample+0x30c>)
{
   d4bfe:	4604      	mov	r4, r0
  CellularSignal sig = Cellular.RSSI();
   d4c00:	a80a      	add	r0, sp, #40	; 0x28
   d4c02:	f006 fa57 	bl	db0b4 <_ZN5spark13CellularClass4RSSIEv>
  float strength = sig.getStrength();
   d4c06:	a80a      	add	r0, sp, #40	; 0x28
   d4c08:	f005 ffdc 	bl	dabc4 <_ZNK14CellularSignal11getStrengthEv>
   d4c0c:	eeb0 8a40 	vmov.f32	s16, s0
  EEPROM.get(NAME_ADDR,ID);
   d4c10:	f006 fcce 	bl	db5b0 <_Z21__fetch_global_EEPROMv>
        HAL_EEPROM_Get(idx, &t, sizeof(T));
   d4c14:	2214      	movs	r2, #20
   d4c16:	eb0d 0102 	add.w	r1, sp, r2
   d4c1a:	200a      	movs	r0, #10
   d4c1c:	f003 fe6a 	bl	d88f4 <HAL_EEPROM_Get>
  String IDs(ID);
   d4c20:	a905      	add	r1, sp, #20
   d4c22:	a801      	add	r0, sp, #4
   d4c24:	f004 fb23 	bl	d926e <_ZN6StringC1EPKc>
  epd.setTextWrap(true);
   d4c28:	48b6      	ldr	r0, [pc, #728]	; (d4f04 <_Z11displayDATAP6Sample+0x310>)
   d4c2a:	2101      	movs	r1, #1
   d4c2c:	f001 f84e 	bl	d5ccc <_ZN12Adafruit_GFX11setTextWrapEb>
  epd.setTextSize(1);
   d4c30:	2101      	movs	r1, #1
   d4c32:	48b4      	ldr	r0, [pc, #720]	; (d4f04 <_Z11displayDATAP6Sample+0x310>)
   d4c34:	f001 f842 	bl	d5cbc <_ZN12Adafruit_GFX11setTextSizeEh>
  epd.clearBuffer();
   d4c38:	48b2      	ldr	r0, [pc, #712]	; (d4f04 <_Z11displayDATAP6Sample+0x310>)
   d4c3a:	f003 fc17 	bl	d846c <_ZN12Adafruit_EPD11clearBufferEv>
  epd.setCursor(ORIGIN_X, 10);
   d4c3e:	220a      	movs	r2, #10
   d4c40:	48b0      	ldr	r0, [pc, #704]	; (d4f04 <_Z11displayDATAP6Sample+0x310>)
   d4c42:	2105      	movs	r1, #5
   d4c44:	f001 f837 	bl	d5cb6 <_ZN12Adafruit_GFX9setCursorEss>
  epd.setTextColor(EPD_BLACK);
   d4c48:	48ae      	ldr	r0, [pc, #696]	; (d4f04 <_Z11displayDATAP6Sample+0x310>)
   d4c4a:	2100      	movs	r1, #0
   d4c4c:	f001 f83b 	bl	d5cc6 <_ZN12Adafruit_GFX12setTextColorEt>
  epd.print(ID);
   d4c50:	48ac      	ldr	r0, [pc, #688]	; (d4f04 <_Z11displayDATAP6Sample+0x310>)
   d4c52:	a905      	add	r1, sp, #20
   d4c54:	f005 fd4e 	bl	da6f4 <_ZN5Print5printEPKc>
  if(SD_WRITE_SUCCESSFUL){
   d4c58:	4bab      	ldr	r3, [pc, #684]	; (d4f08 <_Z11displayDATAP6Sample+0x314>)
   d4c5a:	781b      	ldrb	r3, [r3, #0]
   d4c5c:	2b00      	cmp	r3, #0
   d4c5e:	f000 81c4 	beq.w	d4fea <_Z11displayDATAP6Sample+0x3f6>
    epd.print("   ++");
   d4c62:	49aa      	ldr	r1, [pc, #680]	; (d4f0c <_Z11displayDATAP6Sample+0x318>)
    epd.print("   --");    
   d4c64:	48a7      	ldr	r0, [pc, #668]	; (d4f04 <_Z11displayDATAP6Sample+0x310>)
   d4c66:	f005 fd45 	bl	da6f4 <_ZN5Print5printEPKc>
  epd.setCursor(ORIGIN_X+mid_offset, 10);
   d4c6a:	48a6      	ldr	r0, [pc, #664]	; (d4f04 <_Z11displayDATAP6Sample+0x310>)
   d4c6c:	220a      	movs	r2, #10
   d4c6e:	216e      	movs	r1, #110	; 0x6e
   d4c70:	f001 f821 	bl	d5cb6 <_ZN12Adafruit_GFX9setCursorEss>
        return printNumber(val, base) + t;
   d4c74:	220a      	movs	r2, #10
   d4c76:	f894 1030 	ldrb.w	r1, [r4, #48]	; 0x30
   d4c7a:	48a2      	ldr	r0, [pc, #648]	; (d4f04 <_Z11displayDATAP6Sample+0x310>)
   d4c7c:	f005 fd57 	bl	da72e <_ZN5Print11printNumberEmh>
  epd.print("/");
   d4c80:	49a3      	ldr	r1, [pc, #652]	; (d4f10 <_Z11displayDATAP6Sample+0x31c>)
   d4c82:	48a0      	ldr	r0, [pc, #640]	; (d4f04 <_Z11displayDATAP6Sample+0x310>)
   d4c84:	f005 fd36 	bl	da6f4 <_ZN5Print5printEPKc>
   d4c88:	220a      	movs	r2, #10
   d4c8a:	f894 102f 	ldrb.w	r1, [r4, #47]	; 0x2f
   d4c8e:	489d      	ldr	r0, [pc, #628]	; (d4f04 <_Z11displayDATAP6Sample+0x310>)
   d4c90:	f005 fd4d 	bl	da72e <_ZN5Print11printNumberEmh>
  epd.print("/");
   d4c94:	499e      	ldr	r1, [pc, #632]	; (d4f10 <_Z11displayDATAP6Sample+0x31c>)
   d4c96:	489b      	ldr	r0, [pc, #620]	; (d4f04 <_Z11displayDATAP6Sample+0x310>)
   d4c98:	f005 fd2c 	bl	da6f4 <_ZN5Print5printEPKc>
   d4c9c:	220a      	movs	r2, #10
   d4c9e:	8e61      	ldrh	r1, [r4, #50]	; 0x32
   d4ca0:	4898      	ldr	r0, [pc, #608]	; (d4f04 <_Z11displayDATAP6Sample+0x310>)
   d4ca2:	f005 fd44 	bl	da72e <_ZN5Print11printNumberEmh>
  epd.print("  ");
   d4ca6:	499b      	ldr	r1, [pc, #620]	; (d4f14 <_Z11displayDATAP6Sample+0x320>)
   d4ca8:	4896      	ldr	r0, [pc, #600]	; (d4f04 <_Z11displayDATAP6Sample+0x310>)
   d4caa:	f005 fd23 	bl	da6f4 <_ZN5Print5printEPKc>
   d4cae:	220a      	movs	r2, #10
   d4cb0:	f894 102e 	ldrb.w	r1, [r4, #46]	; 0x2e
   d4cb4:	4893      	ldr	r0, [pc, #588]	; (d4f04 <_Z11displayDATAP6Sample+0x310>)
   d4cb6:	f005 fd3a 	bl	da72e <_ZN5Print11printNumberEmh>
  epd.print(":");
   d4cba:	4997      	ldr	r1, [pc, #604]	; (d4f18 <_Z11displayDATAP6Sample+0x324>)
   d4cbc:	4891      	ldr	r0, [pc, #580]	; (d4f04 <_Z11displayDATAP6Sample+0x310>)
   d4cbe:	f005 fd19 	bl	da6f4 <_ZN5Print5printEPKc>
   d4cc2:	220a      	movs	r2, #10
   d4cc4:	f894 102d 	ldrb.w	r1, [r4, #45]	; 0x2d
   d4cc8:	488e      	ldr	r0, [pc, #568]	; (d4f04 <_Z11displayDATAP6Sample+0x310>)
   d4cca:	f005 fd30 	bl	da72e <_ZN5Print11printNumberEmh>
  epd.print(":");
   d4cce:	4992      	ldr	r1, [pc, #584]	; (d4f18 <_Z11displayDATAP6Sample+0x324>)
   d4cd0:	488c      	ldr	r0, [pc, #560]	; (d4f04 <_Z11displayDATAP6Sample+0x310>)
   d4cd2:	f005 fd0f 	bl	da6f4 <_ZN5Print5printEPKc>
   d4cd6:	f894 102c 	ldrb.w	r1, [r4, #44]	; 0x2c
   d4cda:	488a      	ldr	r0, [pc, #552]	; (d4f04 <_Z11displayDATAP6Sample+0x310>)
   d4cdc:	220a      	movs	r2, #10
   d4cde:	f005 fd26 	bl	da72e <_ZN5Print11printNumberEmh>
  epd.setCursor(ORIGIN_X, 20);
   d4ce2:	2214      	movs	r2, #20
   d4ce4:	4887      	ldr	r0, [pc, #540]	; (d4f04 <_Z11displayDATAP6Sample+0x310>)
   d4ce6:	2105      	movs	r1, #5
   d4ce8:	f000 ffe5 	bl	d5cb6 <_ZN12Adafruit_GFX9setCursorEss>
  epd.print("Batery: ");
   d4cec:	498b      	ldr	r1, [pc, #556]	; (d4f1c <_Z11displayDATAP6Sample+0x328>)
   d4cee:	4885      	ldr	r0, [pc, #532]	; (d4f04 <_Z11displayDATAP6Sample+0x310>)
   d4cf0:	f005 fd00 	bl	da6f4 <_ZN5Print5printEPKc>
  epd.print(System.batteryCharge());
   d4cf4:	f7ff fef0 	bl	d4ad8 <_ZNK11SystemClass13batteryChargeEv.isra.0>
   d4cf8:	2102      	movs	r1, #2
   d4cfa:	4882      	ldr	r0, [pc, #520]	; (d4f04 <_Z11displayDATAP6Sample+0x310>)
   d4cfc:	f005 fdfe 	bl	da8fc <_ZN5Print5printEfi>
  epd.print("%  ");
   d4d00:	4987      	ldr	r1, [pc, #540]	; (d4f20 <_Z11displayDATAP6Sample+0x32c>)
   d4d02:	4880      	ldr	r0, [pc, #512]	; (d4f04 <_Z11displayDATAP6Sample+0x310>)
   d4d04:	f005 fcf6 	bl	da6f4 <_ZN5Print5printEPKc>
  epd.setCursor(ORIGIN_X+mid_offset, 20);
   d4d08:	2214      	movs	r2, #20
   d4d0a:	487e      	ldr	r0, [pc, #504]	; (d4f04 <_Z11displayDATAP6Sample+0x310>)
   d4d0c:	216e      	movs	r1, #110	; 0x6e
   d4d0e:	f000 ffd2 	bl	d5cb6 <_ZN12Adafruit_GFX9setCursorEss>
  epd.print("Cell:");
   d4d12:	4984      	ldr	r1, [pc, #528]	; (d4f24 <_Z11displayDATAP6Sample+0x330>)
   d4d14:	487b      	ldr	r0, [pc, #492]	; (d4f04 <_Z11displayDATAP6Sample+0x310>)
   d4d16:	f005 fced 	bl	da6f4 <_ZN5Print5printEPKc>
  epd.print(strength);
   d4d1a:	eeb0 0a48 	vmov.f32	s0, s16
   d4d1e:	2102      	movs	r1, #2
   d4d20:	4878      	ldr	r0, [pc, #480]	; (d4f04 <_Z11displayDATAP6Sample+0x310>)
   d4d22:	f005 fdeb 	bl	da8fc <_ZN5Print5printEfi>
  epd.print("   Ch: ");
   d4d26:	4980      	ldr	r1, [pc, #512]	; (d4f28 <_Z11displayDATAP6Sample+0x334>)
   d4d28:	4876      	ldr	r0, [pc, #472]	; (d4f04 <_Z11displayDATAP6Sample+0x310>)
   d4d2a:	f005 fce3 	bl	da6f4 <_ZN5Print5printEPKc>
   d4d2e:	4669      	mov	r1, sp
   d4d30:	2007      	movs	r0, #7
   d4d32:	f7ff fead 	bl	d4a90 <_ZN8particle26AbstractTypeDiagnosticDataIlE3getEtRl>
        if (r < 0) {
   d4d36:	1e05      	subs	r5, r0, #0
   d4d38:	db03      	blt.n	d4d42 <_Z11displayDATAP6Sample+0x14e>
        return val;
   d4d3a:	9d00      	ldr	r5, [sp, #0]
        if (n < 0 && base == 10) {
   d4d3c:	2d00      	cmp	r5, #0
   d4d3e:	f280 8156 	bge.w	d4fee <_Z11displayDATAP6Sample+0x3fa>
            t = print('-');
   d4d42:	212d      	movs	r1, #45	; 0x2d
   d4d44:	486f      	ldr	r0, [pc, #444]	; (d4f04 <_Z11displayDATAP6Sample+0x310>)
   d4d46:	f005 fcd9 	bl	da6fc <_ZN5Print5printEc>
            val = -n;
   d4d4a:	4269      	negs	r1, r5
        return printNumber(val, base) + t;
   d4d4c:	220a      	movs	r2, #10
   d4d4e:	486d      	ldr	r0, [pc, #436]	; (d4f04 <_Z11displayDATAP6Sample+0x310>)
   d4d50:	f005 fced 	bl	da72e <_ZN5Print11printNumberEmh>
  epd.setCursor(ORIGIN_X, 30);
   d4d54:	221e      	movs	r2, #30
   d4d56:	486b      	ldr	r0, [pc, #428]	; (d4f04 <_Z11displayDATAP6Sample+0x310>)
   d4d58:	2105      	movs	r1, #5
   d4d5a:	f000 ffac 	bl	d5cb6 <_ZN12Adafruit_GFX9setCursorEss>
  epd.setTextColor(EPD_BLACK);
   d4d5e:	4869      	ldr	r0, [pc, #420]	; (d4f04 <_Z11displayDATAP6Sample+0x310>)
   d4d60:	2100      	movs	r1, #0
   d4d62:	f000 ffb0 	bl	d5cc6 <_ZN12Adafruit_GFX12setTextColorEt>
  epd.print("Dp 0.3: ");
   d4d66:	4971      	ldr	r1, [pc, #452]	; (d4f2c <_Z11displayDATAP6Sample+0x338>)
   d4d68:	4866      	ldr	r0, [pc, #408]	; (d4f04 <_Z11displayDATAP6Sample+0x310>)
   d4d6a:	f005 fcc3 	bl	da6f4 <_ZN5Print5printEPKc>
   d4d6e:	8861      	ldrh	r1, [r4, #2]
   d4d70:	4864      	ldr	r0, [pc, #400]	; (d4f04 <_Z11displayDATAP6Sample+0x310>)
   d4d72:	220a      	movs	r2, #10
   d4d74:	f005 fcdb 	bl	da72e <_ZN5Print11printNumberEmh>
  epd.setCursor(ORIGIN_X+mid_offset, 30);
   d4d78:	221e      	movs	r2, #30
   d4d7a:	4862      	ldr	r0, [pc, #392]	; (d4f04 <_Z11displayDATAP6Sample+0x310>)
   d4d7c:	216e      	movs	r1, #110	; 0x6e
   d4d7e:	f000 ff9a 	bl	d5cb6 <_ZN12Adafruit_GFX9setCursorEss>
  epd.print("E PM 1.0: ");
   d4d82:	496b      	ldr	r1, [pc, #428]	; (d4f30 <_Z11displayDATAP6Sample+0x33c>)
   d4d84:	485f      	ldr	r0, [pc, #380]	; (d4f04 <_Z11displayDATAP6Sample+0x310>)
   d4d86:	f005 fcb5 	bl	da6f4 <_ZN5Print5printEPKc>
   d4d8a:	89e1      	ldrh	r1, [r4, #14]
   d4d8c:	485d      	ldr	r0, [pc, #372]	; (d4f04 <_Z11displayDATAP6Sample+0x310>)
   d4d8e:	220a      	movs	r2, #10
   d4d90:	f005 fccd 	bl	da72e <_ZN5Print11printNumberEmh>
  epd.setCursor(ORIGIN_X, 40);
   d4d94:	2228      	movs	r2, #40	; 0x28
   d4d96:	485b      	ldr	r0, [pc, #364]	; (d4f04 <_Z11displayDATAP6Sample+0x310>)
   d4d98:	2105      	movs	r1, #5
   d4d9a:	f000 ff8c 	bl	d5cb6 <_ZN12Adafruit_GFX9setCursorEss>
  epd.print("Dp 0.5: ");
   d4d9e:	4965      	ldr	r1, [pc, #404]	; (d4f34 <_Z11displayDATAP6Sample+0x340>)
   d4da0:	4858      	ldr	r0, [pc, #352]	; (d4f04 <_Z11displayDATAP6Sample+0x310>)
   d4da2:	f005 fca7 	bl	da6f4 <_ZN5Print5printEPKc>
   d4da6:	88a1      	ldrh	r1, [r4, #4]
   d4da8:	4856      	ldr	r0, [pc, #344]	; (d4f04 <_Z11displayDATAP6Sample+0x310>)
   d4daa:	220a      	movs	r2, #10
   d4dac:	f005 fcbf 	bl	da72e <_ZN5Print11printNumberEmh>
  epd.setCursor(ORIGIN_X+mid_offset, 40);
   d4db0:	2228      	movs	r2, #40	; 0x28
   d4db2:	4854      	ldr	r0, [pc, #336]	; (d4f04 <_Z11displayDATAP6Sample+0x310>)
   d4db4:	216e      	movs	r1, #110	; 0x6e
   d4db6:	f000 ff7e 	bl	d5cb6 <_ZN12Adafruit_GFX9setCursorEss>
  epd.print("E PM 2.5: ");
   d4dba:	495f      	ldr	r1, [pc, #380]	; (d4f38 <_Z11displayDATAP6Sample+0x344>)
   d4dbc:	4851      	ldr	r0, [pc, #324]	; (d4f04 <_Z11displayDATAP6Sample+0x310>)
   d4dbe:	f005 fc99 	bl	da6f4 <_ZN5Print5printEPKc>
   d4dc2:	8a21      	ldrh	r1, [r4, #16]
   d4dc4:	484f      	ldr	r0, [pc, #316]	; (d4f04 <_Z11displayDATAP6Sample+0x310>)
   d4dc6:	220a      	movs	r2, #10
   d4dc8:	f005 fcb1 	bl	da72e <_ZN5Print11printNumberEmh>
  epd.setCursor(ORIGIN_X, 50);
   d4dcc:	2232      	movs	r2, #50	; 0x32
   d4dce:	484d      	ldr	r0, [pc, #308]	; (d4f04 <_Z11displayDATAP6Sample+0x310>)
   d4dd0:	2105      	movs	r1, #5
   d4dd2:	f000 ff70 	bl	d5cb6 <_ZN12Adafruit_GFX9setCursorEss>
  epd.print("Dp 1.0: ");
   d4dd6:	4959      	ldr	r1, [pc, #356]	; (d4f3c <_Z11displayDATAP6Sample+0x348>)
   d4dd8:	484a      	ldr	r0, [pc, #296]	; (d4f04 <_Z11displayDATAP6Sample+0x310>)
   d4dda:	f005 fc8b 	bl	da6f4 <_ZN5Print5printEPKc>
   d4dde:	88e1      	ldrh	r1, [r4, #6]
   d4de0:	4848      	ldr	r0, [pc, #288]	; (d4f04 <_Z11displayDATAP6Sample+0x310>)
   d4de2:	220a      	movs	r2, #10
   d4de4:	f005 fca3 	bl	da72e <_ZN5Print11printNumberEmh>
  epd.setCursor(ORIGIN_X+mid_offset, 50);
   d4de8:	2232      	movs	r2, #50	; 0x32
   d4dea:	4846      	ldr	r0, [pc, #280]	; (d4f04 <_Z11displayDATAP6Sample+0x310>)
   d4dec:	216e      	movs	r1, #110	; 0x6e
   d4dee:	f000 ff62 	bl	d5cb6 <_ZN12Adafruit_GFX9setCursorEss>
  epd.print("E PM 10 : ");
   d4df2:	4953      	ldr	r1, [pc, #332]	; (d4f40 <_Z11displayDATAP6Sample+0x34c>)
   d4df4:	4843      	ldr	r0, [pc, #268]	; (d4f04 <_Z11displayDATAP6Sample+0x310>)
   d4df6:	f005 fc7d 	bl	da6f4 <_ZN5Print5printEPKc>
   d4dfa:	8a61      	ldrh	r1, [r4, #18]
   d4dfc:	4841      	ldr	r0, [pc, #260]	; (d4f04 <_Z11displayDATAP6Sample+0x310>)
   d4dfe:	220a      	movs	r2, #10
   d4e00:	f005 fc95 	bl	da72e <_ZN5Print11printNumberEmh>
  epd.setCursor(ORIGIN_X, 60);
   d4e04:	223c      	movs	r2, #60	; 0x3c
   d4e06:	483f      	ldr	r0, [pc, #252]	; (d4f04 <_Z11displayDATAP6Sample+0x310>)
   d4e08:	2105      	movs	r1, #5
   d4e0a:	f000 ff54 	bl	d5cb6 <_ZN12Adafruit_GFX9setCursorEss>
  epd.print("Dp 2.5: ");
   d4e0e:	494d      	ldr	r1, [pc, #308]	; (d4f44 <_Z11displayDATAP6Sample+0x350>)
   d4e10:	483c      	ldr	r0, [pc, #240]	; (d4f04 <_Z11displayDATAP6Sample+0x310>)
   d4e12:	f005 fc6f 	bl	da6f4 <_ZN5Print5printEPKc>
   d4e16:	8921      	ldrh	r1, [r4, #8]
   d4e18:	483a      	ldr	r0, [pc, #232]	; (d4f04 <_Z11displayDATAP6Sample+0x310>)
   d4e1a:	220a      	movs	r2, #10
   d4e1c:	f005 fc87 	bl	da72e <_ZN5Print11printNumberEmh>
  epd.setCursor(ORIGIN_X+mid_offset, 60);
   d4e20:	223c      	movs	r2, #60	; 0x3c
   d4e22:	4838      	ldr	r0, [pc, #224]	; (d4f04 <_Z11displayDATAP6Sample+0x310>)
   d4e24:	216e      	movs	r1, #110	; 0x6e
   d4e26:	f000 ff46 	bl	d5cb6 <_ZN12Adafruit_GFX9setCursorEss>
  epd.print("S PM 1.0: ");
   d4e2a:	4947      	ldr	r1, [pc, #284]	; (d4f48 <_Z11displayDATAP6Sample+0x354>)
   d4e2c:	4835      	ldr	r0, [pc, #212]	; (d4f04 <_Z11displayDATAP6Sample+0x310>)
   d4e2e:	f005 fc61 	bl	da6f4 <_ZN5Print5printEPKc>
   d4e32:	8aa1      	ldrh	r1, [r4, #20]
   d4e34:	4833      	ldr	r0, [pc, #204]	; (d4f04 <_Z11displayDATAP6Sample+0x310>)
   d4e36:	220a      	movs	r2, #10
   d4e38:	f005 fc79 	bl	da72e <_ZN5Print11printNumberEmh>
  epd.setCursor(ORIGIN_X, 70);
   d4e3c:	2246      	movs	r2, #70	; 0x46
   d4e3e:	4831      	ldr	r0, [pc, #196]	; (d4f04 <_Z11displayDATAP6Sample+0x310>)
   d4e40:	2105      	movs	r1, #5
   d4e42:	f000 ff38 	bl	d5cb6 <_ZN12Adafruit_GFX9setCursorEss>
  epd.print("Dp 5.0: ");
   d4e46:	4941      	ldr	r1, [pc, #260]	; (d4f4c <_Z11displayDATAP6Sample+0x358>)
   d4e48:	482e      	ldr	r0, [pc, #184]	; (d4f04 <_Z11displayDATAP6Sample+0x310>)
   d4e4a:	f005 fc53 	bl	da6f4 <_ZN5Print5printEPKc>
   d4e4e:	8961      	ldrh	r1, [r4, #10]
   d4e50:	482c      	ldr	r0, [pc, #176]	; (d4f04 <_Z11displayDATAP6Sample+0x310>)
   d4e52:	220a      	movs	r2, #10
   d4e54:	f005 fc6b 	bl	da72e <_ZN5Print11printNumberEmh>
  epd.setCursor(ORIGIN_X+mid_offset, 70);
   d4e58:	2246      	movs	r2, #70	; 0x46
   d4e5a:	482a      	ldr	r0, [pc, #168]	; (d4f04 <_Z11displayDATAP6Sample+0x310>)
   d4e5c:	216e      	movs	r1, #110	; 0x6e
   d4e5e:	f000 ff2a 	bl	d5cb6 <_ZN12Adafruit_GFX9setCursorEss>
  epd.print("S PM 2.5: ");
   d4e62:	493b      	ldr	r1, [pc, #236]	; (d4f50 <_Z11displayDATAP6Sample+0x35c>)
   d4e64:	4827      	ldr	r0, [pc, #156]	; (d4f04 <_Z11displayDATAP6Sample+0x310>)
   d4e66:	f005 fc45 	bl	da6f4 <_ZN5Print5printEPKc>
   d4e6a:	8ae1      	ldrh	r1, [r4, #22]
   d4e6c:	4825      	ldr	r0, [pc, #148]	; (d4f04 <_Z11displayDATAP6Sample+0x310>)
   d4e6e:	220a      	movs	r2, #10
   d4e70:	f005 fc5d 	bl	da72e <_ZN5Print11printNumberEmh>
  epd.setCursor(ORIGIN_X, 80);
   d4e74:	2250      	movs	r2, #80	; 0x50
   d4e76:	4823      	ldr	r0, [pc, #140]	; (d4f04 <_Z11displayDATAP6Sample+0x310>)
   d4e78:	2105      	movs	r1, #5
   d4e7a:	f000 ff1c 	bl	d5cb6 <_ZN12Adafruit_GFX9setCursorEss>
  epd.print("Dp10.0: ");
   d4e7e:	4935      	ldr	r1, [pc, #212]	; (d4f54 <_Z11displayDATAP6Sample+0x360>)
   d4e80:	4820      	ldr	r0, [pc, #128]	; (d4f04 <_Z11displayDATAP6Sample+0x310>)
   d4e82:	f005 fc37 	bl	da6f4 <_ZN5Print5printEPKc>
   d4e86:	89a1      	ldrh	r1, [r4, #12]
   d4e88:	481e      	ldr	r0, [pc, #120]	; (d4f04 <_Z11displayDATAP6Sample+0x310>)
   d4e8a:	220a      	movs	r2, #10
   d4e8c:	f005 fc4f 	bl	da72e <_ZN5Print11printNumberEmh>
  epd.setCursor(ORIGIN_X+mid_offset, 80);
   d4e90:	2250      	movs	r2, #80	; 0x50
   d4e92:	481c      	ldr	r0, [pc, #112]	; (d4f04 <_Z11displayDATAP6Sample+0x310>)
   d4e94:	216e      	movs	r1, #110	; 0x6e
   d4e96:	f000 ff0e 	bl	d5cb6 <_ZN12Adafruit_GFX9setCursorEss>
  epd.print("S PM 10 : ");
   d4e9a:	492f      	ldr	r1, [pc, #188]	; (d4f58 <_Z11displayDATAP6Sample+0x364>)
   d4e9c:	4819      	ldr	r0, [pc, #100]	; (d4f04 <_Z11displayDATAP6Sample+0x310>)
   d4e9e:	f005 fc29 	bl	da6f4 <_ZN5Print5printEPKc>
   d4ea2:	8b21      	ldrh	r1, [r4, #24]
   d4ea4:	4817      	ldr	r0, [pc, #92]	; (d4f04 <_Z11displayDATAP6Sample+0x310>)
   d4ea6:	220a      	movs	r2, #10
   d4ea8:	f005 fc41 	bl	da72e <_ZN5Print11printNumberEmh>
  epd.setCursor(ORIGIN_X, 90);
   d4eac:	225a      	movs	r2, #90	; 0x5a
   d4eae:	4815      	ldr	r0, [pc, #84]	; (d4f04 <_Z11displayDATAP6Sample+0x310>)
   d4eb0:	2105      	movs	r1, #5
   d4eb2:	f000 ff00 	bl	d5cb6 <_ZN12Adafruit_GFX9setCursorEss>
  epd.print("Temp: ");
   d4eb6:	4929      	ldr	r1, [pc, #164]	; (d4f5c <_Z11displayDATAP6Sample+0x368>)
   d4eb8:	4812      	ldr	r0, [pc, #72]	; (d4f04 <_Z11displayDATAP6Sample+0x310>)
   d4eba:	f005 fc1b 	bl	da6f4 <_ZN5Print5printEPKc>
  epd.print(sample->temp);
   d4ebe:	ed94 0a07 	vldr	s0, [r4, #28]
   d4ec2:	4810      	ldr	r0, [pc, #64]	; (d4f04 <_Z11displayDATAP6Sample+0x310>)
   d4ec4:	2102      	movs	r1, #2
   d4ec6:	f005 fd19 	bl	da8fc <_ZN5Print5printEfi>
  epd.print("C  RH: ");
   d4eca:	4925      	ldr	r1, [pc, #148]	; (d4f60 <_Z11displayDATAP6Sample+0x36c>)
   d4ecc:	480d      	ldr	r0, [pc, #52]	; (d4f04 <_Z11displayDATAP6Sample+0x310>)
   d4ece:	f005 fc11 	bl	da6f4 <_ZN5Print5printEPKc>
  epd.print((int) sample->humidity);
   d4ed2:	edd4 7a08 	vldr	s15, [r4, #32]
   d4ed6:	eefd 7ae7 	vcvt.s32.f32	s15, s15
   d4eda:	ee17 5a90 	vmov	r5, s15
        if (n < 0 && base == 10) {
   d4ede:	2d00      	cmp	r5, #0
   d4ee0:	f280 8087 	bge.w	d4ff2 <_Z11displayDATAP6Sample+0x3fe>
            t = print('-');
   d4ee4:	212d      	movs	r1, #45	; 0x2d
   d4ee6:	4807      	ldr	r0, [pc, #28]	; (d4f04 <_Z11displayDATAP6Sample+0x310>)
   d4ee8:	f005 fc08 	bl	da6fc <_ZN5Print5printEc>
            val = -n;
   d4eec:	4269      	negs	r1, r5
        return printNumber(val, base) + t;
   d4eee:	220a      	movs	r2, #10
   d4ef0:	4804      	ldr	r0, [pc, #16]	; (d4f04 <_Z11displayDATAP6Sample+0x310>)
   d4ef2:	f005 fc1c 	bl	da72e <_ZN5Print11printNumberEmh>
  epd.print("%  P: ");
   d4ef6:	491b      	ldr	r1, [pc, #108]	; (d4f64 <_Z11displayDATAP6Sample+0x370>)
   d4ef8:	4802      	ldr	r0, [pc, #8]	; (d4f04 <_Z11displayDATAP6Sample+0x310>)
   d4efa:	f005 fbfb 	bl	da6f4 <_ZN5Print5printEPKc>
   d4efe:	e035      	b.n	d4f6c <_Z11displayDATAP6Sample+0x378>
   d4f00:	2003e660 	.word	0x2003e660
   d4f04:	2003e3d4 	.word	0x2003e3d4
   d4f08:	2003e2c0 	.word	0x2003e2c0
   d4f0c:	000de098 	.word	0x000de098
   d4f10:	000de0a4 	.word	0x000de0a4
   d4f14:	000de0b0 	.word	0x000de0b0
   d4f18:	000de0b7 	.word	0x000de0b7
   d4f1c:	000de0a6 	.word	0x000de0a6
   d4f20:	000de0af 	.word	0x000de0af
   d4f24:	000de0b3 	.word	0x000de0b3
   d4f28:	000de0b9 	.word	0x000de0b9
   d4f2c:	000de0c1 	.word	0x000de0c1
   d4f30:	000de0ca 	.word	0x000de0ca
   d4f34:	000de0d5 	.word	0x000de0d5
   d4f38:	000de0de 	.word	0x000de0de
   d4f3c:	000de0e9 	.word	0x000de0e9
   d4f40:	000de0f2 	.word	0x000de0f2
   d4f44:	000de0fd 	.word	0x000de0fd
   d4f48:	000de106 	.word	0x000de106
   d4f4c:	000de111 	.word	0x000de111
   d4f50:	000de11a 	.word	0x000de11a
   d4f54:	000de125 	.word	0x000de125
   d4f58:	000de12e 	.word	0x000de12e
   d4f5c:	000de139 	.word	0x000de139
   d4f60:	000de140 	.word	0x000de140
   d4f64:	000de148 	.word	0x000de148
   d4f68:	447a0000 	.word	0x447a0000
  epd.print(sample->pressure/1000);
   d4f6c:	ed5f 7a02 	vldr	s15, [pc, #-8]	; d4f68 <_Z11displayDATAP6Sample+0x374>
   d4f70:	ed94 0a09 	vldr	s0, [r4, #36]	; 0x24
   d4f74:	4820      	ldr	r0, [pc, #128]	; (d4ff8 <_Z11displayDATAP6Sample+0x404>)
   d4f76:	ee80 0a27 	vdiv.f32	s0, s0, s15
   d4f7a:	2102      	movs	r1, #2
   d4f7c:	f005 fcbe 	bl	da8fc <_ZN5Print5printEfi>
  epd.print("kPa");
   d4f80:	491e      	ldr	r1, [pc, #120]	; (d4ffc <_Z11displayDATAP6Sample+0x408>)
   d4f82:	481d      	ldr	r0, [pc, #116]	; (d4ff8 <_Z11displayDATAP6Sample+0x404>)
   d4f84:	f005 fbb6 	bl	da6f4 <_ZN5Print5printEPKc>
  epd.setCursor(ORIGIN_X, 100);
   d4f88:	2264      	movs	r2, #100	; 0x64
   d4f8a:	481b      	ldr	r0, [pc, #108]	; (d4ff8 <_Z11displayDATAP6Sample+0x404>)
   d4f8c:	2105      	movs	r1, #5
   d4f8e:	f000 fe92 	bl	d5cb6 <_ZN12Adafruit_GFX9setCursorEss>
  epd.print("Samp: ");
   d4f92:	491b      	ldr	r1, [pc, #108]	; (d5000 <_Z11displayDATAP6Sample+0x40c>)
   d4f94:	4818      	ldr	r0, [pc, #96]	; (d4ff8 <_Z11displayDATAP6Sample+0x404>)
   d4f96:	f005 fbad 	bl	da6f4 <_ZN5Print5printEPKc>
   d4f9a:	4b1a      	ldr	r3, [pc, #104]	; (d5004 <_Z11displayDATAP6Sample+0x410>)
   d4f9c:	4816      	ldr	r0, [pc, #88]	; (d4ff8 <_Z11displayDATAP6Sample+0x404>)
   d4f9e:	6819      	ldr	r1, [r3, #0]
   d4fa0:	220a      	movs	r2, #10
   d4fa2:	f005 fbc4 	bl	da72e <_ZN5Print11printNumberEmh>
  epd.print("s    Disp: ");
   d4fa6:	4918      	ldr	r1, [pc, #96]	; (d5008 <_Z11displayDATAP6Sample+0x414>)
   d4fa8:	4813      	ldr	r0, [pc, #76]	; (d4ff8 <_Z11displayDATAP6Sample+0x404>)
   d4faa:	f005 fba3 	bl	da6f4 <_ZN5Print5printEPKc>
   d4fae:	4b17      	ldr	r3, [pc, #92]	; (d500c <_Z11displayDATAP6Sample+0x418>)
   d4fb0:	4811      	ldr	r0, [pc, #68]	; (d4ff8 <_Z11displayDATAP6Sample+0x404>)
   d4fb2:	6819      	ldr	r1, [r3, #0]
   d4fb4:	220a      	movs	r2, #10
   d4fb6:	f005 fbba 	bl	da72e <_ZN5Print11printNumberEmh>
  epd.print("s    Pub: ");
   d4fba:	4915      	ldr	r1, [pc, #84]	; (d5010 <_Z11displayDATAP6Sample+0x41c>)
   d4fbc:	480e      	ldr	r0, [pc, #56]	; (d4ff8 <_Z11displayDATAP6Sample+0x404>)
   d4fbe:	f005 fb99 	bl	da6f4 <_ZN5Print5printEPKc>
   d4fc2:	4b14      	ldr	r3, [pc, #80]	; (d5014 <_Z11displayDATAP6Sample+0x420>)
   d4fc4:	480c      	ldr	r0, [pc, #48]	; (d4ff8 <_Z11displayDATAP6Sample+0x404>)
   d4fc6:	6819      	ldr	r1, [r3, #0]
   d4fc8:	220a      	movs	r2, #10
   d4fca:	f005 fbb0 	bl	da72e <_ZN5Print11printNumberEmh>
  epd.print("h");
   d4fce:	4912      	ldr	r1, [pc, #72]	; (d5018 <_Z11displayDATAP6Sample+0x424>)
   d4fd0:	4809      	ldr	r0, [pc, #36]	; (d4ff8 <_Z11displayDATAP6Sample+0x404>)
   d4fd2:	f005 fb8f 	bl	da6f4 <_ZN5Print5printEPKc>
  epd.display();
   d4fd6:	4808      	ldr	r0, [pc, #32]	; (d4ff8 <_Z11displayDATAP6Sample+0x404>)
   d4fd8:	f003 fb43 	bl	d8662 <_ZN12Adafruit_EPD7displayEv>
  String IDs(ID);
   d4fdc:	a801      	add	r0, sp, #4
   d4fde:	f004 f8fb 	bl	d91d8 <_ZN6StringD1Ev>
}
   d4fe2:	b013      	add	sp, #76	; 0x4c
   d4fe4:	ecbd 8b02 	vpop	{d8}
   d4fe8:	bd30      	pop	{r4, r5, pc}
    epd.print("   --");    
   d4fea:	490c      	ldr	r1, [pc, #48]	; (d501c <_Z11displayDATAP6Sample+0x428>)
   d4fec:	e63a      	b.n	d4c64 <_Z11displayDATAP6Sample+0x70>
            val = n;
   d4fee:	4629      	mov	r1, r5
   d4ff0:	e6ac      	b.n	d4d4c <_Z11displayDATAP6Sample+0x158>
   d4ff2:	ee17 1a90 	vmov	r1, s15
   d4ff6:	e77a      	b.n	d4eee <_Z11displayDATAP6Sample+0x2fa>
   d4ff8:	2003e3d4 	.word	0x2003e3d4
   d4ffc:	000de14f 	.word	0x000de14f
   d5000:	000de153 	.word	0x000de153
   d5004:	2003de30 	.word	0x2003de30
   d5008:	000de15a 	.word	0x000de15a
   d500c:	2003e2c4 	.word	0x2003e2c4
   d5010:	000de166 	.word	0x000de166
   d5014:	2003de38 	.word	0x2003de38
   d5018:	000de171 	.word	0x000de171
   d501c:	000de09e 	.word	0x000de09e

000d5020 <loop>:
{
   d5020:	e92d 4ff0 	stmdb	sp!, {r4, r5, r6, r7, r8, r9, sl, fp, lr}
  if (!preSensorDutyMillis || !predisplayDutyMillis || !prePublishDutyMillis || !preTimeCheckMillis )
   d5024:	4c63      	ldr	r4, [pc, #396]	; (d51b4 <loop+0x194>)
   d5026:	f8df 81c4 	ldr.w	r8, [pc, #452]	; d51ec <loop+0x1cc>
   d502a:	6823      	ldr	r3, [r4, #0]
   d502c:	4e62      	ldr	r6, [pc, #392]	; (d51b8 <loop+0x198>)
   d502e:	4d63      	ldr	r5, [pc, #396]	; (d51bc <loop+0x19c>)
{
   d5030:	b087      	sub	sp, #28
  if (!preSensorDutyMillis || !predisplayDutyMillis || !prePublishDutyMillis || !preTimeCheckMillis )
   d5032:	b133      	cbz	r3, d5042 <loop+0x22>
   d5034:	f8d8 3000 	ldr.w	r3, [r8]
   d5038:	b11b      	cbz	r3, d5042 <loop+0x22>
   d503a:	6833      	ldr	r3, [r6, #0]
   d503c:	b10b      	cbz	r3, d5042 <loop+0x22>
   d503e:	682b      	ldr	r3, [r5, #0]
   d5040:	b983      	cbnz	r3, d5064 <loop+0x44>
   d5042:	f003 fc47 	bl	d88d4 <HAL_Timer_Get_Milli_Seconds>
    preSensorDutyMillis = millis();
   d5046:	6020      	str	r0, [r4, #0]
   d5048:	f003 fc44 	bl	d88d4 <HAL_Timer_Get_Milli_Seconds>
    predisplayDutyMillis = millis();
   d504c:	f8c8 0000 	str.w	r0, [r8]
   d5050:	f003 fc40 	bl	d88d4 <HAL_Timer_Get_Milli_Seconds>
    prePublishDutyMillis = millis();
   d5054:	6030      	str	r0, [r6, #0]
   d5056:	f003 fc3d 	bl	d88d4 <HAL_Timer_Get_Milli_Seconds>
    preTimeCheckMillis = millis();
   d505a:	6028      	str	r0, [r5, #0]
   d505c:	f003 fc3a 	bl	d88d4 <HAL_Timer_Get_Milli_Seconds>
    preBackupSampleMillis = millis();
   d5060:	4b57      	ldr	r3, [pc, #348]	; (d51c0 <loop+0x1a0>)
   d5062:	6018      	str	r0, [r3, #0]
   d5064:	f003 fc36 	bl	d88d4 <HAL_Timer_Get_Milli_Seconds>
   d5068:	4682      	mov	sl, r0
   d506a:	f003 fc33 	bl	d88d4 <HAL_Timer_Get_Milli_Seconds>
   d506e:	4681      	mov	r9, r0
   d5070:	f003 fc30 	bl	d88d4 <HAL_Timer_Get_Milli_Seconds>
   d5074:	4607      	mov	r7, r0
   d5076:	f003 fc2d 	bl	d88d4 <HAL_Timer_Get_Milli_Seconds>
   d507a:	4683      	mov	fp, r0
   d507c:	f003 fc2a 	bl	d88d4 <HAL_Timer_Get_Milli_Seconds>
        tm = 0;
   d5080:	2300      	movs	r3, #0
   d5082:	2200      	movs	r2, #0
   d5084:	4605      	mov	r5, r0
        return spark_sync_time_last(nullptr, &tm);
   d5086:	a904      	add	r1, sp, #16
   d5088:	2000      	movs	r0, #0
        tm = 0;
   d508a:	e9cd 2304 	strd	r2, r3, [sp, #16]
        return spark_sync_time_last(nullptr, &tm);
   d508e:	f003 ff35 	bl	d8efc <spark_sync_time_last>
  if (curTimeCheckMillis - Particle.timeSyncedLast() >= ONE_DAY_MILLIS && Particle.connected){
   d5092:	4b4c      	ldr	r3, [pc, #304]	; (d51c4 <loop+0x1a4>)
   d5094:	ebab 0000 	sub.w	r0, fp, r0
   d5098:	4298      	cmp	r0, r3
   d509a:	d925      	bls.n	d50e8 <loop+0xc8>
    static bool connected(void) { return spark_cloud_flag_connected(); }
   d509c:	f003 ff0e 	bl	d8ebc <spark_cloud_flag_connected>
        if (!connected()) {
   d50a0:	b110      	cbz	r0, d50a8 <loop+0x88>
        return spark_sync_time(NULL);
   d50a2:	2000      	movs	r0, #0
   d50a4:	f003 ff1a 	bl	d8edc <spark_sync_time>
        return hal_timer_millis(nullptr);
   d50a8:	2000      	movs	r0, #0
   d50aa:	f003 fc3b 	bl	d8924 <hal_timer_millis>
   d50ae:	f04f 0b00 	mov.w	fp, #0
   d50b2:	9003      	str	r0, [sp, #12]
   d50b4:	2000      	movs	r0, #0
   d50b6:	f003 fc35 	bl	d8924 <hal_timer_millis>
        return waitConditionWhile(_condition, [=]{ return (millis()-start)<timeout; });
   d50ba:	9b03      	ldr	r3, [sp, #12]
   d50bc:	1ac3      	subs	r3, r0, r3
   d50be:	9300      	str	r3, [sp, #0]
   d50c0:	eb61 030b 	sbc.w	r3, r1, fp
   d50c4:	9301      	str	r3, [sp, #4]
        while (_while() && !_condition()) {
   d50c6:	e9dd 0100 	ldrd	r0, r1, [sp]
   d50ca:	2300      	movs	r3, #0
   d50cc:	f242 720f 	movw	r2, #9999	; 0x270f
   d50d0:	428b      	cmp	r3, r1
   d50d2:	bf08      	it	eq
   d50d4:	4282      	cmpeq	r2, r0
   d50d6:	d305      	bcc.n	d50e4 <loop+0xc4>
    waitFor(Particle.syncTimeDone,10000);
   d50d8:	f7ff f84e 	bl	d4178 <_ZN10CloudClass12syncTimeDoneEv.isra.0>
   d50dc:	b910      	cbnz	r0, d50e4 <loop+0xc4>
            spark_process();
   d50de:	f003 fee5 	bl	d8eac <spark_process>
        while (_while() && !_condition()) {
   d50e2:	e7e7      	b.n	d50b4 <loop+0x94>
   d50e4:	f7ff f848 	bl	d4178 <_ZN10CloudClass12syncTimeDoneEv.isra.0>
  if (curSensorDutyMillis - preSensorDutyMillis >= SENSOR_CYCLE*1000)
   d50e8:	6823      	ldr	r3, [r4, #0]
   d50ea:	ebaa 0203 	sub.w	r2, sl, r3
   d50ee:	4b36      	ldr	r3, [pc, #216]	; (d51c8 <loop+0x1a8>)
   d50f0:	6819      	ldr	r1, [r3, #0]
   d50f2:	f44f 737a 	mov.w	r3, #1000	; 0x3e8
   d50f6:	434b      	muls	r3, r1
   d50f8:	429a      	cmp	r2, r3
   d50fa:	d321      	bcc.n	d5140 <loop+0x120>
    take_sample(&latest_sample);
   d50fc:	4833      	ldr	r0, [pc, #204]	; (d51cc <loop+0x1ac>)
   d50fe:	f7ff fcfd 	bl	d4afc <_Z11take_sampleP6Sample>
    SD_WRITE_SUCCESSFUL = false;
   d5102:	4b33      	ldr	r3, [pc, #204]	; (d51d0 <loop+0x1b0>)
   d5104:	2000      	movs	r0, #0
   d5106:	7018      	strb	r0, [r3, #0]
    record_sample(samp_dest);
   d5108:	f7ff fcac 	bl	d4a64 <_Z13record_sample17SampleDestination>
    record_sample(samp_dest);
   d510c:	2002      	movs	r0, #2
   d510e:	f7ff fca9 	bl	d4a64 <_Z13record_sample17SampleDestination>
    Serial.println("This is paritcle3\n");
   d5112:	f005 ff71 	bl	daff8 <_Z16_fetch_usbserialv>
   d5116:	492f      	ldr	r1, [pc, #188]	; (d51d4 <loop+0x1b4>)
   d5118:	f005 faff 	bl	da71a <_ZN5Print7printlnEPKc>
    if(PHONE_BACKUP_REQUEST){
   d511c:	4b2e      	ldr	r3, [pc, #184]	; (d51d8 <loop+0x1b8>)
   d511e:	781b      	ldrb	r3, [r3, #0]
   d5120:	b163      	cbz	r3, d513c <loop+0x11c>
      if(BLE.connected()){
   d5122:	f004 fd71 	bl	d9c08 <_ZN8particle14BleLocalDevice11getInstanceEv>
   d5126:	f004 fdf0 	bl	d9d0a <_ZNK8particle14BleLocalDevice9connectedEv>
   d512a:	b138      	cbz	r0, d513c <loop+0x11c>
        Serial.println("This is paritcle2\n");
   d512c:	f005 ff64 	bl	daff8 <_Z16_fetch_usbserialv>
   d5130:	492a      	ldr	r1, [pc, #168]	; (d51dc <loop+0x1bc>)
   d5132:	f005 faf2 	bl	da71a <_ZN5Print7printlnEPKc>
      record_sample(samp_dest);
   d5136:	2004      	movs	r0, #4
   d5138:	f7ff fc94 	bl	d4a64 <_Z13record_sample17SampleDestination>
    preSensorDutyMillis = curSensorDutyMillis;
   d513c:	f8c4 a000 	str.w	sl, [r4]
  if( (curDisplayDutyMillis - predisplayDutyMillis)  >= DISPLAY_REFRESH*1000){
   d5140:	f8d8 3000 	ldr.w	r3, [r8]
   d5144:	eba9 0203 	sub.w	r2, r9, r3
   d5148:	4b25      	ldr	r3, [pc, #148]	; (d51e0 <loop+0x1c0>)
   d514a:	6819      	ldr	r1, [r3, #0]
   d514c:	f44f 737a 	mov.w	r3, #1000	; 0x3e8
   d5150:	434b      	muls	r3, r1
   d5152:	429a      	cmp	r2, r3
   d5154:	d304      	bcc.n	d5160 <loop+0x140>
    displayDATA(&latest_sample);
   d5156:	481d      	ldr	r0, [pc, #116]	; (d51cc <loop+0x1ac>)
   d5158:	f7ff fd4c 	bl	d4bf4 <_Z11displayDATAP6Sample>
    predisplayDutyMillis = curDisplayDutyMillis;
   d515c:	f8c8 9000 	str.w	r9, [r8]
  if( (curPublishDutyMillis - prePublishDutyMillis)  >= PUBLISH_RATE*1000){
   d5160:	6833      	ldr	r3, [r6, #0]
   d5162:	1afa      	subs	r2, r7, r3
   d5164:	4b1f      	ldr	r3, [pc, #124]	; (d51e4 <loop+0x1c4>)
   d5166:	6819      	ldr	r1, [r3, #0]
   d5168:	f44f 737a 	mov.w	r3, #1000	; 0x3e8
   d516c:	434b      	muls	r3, r1
   d516e:	429a      	cmp	r2, r3
   d5170:	d303      	bcc.n	d517a <loop+0x15a>
    record_sample(samp_dest);
   d5172:	2001      	movs	r0, #1
   d5174:	f7ff fc76 	bl	d4a64 <_Z13record_sample17SampleDestination>
    prePublishDutyMillis = curPublishDutyMillis;
   d5178:	6037      	str	r7, [r6, #0]
  if( (curBackupSampleMillis - preBackupSampleMillis) >=  BACKUP_RATE*1000){
   d517a:	4c11      	ldr	r4, [pc, #68]	; (d51c0 <loop+0x1a0>)
   d517c:	6822      	ldr	r2, [r4, #0]
   d517e:	1aa9      	subs	r1, r5, r2
   d5180:	4a19      	ldr	r2, [pc, #100]	; (d51e8 <loop+0x1c8>)
   d5182:	6810      	ldr	r0, [r2, #0]
   d5184:	f44f 727a 	mov.w	r2, #1000	; 0x3e8
   d5188:	4342      	muls	r2, r0
   d518a:	4291      	cmp	r1, r2
   d518c:	d30f      	bcc.n	d51ae <loop+0x18e>
    if(!BLE.connected())PHONE_BACKUP_REQUEST = true;
   d518e:	f004 fd3b 	bl	d9c08 <_ZN8particle14BleLocalDevice11getInstanceEv>
   d5192:	f004 fdba 	bl	d9d0a <_ZNK8particle14BleLocalDevice9connectedEv>
   d5196:	4b10      	ldr	r3, [pc, #64]	; (d51d8 <loop+0x1b8>)
   d5198:	b928      	cbnz	r0, d51a6 <loop+0x186>
   d519a:	2201      	movs	r2, #1
   d519c:	701a      	strb	r2, [r3, #0]
      record_sample(samp_dest);
   d519e:	2003      	movs	r0, #3
   d51a0:	f7ff fc60 	bl	d4a64 <_Z13record_sample17SampleDestination>
   d51a4:	e002      	b.n	d51ac <loop+0x18c>
    if (PHONE_BACKUP_REQUEST){
   d51a6:	781b      	ldrb	r3, [r3, #0]
   d51a8:	2b00      	cmp	r3, #0
   d51aa:	d1f8      	bne.n	d519e <loop+0x17e>
    preBackupSampleMillis = curBackupSampleMillis;
   d51ac:	6025      	str	r5, [r4, #0]
}
   d51ae:	b007      	add	sp, #28
   d51b0:	e8bd 8ff0 	ldmia.w	sp!, {r4, r5, r6, r7, r8, r9, sl, fp, pc}
   d51b4:	2003e508 	.word	0x2003e508
   d51b8:	2003e504 	.word	0x2003e504
   d51bc:	2003e50c 	.word	0x2003e50c
   d51c0:	2003e500 	.word	0x2003e500
   d51c4:	05265bff 	.word	0x05265bff
   d51c8:	2003e2c4 	.word	0x2003e2c4
   d51cc:	2003e42c 	.word	0x2003e42c
   d51d0:	2003e2c0 	.word	0x2003e2c0
   d51d4:	000de173 	.word	0x000de173
   d51d8:	2003de34 	.word	0x2003de34
   d51dc:	000de186 	.word	0x000de186
   d51e0:	2003de30 	.word	0x2003de30
   d51e4:	2003de38 	.word	0x2003de38
   d51e8:	2003ddac 	.word	0x2003ddac
   d51ec:	2003e510 	.word	0x2003e510

000d51f0 <_ZN8particle17BleCharacteristicC1INS_7BleUuidES2_EEPKcNS_9EnumFlagsINS_25BleCharacteristicPropertyEvEET_T0_PFvPKhjRKNS_13BlePeerDeviceEPvESF_>:
    BleCharacteristic(EnumFlags<BleCharacteristicProperty> properties, const char* desc, void(T::*callback)(const uint8_t*, size_t, const BlePeerDevice& peer), T* instance)
            : BleCharacteristic(properties, desc, (callback && instance) ? std::bind(callback, instance, _1, _2, _3) : (BleOnDataReceivedStdFunction)nullptr) {
    }

    template<typename T1, typename T2>
    BleCharacteristic(const char* desc, EnumFlags<BleCharacteristicProperty> properties, T1 charUuid, T2 svcUuid, BleOnDataReceivedCallback callback = nullptr, void* context = nullptr) {
   d51f0:	b5f0      	push	{r4, r5, r6, r7, lr}
   d51f2:	4616      	mov	r6, r2
   d51f4:	b091      	sub	sp, #68	; 0x44
#if __cplusplus > 201402L
      using weak_type = __weak_ptr<_Tp, _Lp>;
#endif

      constexpr __shared_ptr() noexcept
      : _M_ptr(0), _M_refcount()
   d51f6:	2200      	movs	r2, #0
      constexpr __shared_count() noexcept : _M_pi(0)
   d51f8:	e9c0 2200 	strd	r2, r2, [r0]
   d51fc:	4604      	mov	r4, r0
   d51fe:	460d      	mov	r5, r1
        BleUuid cUuid(charUuid);
        BleUuid sUuid(svcUuid);
   d5200:	af0b      	add	r7, sp, #44	; 0x2c
        BleUuid cUuid(charUuid);
   d5202:	4619      	mov	r1, r3
   d5204:	a806      	add	r0, sp, #24
   d5206:	f004 fa73 	bl	d96f0 <_ZN8particle7BleUuidC1ERKS0_>
        BleUuid sUuid(svcUuid);
   d520a:	9916      	ldr	r1, [sp, #88]	; 0x58
   d520c:	4638      	mov	r0, r7
   d520e:	f004 fa6f 	bl	d96f0 <_ZN8particle7BleUuidC1ERKS0_>
    value_ = static_cast<ValueType>(value);
}

template<typename T>
inline particle::EnumFlags<T, typename std::enable_if_t<std::is_enum<T>::value>>::EnumFlags(const EnumFlags<T>& flags) {
    value_ = flags.value_;
   d5212:	7833      	ldrb	r3, [r6, #0]
   d5214:	f88d 3014 	strb.w	r3, [sp, #20]
        construct(desc, properties, cUuid, sUuid, callback, context);
   d5218:	9b18      	ldr	r3, [sp, #96]	; 0x60
   d521a:	9302      	str	r3, [sp, #8]
   d521c:	9b17      	ldr	r3, [sp, #92]	; 0x5c
   d521e:	4620      	mov	r0, r4
   d5220:	e9cd 7300 	strd	r7, r3, [sp]
   d5224:	aa05      	add	r2, sp, #20
   d5226:	ab06      	add	r3, sp, #24
   d5228:	4629      	mov	r1, r5
   d522a:	f004 fff9 	bl	da220 <_ZN8particle17BleCharacteristic9constructEPKcNS_9EnumFlagsINS_25BleCharacteristicPropertyEvEERNS_7BleUuidES7_PFvPKhjRKNS_13BlePeerDeviceEPvESD_>
    }
   d522e:	4620      	mov	r0, r4
   d5230:	b011      	add	sp, #68	; 0x44
   d5232:	bdf0      	pop	{r4, r5, r6, r7, pc}

000d5234 <_ZN15Adafruit_IL0373D0Ev>:
   d5234:	b510      	push	{r4, lr}
   d5236:	4604      	mov	r4, r0
   d5238:	f7fe ff8c 	bl	d4154 <_ZN15Adafruit_IL0373D1Ev>
   d523c:	4620      	mov	r0, r4
   d523e:	2150      	movs	r1, #80	; 0x50
   d5240:	f006 fa51 	bl	db6e6 <_ZdlPvj>
   d5244:	4620      	mov	r0, r4
   d5246:	bd10      	pop	{r4, pc}

000d5248 <_GLOBAL__sub_I_SystemMode>:
}
   d5248:	b530      	push	{r4, r5, lr}
              error_(SYSTEM_ERROR_NONE) {
   d524a:	4d65      	ldr	r5, [pc, #404]	; (d53e0 <_GLOBAL__sub_I_SystemMode+0x198>)
    SleepResult() {}
   d524c:	4b65      	ldr	r3, [pc, #404]	; (d53e4 <_GLOBAL__sub_I_SystemMode+0x19c>)
   d524e:	60ab      	str	r3, [r5, #8]
              error_(SYSTEM_ERROR_NONE) {
   d5250:	2400      	movs	r4, #0
   d5252:	b093      	sub	sp, #76	; 0x4c
   d5254:	602c      	str	r4, [r5, #0]
   d5256:	80ac      	strh	r4, [r5, #4]
    SleepResult() {}
   d5258:	71ac      	strb	r4, [r5, #6]
        set_system_mode(mode);
   d525a:	2002      	movs	r0, #2
   d525c:	f003 fd82 	bl	d8d64 <set_system_mode>
SYSTEM_MODE(SEMI_AUTOMATIC);
   d5260:	4a61      	ldr	r2, [pc, #388]	; (d53e8 <_GLOBAL__sub_I_SystemMode+0x1a0>)
   d5262:	4962      	ldr	r1, [pc, #392]	; (d53ec <_GLOBAL__sub_I_SystemMode+0x1a4>)
   d5264:	4628      	mov	r0, r5
   d5266:	f006 fa39 	bl	db6dc <__aeabi_atexit>
SYSTEM_THREAD(ENABLED);
   d526a:	4621      	mov	r1, r4
   d526c:	2001      	movs	r0, #1
   d526e:	f003 fd89 	bl	d8d84 <system_thread_set_state>
FuelGauge fuel;
   d5272:	4621      	mov	r1, r4
   d5274:	485e      	ldr	r0, [pc, #376]	; (d53f0 <_GLOBAL__sub_I_SystemMode+0x1a8>)

template <hal_spi_interface_t Interface>
class SpiProxy {
public:
    static SPIClass& instance() {
        static SPIClass instance(Interface);
   d5276:	4d5f      	ldr	r5, [pc, #380]	; (d53f4 <_GLOBAL__sub_I_SystemMode+0x1ac>)
   d5278:	f005 fd1c 	bl	dacb4 <_ZN9FuelGaugeC1Eb>
   d527c:	4a5a      	ldr	r2, [pc, #360]	; (d53e8 <_GLOBAL__sub_I_SystemMode+0x1a0>)
   d527e:	495e      	ldr	r1, [pc, #376]	; (d53f8 <_GLOBAL__sub_I_SystemMode+0x1b0>)
   d5280:	485b      	ldr	r0, [pc, #364]	; (d53f0 <_GLOBAL__sub_I_SystemMode+0x1a8>)
   d5282:	f006 fa2b 	bl	db6dc <__aeabi_atexit>
Adafruit_BME280 bme;
   d5286:	485d      	ldr	r0, [pc, #372]	; (d53fc <_GLOBAL__sub_I_SystemMode+0x1b4>)
   d5288:	f000 fd2a 	bl	d5ce0 <_ZN15Adafruit_BME280C1Ev>
Adafruit_IL0373 epd(212, 104, EPD_DC, EPD_RESET, EPD_CS, SRAM_CS, EPD_BUSY);
   d528c:	f04f 33ff 	mov.w	r3, #4294967295
   d5290:	2203      	movs	r2, #3
   d5292:	e9cd 2302 	strd	r2, r3, [sp, #8]
   d5296:	2204      	movs	r2, #4
   d5298:	e9cd 3200 	strd	r3, r2, [sp]
   d529c:	21d4      	movs	r1, #212	; 0xd4
   d529e:	2305      	movs	r3, #5
   d52a0:	2268      	movs	r2, #104	; 0x68
   d52a2:	4857      	ldr	r0, [pc, #348]	; (d5400 <_GLOBAL__sub_I_SystemMode+0x1b8>)
   d52a4:	f002 fcf4 	bl	d7c90 <_ZN15Adafruit_IL0373C1Eiiaaaaa>
   d52a8:	4a4f      	ldr	r2, [pc, #316]	; (d53e8 <_GLOBAL__sub_I_SystemMode+0x1a0>)
   d52aa:	4956      	ldr	r1, [pc, #344]	; (d5404 <_GLOBAL__sub_I_SystemMode+0x1bc>)
   d52ac:	4854      	ldr	r0, [pc, #336]	; (d5400 <_GLOBAL__sub_I_SystemMode+0x1b8>)
   d52ae:	f006 fa15 	bl	db6dc <__aeabi_atexit>
PMSA003 pm = PMSA003(); // create instance of class
   d52b2:	4855      	ldr	r0, [pc, #340]	; (d5408 <_GLOBAL__sub_I_SystemMode+0x1c0>)
   d52b4:	f000 f8e0 	bl	d5478 <_ZN7PMSA003C1Ev>
 */
class FatVolume {
 public:
  /** Create an instance of FatVolume
   */
  FatVolume() : m_fatType(0) {}
   d52b8:	4b54      	ldr	r3, [pc, #336]	; (d540c <_GLOBAL__sub_I_SystemMode+0x1c4>)
#else  // ENABLE_EXTENDED_TRANSFER_CLASS || ENABLE_SDIO_CLASS
class SdSpiCard {
#endif  // ENABLE_EXTENDED_TRANSFER_CLASS || ENABLE_SDIO_CLASS
 public:
  /** Construct an instance of SdSpiCard. */
  SdSpiCard() : m_errorCode(SD_CARD_ERROR_INIT_NOT_CALLED), m_type(0) {}
   d52ba:	2264      	movs	r2, #100	; 0x64
   d52bc:	f883 2460 	strb.w	r2, [r3, #1120]	; 0x460
  {
   d52c0:	4a53      	ldr	r2, [pc, #332]	; (d5410 <_GLOBAL__sub_I_SystemMode+0x1c8>)
   d52c2:	f8c3 2470 	str.w	r2, [r3, #1136]	; 0x470
   d52c6:	2201      	movs	r2, #1
   d52c8:	71dc      	strb	r4, [r3, #7]
   d52ca:	f8a3 443c 	strh.w	r4, [r3, #1084]	; 0x43c
   d52ce:	f883 446a 	strb.w	r4, [r3, #1130]	; 0x46a
   d52d2:	f8c3 4478 	str.w	r4, [r3, #1144]	; 0x478
   d52d6:	f8a3 447c 	strh.w	r4, [r3, #1148]	; 0x47c
   d52da:	f883 2474 	strb.w	r2, [r3, #1140]	; 0x474
   d52de:	7829      	ldrb	r1, [r5, #0]
   d52e0:	f3bf 8f5b 	dmb	ish
   d52e4:	4011      	ands	r1, r2
   d52e6:	461c      	mov	r4, r3
   d52e8:	d10b      	bne.n	d5302 <_GLOBAL__sub_I_SystemMode+0xba>
   d52ea:	4628      	mov	r0, r5
   d52ec:	9105      	str	r1, [sp, #20]
   d52ee:	f7fe fee3 	bl	d40b8 <__cxa_guard_acquire>
   d52f2:	9905      	ldr	r1, [sp, #20]
   d52f4:	b128      	cbz	r0, d5302 <_GLOBAL__sub_I_SystemMode+0xba>
   d52f6:	4847      	ldr	r0, [pc, #284]	; (d5414 <_GLOBAL__sub_I_SystemMode+0x1cc>)
   d52f8:	f003 fe94 	bl	d9024 <_ZN8SPIClassC1E19hal_spi_interface_t>
   d52fc:	4628      	mov	r0, r5
   d52fe:	f7fe fee0 	bl	d40c2 <__cxa_guard_release>
#if IMPLEMENT_SPI_PORT_SELECTION || defined(DOXYGEN)
  /** Set SPI port number.
   * \param[in] spiPort Hardware SPI port.
   */
  void setPort(SPIClass* spiPort) {
    m_spi = spiPort ? spiPort : &SDCARD_SPI;
   d5302:	4b44      	ldr	r3, [pc, #272]	; (d5414 <_GLOBAL__sub_I_SystemMode+0x1cc>)
   d5304:	f8c4 346c 	str.w	r3, [r4, #1132]	; 0x46c
SdFat SD;
   d5308:	4a37      	ldr	r2, [pc, #220]	; (d53e8 <_GLOBAL__sub_I_SystemMode+0x1a0>)
   d530a:	4943      	ldr	r1, [pc, #268]	; (d5418 <_GLOBAL__sub_I_SystemMode+0x1d0>)
   d530c:	483f      	ldr	r0, [pc, #252]	; (d540c <_GLOBAL__sub_I_SystemMode+0x1c4>)
   d530e:	f006 f9e5 	bl	db6dc <__aeabi_atexit>
   d5312:	4842      	ldr	r0, [pc, #264]	; (d541c <_GLOBAL__sub_I_SystemMode+0x1d4>)
File myFile;
   d5314:	4a34      	ldr	r2, [pc, #208]	; (d53e8 <_GLOBAL__sub_I_SystemMode+0x1a0>)
   d5316:	4942      	ldr	r1, [pc, #264]	; (d5420 <_GLOBAL__sub_I_SystemMode+0x1d8>)
    Stream() {_timeout=1000;}
   d5318:	f44f 737a 	mov.w	r3, #1000	; 0x3e8
   d531c:	2400      	movs	r4, #0
   d531e:	6083      	str	r3, [r0, #8]
  File() {}
   d5320:	4b40      	ldr	r3, [pc, #256]	; (d5424 <_GLOBAL__sub_I_SystemMode+0x1dc>)
   d5322:	8204      	strh	r4, [r0, #16]
    Print() : write_error(0) {}
   d5324:	6044      	str	r4, [r0, #4]
   d5326:	6003      	str	r3, [r0, #0]
   d5328:	f006 f9d8 	bl	db6dc <__aeabi_atexit>
typedef struct Data_average{
   d532c:	4b3e      	ldr	r3, [pc, #248]	; (d5428 <_GLOBAL__sub_I_SystemMode+0x1e0>)
String deviceID;
   d532e:	493f      	ldr	r1, [pc, #252]	; (d542c <_GLOBAL__sub_I_SystemMode+0x1e4>)
typedef struct Data_average{
   d5330:	701c      	strb	r4, [r3, #0]
   d5332:	f8a3 4044 	strh.w	r4, [r3, #68]	; 0x44
   d5336:	4b3e      	ldr	r3, [pc, #248]	; (d5430 <_GLOBAL__sub_I_SystemMode+0x1e8>)
String deviceID;
   d5338:	483e      	ldr	r0, [pc, #248]	; (d5434 <_GLOBAL__sub_I_SystemMode+0x1ec>)
typedef struct Data_average{
   d533a:	701c      	strb	r4, [r3, #0]
   d533c:	f8a3 4044 	strh.w	r4, [r3, #68]	; 0x44
typedef struct Sample{
   d5340:	4b3d      	ldr	r3, [pc, #244]	; (d5438 <_GLOBAL__sub_I_SystemMode+0x1f0>)
   d5342:	801c      	strh	r4, [r3, #0]
   d5344:	4b3d      	ldr	r3, [pc, #244]	; (d543c <_GLOBAL__sub_I_SystemMode+0x1f4>)
   d5346:	801c      	strh	r4, [r3, #0]
   d5348:	4b3d      	ldr	r3, [pc, #244]	; (d5440 <_GLOBAL__sub_I_SystemMode+0x1f8>)
   d534a:	801c      	strh	r4, [r3, #0]
String deviceID;
   d534c:	f003 ff8f 	bl	d926e <_ZN6StringC1EPKc>
   d5350:	4a25      	ldr	r2, [pc, #148]	; (d53e8 <_GLOBAL__sub_I_SystemMode+0x1a0>)
   d5352:	493c      	ldr	r1, [pc, #240]	; (d5444 <_GLOBAL__sub_I_SystemMode+0x1fc>)
   d5354:	4837      	ldr	r0, [pc, #220]	; (d5434 <_GLOBAL__sub_I_SystemMode+0x1ec>)
   d5356:	f006 f9c1 	bl	db6dc <__aeabi_atexit>
const BleUuid serviceUuid("6E400001-B5A3-F393-E0A9-E50E24DCCA9E");
   d535a:	493b      	ldr	r1, [pc, #236]	; (d5448 <_GLOBAL__sub_I_SystemMode+0x200>)
   d535c:	483b      	ldr	r0, [pc, #236]	; (d544c <_GLOBAL__sub_I_SystemMode+0x204>)
   d535e:	f004 faad 	bl	d98bc <_ZN8particle7BleUuidC1EPKc>
const BleUuid rxUuid("6E400002-B5A3-F393-E0A9-E50E24DCCA9E");
   d5362:	493b      	ldr	r1, [pc, #236]	; (d5450 <_GLOBAL__sub_I_SystemMode+0x208>)
   d5364:	483b      	ldr	r0, [pc, #236]	; (d5454 <_GLOBAL__sub_I_SystemMode+0x20c>)
   d5366:	f004 faa9 	bl	d98bc <_ZN8particle7BleUuidC1EPKc>
const BleUuid txUuid("6E400003-B5A3-F393-E0A9-E50E24DCCA9E");
   d536a:	493b      	ldr	r1, [pc, #236]	; (d5458 <_GLOBAL__sub_I_SystemMode+0x210>)
   d536c:	483b      	ldr	r0, [pc, #236]	; (d545c <_GLOBAL__sub_I_SystemMode+0x214>)
   d536e:	f004 faa5 	bl	d98bc <_ZN8particle7BleUuidC1EPKc>
    value_ = static_cast<ValueType>(value);
   d5372:	2310      	movs	r3, #16
BleCharacteristic txCharacteristic("tx", BleCharacteristicProperty::NOTIFY, txUuid, serviceUuid); // originally NOTIFY rather than READ -- Charlie
   d5374:	4939      	ldr	r1, [pc, #228]	; (d545c <_GLOBAL__sub_I_SystemMode+0x214>)
   d5376:	f88d 301c 	strb.w	r3, [sp, #28]
   d537a:	a808      	add	r0, sp, #32
   d537c:	f004 f9b8 	bl	d96f0 <_ZN8particle7BleUuidC1ERKS0_>
   d5380:	4932      	ldr	r1, [pc, #200]	; (d544c <_GLOBAL__sub_I_SystemMode+0x204>)
   d5382:	a80d      	add	r0, sp, #52	; 0x34
   d5384:	f004 f9b4 	bl	d96f0 <_ZN8particle7BleUuidC1ERKS0_>
   d5388:	ab0d      	add	r3, sp, #52	; 0x34
   d538a:	9300      	str	r3, [sp, #0]
   d538c:	aa07      	add	r2, sp, #28
   d538e:	ab08      	add	r3, sp, #32
   d5390:	e9cd 4401 	strd	r4, r4, [sp, #4]
   d5394:	4932      	ldr	r1, [pc, #200]	; (d5460 <_GLOBAL__sub_I_SystemMode+0x218>)
   d5396:	4833      	ldr	r0, [pc, #204]	; (d5464 <_GLOBAL__sub_I_SystemMode+0x21c>)
   d5398:	f7ff ff2a 	bl	d51f0 <_ZN8particle17BleCharacteristicC1INS_7BleUuidES2_EEPKcNS_9EnumFlagsINS_25BleCharacteristicPropertyEvEET_T0_PFvPKhjRKNS_13BlePeerDeviceEPvESF_>
   d539c:	4a12      	ldr	r2, [pc, #72]	; (d53e8 <_GLOBAL__sub_I_SystemMode+0x1a0>)
   d539e:	4932      	ldr	r1, [pc, #200]	; (d5468 <_GLOBAL__sub_I_SystemMode+0x220>)
   d53a0:	4830      	ldr	r0, [pc, #192]	; (d5464 <_GLOBAL__sub_I_SystemMode+0x21c>)
   d53a2:	f006 f99b 	bl	db6dc <__aeabi_atexit>
   d53a6:	2304      	movs	r3, #4
BleCharacteristic rxCharacteristic("rx", BleCharacteristicProperty::WRITE_WO_RSP, rxUuid, serviceUuid, onDataReceived, NULL);
   d53a8:	492a      	ldr	r1, [pc, #168]	; (d5454 <_GLOBAL__sub_I_SystemMode+0x20c>)
   d53aa:	f88d 301c 	strb.w	r3, [sp, #28]
   d53ae:	a808      	add	r0, sp, #32
   d53b0:	f004 f99e 	bl	d96f0 <_ZN8particle7BleUuidC1ERKS0_>
   d53b4:	4925      	ldr	r1, [pc, #148]	; (d544c <_GLOBAL__sub_I_SystemMode+0x204>)
   d53b6:	a80d      	add	r0, sp, #52	; 0x34
   d53b8:	f004 f99a 	bl	d96f0 <_ZN8particle7BleUuidC1ERKS0_>
   d53bc:	4b2b      	ldr	r3, [pc, #172]	; (d546c <_GLOBAL__sub_I_SystemMode+0x224>)
   d53be:	9301      	str	r3, [sp, #4]
   d53c0:	ab0d      	add	r3, sp, #52	; 0x34
   d53c2:	9300      	str	r3, [sp, #0]
   d53c4:	aa07      	add	r2, sp, #28
   d53c6:	ab08      	add	r3, sp, #32
   d53c8:	4929      	ldr	r1, [pc, #164]	; (d5470 <_GLOBAL__sub_I_SystemMode+0x228>)
   d53ca:	9402      	str	r4, [sp, #8]
   d53cc:	4829      	ldr	r0, [pc, #164]	; (d5474 <_GLOBAL__sub_I_SystemMode+0x22c>)
   d53ce:	f7ff ff0f 	bl	d51f0 <_ZN8particle17BleCharacteristicC1INS_7BleUuidES2_EEPKcNS_9EnumFlagsINS_25BleCharacteristicPropertyEvEET_T0_PFvPKhjRKNS_13BlePeerDeviceEPvESF_>
   d53d2:	4a05      	ldr	r2, [pc, #20]	; (d53e8 <_GLOBAL__sub_I_SystemMode+0x1a0>)
   d53d4:	4924      	ldr	r1, [pc, #144]	; (d5468 <_GLOBAL__sub_I_SystemMode+0x220>)
   d53d6:	4827      	ldr	r0, [pc, #156]	; (d5474 <_GLOBAL__sub_I_SystemMode+0x22c>)
   d53d8:	f006 f980 	bl	db6dc <__aeabi_atexit>
}
   d53dc:	b013      	add	sp, #76	; 0x4c
   d53de:	bd30      	pop	{r4, r5, pc}
   d53e0:	2003e2c8 	.word	0x2003e2c8
   d53e4:	ffff0000 	.word	0xffff0000
   d53e8:	2003de20 	.word	0x2003de20
   d53ec:	000d4169 	.word	0x000d4169
   d53f0:	2003e424 	.word	0x2003e424
   d53f4:	2003de24 	.word	0x2003de24
   d53f8:	000dacd5 	.word	0x000dacd5
   d53fc:	2003e380 	.word	0x2003e380
   d5400:	2003e3d4 	.word	0x2003e3d4
   d5404:	000d4155 	.word	0x000d4155
   d5408:	2003e498 	.word	0x2003e498
   d540c:	2003de3c 	.word	0x2003de3c
   d5410:	000de218 	.word	0x000de218
   d5414:	2003de28 	.word	0x2003de28
   d5418:	000d40eb 	.word	0x000d40eb
   d541c:	2003e464 	.word	0x2003e464
   d5420:	000d40e9 	.word	0x000d40e9
   d5424:	000de22c 	.word	0x000de22c
   d5428:	2003e55c 	.word	0x2003e55c
   d542c:	000dded7 	.word	0x000dded7
   d5430:	2003e514 	.word	0x2003e514
   d5434:	2003e3c4 	.word	0x2003e3c4
   d5438:	2003e42c 	.word	0x2003e42c
   d543c:	2003e348 	.word	0x2003e348
   d5440:	2003e310 	.word	0x2003e310
   d5444:	000d91d9 	.word	0x000d91d9
   d5448:	000de199 	.word	0x000de199
   d544c:	2003e2d4 	.word	0x2003e2d4
   d5450:	000de1be 	.word	0x000de1be
   d5454:	2003e2e8 	.word	0x2003e2e8
   d5458:	000de1e3 	.word	0x000de1e3
   d545c:	2003e2fc 	.word	0x2003e2fc
   d5460:	000de208 	.word	0x000de208
   d5464:	2003e5ac 	.word	0x2003e5ac
   d5468:	000d9db3 	.word	0x000d9db3
   d546c:	000d432d 	.word	0x000d432d
   d5470:	000de20b 	.word	0x000de20b
   d5474:	2003e5a4 	.word	0x2003e5a4

000d5478 <_ZN7PMSA003C1Ev>:

 */



PMSA003::PMSA003(){}
   d5478:	4770      	bx	lr

000d547a <_ZN7PMSA0034initEv>:
    _wire = &Wire;
    return init();
}

bool PMSA003::init() // private, called by begin only
{
   d547a:	b510      	push	{r4, lr}
   d547c:	4604      	mov	r4, r0
    _wire->begin();
   d547e:	6e00      	ldr	r0, [r0, #96]	; 0x60
   d5480:	f005 ff16 	bl	db2b0 <_ZN7TwoWire5beginEv>

    // To prevent null readings, sets to 0
    for (int i = 0; i < 15; i++)
   d5484:	1ea3      	subs	r3, r4, #2
    {
        _datBuffer[i] = 0;
   d5486:	2200      	movs	r2, #0
   d5488:	341c      	adds	r4, #28
   d548a:	f823 2f02 	strh.w	r2, [r3, #2]!
    for (int i = 0; i < 15; i++)
   d548e:	42a3      	cmp	r3, r4
   d5490:	d1fb      	bne.n	d548a <_ZN7PMSA0034initEv+0x10>
    }
    return true;
}
   d5492:	2001      	movs	r0, #1
   d5494:	bd10      	pop	{r4, pc}

000d5496 <_ZN7PMSA0035beginEv>:
{
   d5496:	b510      	push	{r4, lr}
    _i2caddr = PMSA_ADDRESS;
   d5498:	2312      	movs	r3, #18
   d549a:	f880 3064 	strb.w	r3, [r0, #100]	; 0x64
{
   d549e:	4604      	mov	r4, r0
    _wire = &Wire;
   d54a0:	f006 f8cc 	bl	db63c <_Z19__fetch_global_Wirev>
   d54a4:	6620      	str	r0, [r4, #96]	; 0x60
    return init();
   d54a6:	4620      	mov	r0, r4
}
   d54a8:	e8bd 4010 	ldmia.w	sp!, {r4, lr}
    return init();
   d54ac:	f7ff bfe5 	b.w	d547a <_ZN7PMSA0034initEv>

000d54b0 <_ZN7PMSA0034pollEv>:
    Call this everytime you want new data. 

    v1.1 - changed to a bool, returns true if data is non-zero and new. 
 */
bool PMSA003::poll() 
{   
   d54b0:	b5f8      	push	{r3, r4, r5, r6, r7, lr}
    _wire->requestFrom(PMSA_ADDRESS,PMSA_DEFAULT_SIZE);
   d54b2:	2220      	movs	r2, #32
{   
   d54b4:	4604      	mov	r4, r0
    _wire->requestFrom(PMSA_ADDRESS,PMSA_DEFAULT_SIZE);
   d54b6:	2112      	movs	r1, #18
   d54b8:	6e00      	ldr	r0, [r0, #96]	; 0x60
   d54ba:	f005 ff28 	bl	db30e <_ZN7TwoWire11requestFromEhj>
   d54be:	2500      	movs	r5, #0

    uint8_t i = 0;

    bool CONN_FLAG = false;
   d54c0:	462e      	mov	r6, r5

    //pull 32 bytes of data from i2c address and place it in the buffer
    while (_wire->available())
   d54c2:	6e20      	ldr	r0, [r4, #96]	; 0x60
   d54c4:	6803      	ldr	r3, [r0, #0]
   d54c6:	691b      	ldr	r3, [r3, #16]
   d54c8:	4798      	blx	r3
   d54ca:	1c6f      	adds	r7, r5, #1
   d54cc:	b150      	cbz	r0, d54e4 <_ZN7PMSA0034pollEv+0x34>
    {
        _streamBuffer[i++] = _wire->read();
   d54ce:	6e20      	ldr	r0, [r4, #96]	; 0x60
   d54d0:	6803      	ldr	r3, [r0, #0]
   d54d2:	695b      	ldr	r3, [r3, #20]
   d54d4:	4798      	blx	r3
   d54d6:	b2ed      	uxtb	r5, r5
   d54d8:	eb04 0545 	add.w	r5, r4, r5, lsl #1
        CONN_FLAG = true;
   d54dc:	2601      	movs	r6, #1
        _streamBuffer[i++] = _wire->read();
   d54de:	83e8      	strh	r0, [r5, #30]
    while (_wire->available())
   d54e0:	463d      	mov	r5, r7
   d54e2:	e7ee      	b.n	d54c2 <_ZN7PMSA0034pollEv+0x12>
   d54e4:	4620      	mov	r0, r4
   d54e6:	1ea3      	subs	r3, r4, #2
   d54e8:	f104 011c 	add.w	r1, r4, #28

    // Data is little endian'd, sets it to a data buffer from stream
    for (uint8_t i = 0; i < 15; i++)
    {
        _datBuffer[i] = _streamBuffer[2 + i * 2 + 1];
        _datBuffer[i] += (_streamBuffer[2 + i * 2] << 8);
   d54ec:	8c44      	ldrh	r4, [r0, #34]	; 0x22
   d54ee:	8c82      	ldrh	r2, [r0, #36]	; 0x24
   d54f0:	eb02 2204 	add.w	r2, r2, r4, lsl #8
   d54f4:	f823 2f02 	strh.w	r2, [r3, #2]!
    for (uint8_t i = 0; i < 15; i++)
   d54f8:	4299      	cmp	r1, r3
   d54fa:	f100 0004 	add.w	r0, r0, #4
   d54fe:	d1f5      	bne.n	d54ec <_ZN7PMSA0034pollEv+0x3c>
    }

    return CONN_FLAG;
}
   d5500:	4630      	mov	r0, r6
   d5502:	bdf8      	pop	{r3, r4, r5, r6, r7, pc}

000d5504 <_ZN7PMSA0037pm10_stEv>:
 */

const uint16_t PMSA003::pm10_st()
{
    return _datBuffer[1];
}
   d5504:	8840      	ldrh	r0, [r0, #2]
   d5506:	4770      	bx	lr

000d5508 <_ZN7PMSA0037pm25_stEv>:

const uint16_t PMSA003::pm25_st()
{
    return _datBuffer[2];
}
   d5508:	8880      	ldrh	r0, [r0, #4]
   d550a:	4770      	bx	lr

000d550c <_ZN7PMSA0038pm100_stEv>:

const uint16_t PMSA003::pm100_st()
{
    return _datBuffer[3];
}
   d550c:	88c0      	ldrh	r0, [r0, #6]
   d550e:	4770      	bx	lr

000d5510 <_ZN7PMSA0038pm10_envEv>:

const uint16_t PMSA003::pm10_env()
{
    return _datBuffer[4];
}
   d5510:	8900      	ldrh	r0, [r0, #8]
   d5512:	4770      	bx	lr

000d5514 <_ZN7PMSA0038pm25_envEv>:

const uint16_t PMSA003::pm25_env()
{
    return _datBuffer[5];
}
   d5514:	8940      	ldrh	r0, [r0, #10]
   d5516:	4770      	bx	lr

000d5518 <_ZN7PMSA0039pm100_envEv>:

const uint16_t PMSA003::pm100_env()
{
    return _datBuffer[6];
}
   d5518:	8980      	ldrh	r0, [r0, #12]
   d551a:	4770      	bx	lr

000d551c <_ZN7PMSA0035pt_03Ev>:

const uint16_t PMSA003::pt_03()
{
    return _datBuffer[7];
}
   d551c:	89c0      	ldrh	r0, [r0, #14]
   d551e:	4770      	bx	lr

000d5520 <_ZN7PMSA0035pt_05Ev>:

const uint16_t PMSA003::pt_05()
{
    return _datBuffer[8];
}
   d5520:	8a00      	ldrh	r0, [r0, #16]
   d5522:	4770      	bx	lr

000d5524 <_ZN7PMSA0035pt_10Ev>:

const uint16_t PMSA003::pt_10()
{
    return _datBuffer[9];
}
   d5524:	8a40      	ldrh	r0, [r0, #18]
   d5526:	4770      	bx	lr

000d5528 <_ZN7PMSA0035pt_25Ev>:

const uint16_t PMSA003::pt_25()
{
    return _datBuffer[10];
}
   d5528:	8a80      	ldrh	r0, [r0, #20]
   d552a:	4770      	bx	lr

000d552c <_ZN7PMSA0035pt_50Ev>:

const uint16_t PMSA003::pt_50()
{
    return _datBuffer[11];
}
   d552c:	8ac0      	ldrh	r0, [r0, #22]
   d552e:	4770      	bx	lr

000d5530 <_ZN7PMSA0036pt_100Ev>:

const uint16_t PMSA003::pt_100()
{
    return _datBuffer[12];
}
   d5530:	8b00      	ldrh	r0, [r0, #24]
   d5532:	4770      	bx	lr

000d5534 <_ZN12Adafruit_GFX9writeLineEsssst>:
    @param    y1  End point y coordinate
    @param    color 16-bit 5-6-5 Color to draw with
*/
/**************************************************************************/
void Adafruit_GFX::writeLine(int16_t x0, int16_t y0, int16_t x1, int16_t y1,
        uint16_t color) {
   d5534:	e92d 4ff0 	stmdb	sp!, {r4, r5, r6, r7, r8, r9, sl, fp, lr}
   d5538:	b085      	sub	sp, #20
   d553a:	461f      	mov	r7, r3
   d553c:	f9bd 8038 	ldrsh.w	r8, [sp, #56]	; 0x38
   d5540:	f8bd 303c 	ldrh.w	r3, [sp, #60]	; 0x3c
    int16_t steep = abs(y1 - y0) > abs(x1 - x0);
   d5544:	eba8 0902 	sub.w	r9, r8, r2
   d5548:	eba7 0a01 	sub.w	sl, r7, r1
   d554c:	f1b9 0f00 	cmp.w	r9, #0
   d5550:	bfb8      	it	lt
   d5552:	f1c9 0900 	rsblt	r9, r9, #0
   d5556:	f1ba 0f00 	cmp.w	sl, #0
   d555a:	bfb8      	it	lt
   d555c:	f1ca 0a00 	rsblt	sl, sl, #0
    if (steep) {
   d5560:	45d1      	cmp	r9, sl
        uint16_t color) {
   d5562:	4683      	mov	fp, r0
   d5564:	460c      	mov	r4, r1
   d5566:	4615      	mov	r5, r2
    if (steep) {
   d5568:	dd04      	ble.n	d5574 <_ZN12Adafruit_GFX9writeLineEsssst+0x40>
   d556a:	463a      	mov	r2, r7
        _swap_int16_t(x0, y0);
   d556c:	462c      	mov	r4, r5
        _swap_int16_t(x1, y1);
   d556e:	4647      	mov	r7, r8
        _swap_int16_t(x0, y0);
   d5570:	460d      	mov	r5, r1
        _swap_int16_t(x1, y1);
   d5572:	4690      	mov	r8, r2
    }

    if (x0 > x1) {
   d5574:	42bc      	cmp	r4, r7
   d5576:	dd05      	ble.n	d5584 <_ZN12Adafruit_GFX9writeLineEsssst+0x50>
   d5578:	462a      	mov	r2, r5
        _swap_int16_t(x0, x1);
        _swap_int16_t(y0, y1);
   d557a:	4645      	mov	r5, r8
   d557c:	4690      	mov	r8, r2
    if (x0 > x1) {
   d557e:	4622      	mov	r2, r4
   d5580:	463c      	mov	r4, r7
   d5582:	4617      	mov	r7, r2
    }

    int16_t dx, dy;
    dx = x1 - x0;
   d5584:	1b3e      	subs	r6, r7, r4
   d5586:	b2b2      	uxth	r2, r6
   d5588:	9200      	str	r2, [sp, #0]
    dy = abs(y1 - y0);
   d558a:	eba8 0205 	sub.w	r2, r8, r5
   d558e:	2a00      	cmp	r2, #0
   d5590:	bfb8      	it	lt
   d5592:	4252      	neglt	r2, r2
   d5594:	9201      	str	r2, [sp, #4]

    int16_t err = dx / 2;
   d5596:	f3c6 32c0 	ubfx	r2, r6, #15, #1
   d559a:	fa02 f686 	sxtah	r6, r2, r6
    int16_t ystep;

    if (y0 < y1) {
        ystep = 1;
    } else {
        ystep = -1;
   d559e:	4545      	cmp	r5, r8
   d55a0:	bfb4      	ite	lt
   d55a2:	2201      	movlt	r2, #1
   d55a4:	f04f 32ff 	movge.w	r2, #4294967295
    int16_t err = dx / 2;
   d55a8:	1076      	asrs	r6, r6, #1
        ystep = -1;
   d55aa:	9202      	str	r2, [sp, #8]
    }

    for (; x0<=x1; x0++) {
   d55ac:	42bc      	cmp	r4, r7
   d55ae:	dc1c      	bgt.n	d55ea <_ZN12Adafruit_GFX9writeLineEsssst+0xb6>
        if (steep) {
   d55b0:	f8db 2000 	ldr.w	r2, [fp]
            writePixel(y0, x0, color);
   d55b4:	9303      	str	r3, [sp, #12]
        if (steep) {
   d55b6:	45d1      	cmp	r9, sl
            writePixel(y0, x0, color);
   d55b8:	f8d2 8018 	ldr.w	r8, [r2, #24]
   d55bc:	bfc7      	ittee	gt
   d55be:	4629      	movgt	r1, r5
   d55c0:	4622      	movgt	r2, r4
        } else {
            writePixel(x0, y0, color);
   d55c2:	462a      	movle	r2, r5
   d55c4:	4621      	movle	r1, r4
   d55c6:	4658      	mov	r0, fp
   d55c8:	47c0      	blx	r8
        }
        err -= dy;
   d55ca:	9a01      	ldr	r2, [sp, #4]
            writePixel(x0, y0, color);
   d55cc:	9b03      	ldr	r3, [sp, #12]
        err -= dy;
   d55ce:	1ab6      	subs	r6, r6, r2
   d55d0:	b2b1      	uxth	r1, r6
   d55d2:	b236      	sxth	r6, r6
        if (err < 0) {
   d55d4:	2e00      	cmp	r6, #0
   d55d6:	da05      	bge.n	d55e4 <_ZN12Adafruit_GFX9writeLineEsssst+0xb0>
            y0 += ystep;
   d55d8:	9a02      	ldr	r2, [sp, #8]
   d55da:	4415      	add	r5, r2
            err += dx;
   d55dc:	9a00      	ldr	r2, [sp, #0]
   d55de:	1856      	adds	r6, r2, r1
            y0 += ystep;
   d55e0:	b22d      	sxth	r5, r5
            err += dx;
   d55e2:	b236      	sxth	r6, r6
    for (; x0<=x1; x0++) {
   d55e4:	3401      	adds	r4, #1
   d55e6:	b224      	sxth	r4, r4
   d55e8:	e7e0      	b.n	d55ac <_ZN12Adafruit_GFX9writeLineEsssst+0x78>
        }
    }
}
   d55ea:	b005      	add	sp, #20
   d55ec:	e8bd 8ff0 	ldmia.w	sp!, {r4, r5, r6, r7, r8, r9, sl, fp, pc}

000d55f0 <_ZN12Adafruit_GFX10startWriteEv>:
/*!
   @brief    Start a display-writing routine, overwrite in subclasses.
*/
/**************************************************************************/
void Adafruit_GFX::startWrite(){
}
   d55f0:	4770      	bx	lr

000d55f2 <_ZN12Adafruit_GFX10writePixelEsst>:
    @param   x   x coordinate
    @param   y   y coordinate
   @param    color 16-bit 5-6-5 Color to fill with
*/
/**************************************************************************/
void Adafruit_GFX::writePixel(int16_t x, int16_t y, uint16_t color){
   d55f2:	b410      	push	{r4}
    drawPixel(x, y, color);
   d55f4:	6804      	ldr	r4, [r0, #0]
   d55f6:	6924      	ldr	r4, [r4, #16]
   d55f8:	46a4      	mov	ip, r4
}
   d55fa:	f85d 4b04 	ldr.w	r4, [sp], #4
    drawPixel(x, y, color);
   d55fe:	4760      	bx	ip

000d5600 <_ZN12Adafruit_GFX14writeFastVLineEssst>:
    @param    h   Height in pixels
   @param    color 16-bit 5-6-5 Color to fill with
*/
/**************************************************************************/
void Adafruit_GFX::writeFastVLine(int16_t x, int16_t y,
        int16_t h, uint16_t color) {
   d5600:	b430      	push	{r4, r5}
    // Overwrite in subclasses if startWrite is defined!
    // Can be just writeLine(x, y, x, y+h-1, color);
    // or writeFillRect(x, y, 1, h, color);
    drawFastVLine(x, y, h, color);
   d5602:	6804      	ldr	r4, [r0, #0]
        int16_t h, uint16_t color) {
   d5604:	f8bd 5008 	ldrh.w	r5, [sp, #8]
    drawFastVLine(x, y, h, color);
   d5608:	9502      	str	r5, [sp, #8]
   d560a:	6ba4      	ldr	r4, [r4, #56]	; 0x38
   d560c:	46a4      	mov	ip, r4
}
   d560e:	bc30      	pop	{r4, r5}
    drawFastVLine(x, y, h, color);
   d5610:	4760      	bx	ip

000d5612 <_ZN12Adafruit_GFX14writeFastHLineEssst>:
    @param    w   Width in pixels
   @param    color 16-bit 5-6-5 Color to fill with
*/
/**************************************************************************/
void Adafruit_GFX::writeFastHLine(int16_t x, int16_t y,
        int16_t w, uint16_t color) {
   d5612:	b430      	push	{r4, r5}
    // Overwrite in subclasses if startWrite is defined!
    // Example: writeLine(x, y, x+w-1, y, color);
    // or writeFillRect(x, y, w, 1, color);
    drawFastHLine(x, y, w, color);
   d5614:	6804      	ldr	r4, [r0, #0]
        int16_t w, uint16_t color) {
   d5616:	f8bd 5008 	ldrh.w	r5, [sp, #8]
    drawFastHLine(x, y, w, color);
   d561a:	9502      	str	r5, [sp, #8]
   d561c:	6be4      	ldr	r4, [r4, #60]	; 0x3c
   d561e:	46a4      	mov	ip, r4
}
   d5620:	bc30      	pop	{r4, r5}
    drawFastHLine(x, y, w, color);
   d5622:	4760      	bx	ip

000d5624 <_ZN12Adafruit_GFX13writeFillRectEsssst>:
    @param    h   Height in pixels
   @param    color 16-bit 5-6-5 Color to fill with
*/
/**************************************************************************/
void Adafruit_GFX::writeFillRect(int16_t x, int16_t y, int16_t w, int16_t h,
        uint16_t color) {
   d5624:	b470      	push	{r4, r5, r6}
   d5626:	f9bd 500c 	ldrsh.w	r5, [sp, #12]
   d562a:	f8bd 6010 	ldrh.w	r6, [sp, #16]
    // Overwrite in subclasses if desired!
    fillRect(x,y,w,h,color);
   d562e:	6804      	ldr	r4, [r0, #0]
   d5630:	e9cd 5603 	strd	r5, r6, [sp, #12]
   d5634:	6c24      	ldr	r4, [r4, #64]	; 0x40
   d5636:	46a4      	mov	ip, r4
}
   d5638:	bc70      	pop	{r4, r5, r6}
    fillRect(x,y,w,h,color);
   d563a:	4760      	bx	ip

000d563c <_ZN12Adafruit_GFX13drawFastVLineEssst>:
    @param    h   Height in pixels
   @param    color 16-bit 5-6-5 Color to fill with
*/
/**************************************************************************/
void Adafruit_GFX::drawFastVLine(int16_t x, int16_t y,
        int16_t h, uint16_t color) {
   d563c:	e92d 41f3 	stmdb	sp!, {r0, r1, r4, r5, r6, r7, r8, lr}
   d5640:	461c      	mov	r4, r3
    startWrite();
   d5642:	6803      	ldr	r3, [r0, #0]
        int16_t h, uint16_t color) {
   d5644:	f8bd 8020 	ldrh.w	r8, [sp, #32]
    startWrite();
   d5648:	695b      	ldr	r3, [r3, #20]
        int16_t h, uint16_t color) {
   d564a:	4605      	mov	r5, r0
   d564c:	4616      	mov	r6, r2
    writeLine(x, y, x, y+h-1, color);
   d564e:	3c01      	subs	r4, #1
   d5650:	4434      	add	r4, r6
        int16_t h, uint16_t color) {
   d5652:	460f      	mov	r7, r1
    writeLine(x, y, x, y+h-1, color);
   d5654:	b224      	sxth	r4, r4
    startWrite();
   d5656:	4798      	blx	r3
    writeLine(x, y, x, y+h-1, color);
   d5658:	682b      	ldr	r3, [r5, #0]
   d565a:	f8cd 8004 	str.w	r8, [sp, #4]
   d565e:	9400      	str	r4, [sp, #0]
   d5660:	6a9c      	ldr	r4, [r3, #40]	; 0x28
   d5662:	4628      	mov	r0, r5
   d5664:	463b      	mov	r3, r7
   d5666:	4632      	mov	r2, r6
   d5668:	4639      	mov	r1, r7
   d566a:	47a0      	blx	r4
    endWrite();
   d566c:	682b      	ldr	r3, [r5, #0]
   d566e:	6adb      	ldr	r3, [r3, #44]	; 0x2c
   d5670:	4628      	mov	r0, r5
}
   d5672:	b002      	add	sp, #8
   d5674:	e8bd 41f0 	ldmia.w	sp!, {r4, r5, r6, r7, r8, lr}
    endWrite();
   d5678:	4718      	bx	r3

000d567a <_ZN12Adafruit_GFX13drawFastHLineEssst>:
    @param    w   Width in pixels
   @param    color 16-bit 5-6-5 Color to fill with
*/
/**************************************************************************/
void Adafruit_GFX::drawFastHLine(int16_t x, int16_t y,
        int16_t w, uint16_t color) {
   d567a:	e92d 41f3 	stmdb	sp!, {r0, r1, r4, r5, r6, r7, r8, lr}
   d567e:	461d      	mov	r5, r3
    startWrite();
   d5680:	6803      	ldr	r3, [r0, #0]
        int16_t w, uint16_t color) {
   d5682:	f8bd 8020 	ldrh.w	r8, [sp, #32]
    startWrite();
   d5686:	695b      	ldr	r3, [r3, #20]
        int16_t w, uint16_t color) {
   d5688:	4604      	mov	r4, r0
   d568a:	4617      	mov	r7, r2
   d568c:	460e      	mov	r6, r1
    startWrite();
   d568e:	4798      	blx	r3
    writeLine(x, y, x+w-1, y, color);
   d5690:	e9cd 7800 	strd	r7, r8, [sp]
   d5694:	6822      	ldr	r2, [r4, #0]
   d5696:	1e6b      	subs	r3, r5, #1
   d5698:	4433      	add	r3, r6
   d569a:	6a95      	ldr	r5, [r2, #40]	; 0x28
   d569c:	4620      	mov	r0, r4
   d569e:	b21b      	sxth	r3, r3
   d56a0:	463a      	mov	r2, r7
   d56a2:	4631      	mov	r1, r6
   d56a4:	47a8      	blx	r5
    endWrite();
   d56a6:	6823      	ldr	r3, [r4, #0]
   d56a8:	6adb      	ldr	r3, [r3, #44]	; 0x2c
   d56aa:	4620      	mov	r0, r4
}
   d56ac:	b002      	add	sp, #8
   d56ae:	e8bd 41f0 	ldmia.w	sp!, {r4, r5, r6, r7, r8, lr}
    endWrite();
   d56b2:	4718      	bx	r3

000d56b4 <_ZN12Adafruit_GFX8fillRectEsssst>:
    @param    h   Height in pixels
   @param    color 16-bit 5-6-5 Color to fill with
*/
/**************************************************************************/
void Adafruit_GFX::fillRect(int16_t x, int16_t y, int16_t w, int16_t h,
        uint16_t color) {
   d56b4:	e92d 47f3 	stmdb	sp!, {r0, r1, r4, r5, r6, r7, r8, r9, sl, lr}
   d56b8:	461e      	mov	r6, r3
    startWrite();
   d56ba:	6803      	ldr	r3, [r0, #0]
        uint16_t color) {
   d56bc:	f9bd 9028 	ldrsh.w	r9, [sp, #40]	; 0x28
    startWrite();
   d56c0:	695b      	ldr	r3, [r3, #20]
        uint16_t color) {
   d56c2:	f8bd 802c 	ldrh.w	r8, [sp, #44]	; 0x2c
   d56c6:	460c      	mov	r4, r1
   d56c8:	4605      	mov	r5, r0
   d56ca:	4617      	mov	r7, r2
    startWrite();
   d56cc:	4798      	blx	r3
    for (int16_t i=x; i<x+w; i++) {
   d56ce:	4426      	add	r6, r4
   d56d0:	42b4      	cmp	r4, r6
   d56d2:	682b      	ldr	r3, [r5, #0]
   d56d4:	da0b      	bge.n	d56ee <_ZN12Adafruit_GFX8fillRectEsssst+0x3a>
        writeFastVLine(i, y, h, color);
   d56d6:	f8cd 8000 	str.w	r8, [sp]
   d56da:	f8d3 a020 	ldr.w	sl, [r3, #32]
   d56de:	4621      	mov	r1, r4
   d56e0:	464b      	mov	r3, r9
   d56e2:	463a      	mov	r2, r7
   d56e4:	4628      	mov	r0, r5
   d56e6:	3401      	adds	r4, #1
   d56e8:	47d0      	blx	sl
    for (int16_t i=x; i<x+w; i++) {
   d56ea:	b224      	sxth	r4, r4
   d56ec:	e7f0      	b.n	d56d0 <_ZN12Adafruit_GFX8fillRectEsssst+0x1c>
    }
    endWrite();
   d56ee:	6adb      	ldr	r3, [r3, #44]	; 0x2c
   d56f0:	4628      	mov	r0, r5
}
   d56f2:	b002      	add	sp, #8
   d56f4:	e8bd 47f0 	ldmia.w	sp!, {r4, r5, r6, r7, r8, r9, sl, lr}
    endWrite();
   d56f8:	4718      	bx	r3

000d56fa <_ZN12Adafruit_GFX10fillScreenEt>:
/*!
   @brief    Fill the screen completely with one color. Update in subclasses if desired!
    @param    color 16-bit 5-6-5 Color to fill with
*/
/**************************************************************************/
void Adafruit_GFX::fillScreen(uint16_t color) {
   d56fa:	b513      	push	{r0, r1, r4, lr}
    fillRect(0, 0, _width, _height, color);
   d56fc:	6802      	ldr	r2, [r0, #0]
   d56fe:	9101      	str	r1, [sp, #4]
   d5700:	f9b0 100e 	ldrsh.w	r1, [r0, #14]
   d5704:	9100      	str	r1, [sp, #0]
   d5706:	6c14      	ldr	r4, [r2, #64]	; 0x40
   d5708:	f9b0 300c 	ldrsh.w	r3, [r0, #12]
   d570c:	2200      	movs	r2, #0
   d570e:	4611      	mov	r1, r2
   d5710:	47a0      	blx	r4
}
   d5712:	b002      	add	sp, #8
   d5714:	bd10      	pop	{r4, pc}

000d5716 <_ZN12Adafruit_GFX8drawRectEsssst>:
    @param    h   Height in pixels
    @param    color 16-bit 5-6-5 Color to draw with
*/
/**************************************************************************/
void Adafruit_GFX::drawRect(int16_t x, int16_t y, int16_t w, int16_t h,
        uint16_t color) {
   d5716:	e92d 47f3 	stmdb	sp!, {r0, r1, r4, r5, r6, r7, r8, r9, sl, lr}
   d571a:	461d      	mov	r5, r3
    startWrite();
   d571c:	6803      	ldr	r3, [r0, #0]
        uint16_t color) {
   d571e:	f8bd 802c 	ldrh.w	r8, [sp, #44]	; 0x2c
    startWrite();
   d5722:	695b      	ldr	r3, [r3, #20]
        uint16_t color) {
   d5724:	f9bd 9028 	ldrsh.w	r9, [sp, #40]	; 0x28
   d5728:	4604      	mov	r4, r0
   d572a:	460f      	mov	r7, r1
   d572c:	4616      	mov	r6, r2
    startWrite();
   d572e:	4798      	blx	r3
    writeFastHLine(x, y, w, color);
   d5730:	6823      	ldr	r3, [r4, #0]
   d5732:	f8cd 8000 	str.w	r8, [sp]
   d5736:	f8d3 a024 	ldr.w	sl, [r3, #36]	; 0x24
   d573a:	4632      	mov	r2, r6
   d573c:	462b      	mov	r3, r5
   d573e:	4639      	mov	r1, r7
   d5740:	4620      	mov	r0, r4
   d5742:	47d0      	blx	sl
    writeFastHLine(x, y+h-1, w, color);
   d5744:	6823      	ldr	r3, [r4, #0]
   d5746:	f8cd 8000 	str.w	r8, [sp]
   d574a:	f109 32ff 	add.w	r2, r9, #4294967295
   d574e:	4432      	add	r2, r6
   d5750:	f8d3 a024 	ldr.w	sl, [r3, #36]	; 0x24
   d5754:	4639      	mov	r1, r7
   d5756:	462b      	mov	r3, r5
   d5758:	4620      	mov	r0, r4
   d575a:	b212      	sxth	r2, r2
   d575c:	47d0      	blx	sl
    writeFastVLine(x, y, h, color);
   d575e:	6823      	ldr	r3, [r4, #0]
   d5760:	f8cd 8000 	str.w	r8, [sp]
   d5764:	f8d3 a020 	ldr.w	sl, [r3, #32]
   d5768:	4632      	mov	r2, r6
   d576a:	464b      	mov	r3, r9
   d576c:	4639      	mov	r1, r7
   d576e:	4620      	mov	r0, r4
   d5770:	47d0      	blx	sl
    writeFastVLine(x+w-1, y, h, color);
   d5772:	1e6b      	subs	r3, r5, #1
   d5774:	19d9      	adds	r1, r3, r7
   d5776:	6823      	ldr	r3, [r4, #0]
   d5778:	f8cd 8000 	str.w	r8, [sp]
   d577c:	6a1d      	ldr	r5, [r3, #32]
   d577e:	4620      	mov	r0, r4
   d5780:	464b      	mov	r3, r9
   d5782:	4632      	mov	r2, r6
   d5784:	b209      	sxth	r1, r1
   d5786:	47a8      	blx	r5
    endWrite();
   d5788:	6823      	ldr	r3, [r4, #0]
   d578a:	6adb      	ldr	r3, [r3, #44]	; 0x2c
   d578c:	4620      	mov	r0, r4
}
   d578e:	b002      	add	sp, #8
   d5790:	e8bd 47f0 	ldmia.w	sp!, {r4, r5, r6, r7, r8, r9, sl, lr}
    endWrite();
   d5794:	4718      	bx	r3

000d5796 <_ZN12Adafruit_GFX13invertDisplayEb>:
    @param   i  True if you want to invert, false to make 'normal'
*/
/**************************************************************************/
void Adafruit_GFX::invertDisplay(boolean i) {
    // Do nothing, must be subclassed if supported by hardware
}
   d5796:	4770      	bx	lr

000d5798 <_ZN12Adafruit_GFX8drawLineEsssst>:
        uint16_t color) {
   d5798:	e92d 43f7 	stmdb	sp!, {r0, r1, r2, r4, r5, r6, r7, r8, r9, lr}
    if(x0 == x1){
   d579c:	4299      	cmp	r1, r3
        uint16_t color) {
   d579e:	4616      	mov	r6, r2
   d57a0:	f9bd 7028 	ldrsh.w	r7, [sp, #40]	; 0x28
   d57a4:	f8bd 902c 	ldrh.w	r9, [sp, #44]	; 0x2c
   d57a8:	6802      	ldr	r2, [r0, #0]
   d57aa:	4680      	mov	r8, r0
   d57ac:	460d      	mov	r5, r1
   d57ae:	461c      	mov	r4, r3
    if(x0 == x1){
   d57b0:	d113      	bne.n	d57da <_ZN12Adafruit_GFX8drawLineEsssst+0x42>
        if(y0 > y1) _swap_int16_t(y0, y1);
   d57b2:	42be      	cmp	r6, r7
   d57b4:	bfc8      	it	gt
   d57b6:	4633      	movgt	r3, r6
        drawFastVLine(x0, y0, y1 - y0 + 1, color);
   d57b8:	f8cd 9028 	str.w	r9, [sp, #40]	; 0x28
        if(y0 > y1) _swap_int16_t(y0, y1);
   d57bc:	bfc4      	itt	gt
   d57be:	463e      	movgt	r6, r7
   d57c0:	461f      	movgt	r7, r3
        drawFastVLine(x0, y0, y1 - y0 + 1, color);
   d57c2:	1c7b      	adds	r3, r7, #1
   d57c4:	6b94      	ldr	r4, [r2, #56]	; 0x38
   d57c6:	1b9b      	subs	r3, r3, r6
        drawFastHLine(x0, y0, x1 - x0 + 1, color);
   d57c8:	b21b      	sxth	r3, r3
   d57ca:	4632      	mov	r2, r6
   d57cc:	4629      	mov	r1, r5
   d57ce:	4640      	mov	r0, r8
   d57d0:	46a4      	mov	ip, r4
}
   d57d2:	b003      	add	sp, #12
   d57d4:	e8bd 43f0 	ldmia.w	sp!, {r4, r5, r6, r7, r8, r9, lr}
        drawFastHLine(x0, y0, x1 - x0 + 1, color);
   d57d8:	4760      	bx	ip
    } else if(y0 == y1){
   d57da:	42be      	cmp	r6, r7
   d57dc:	d10a      	bne.n	d57f4 <_ZN12Adafruit_GFX8drawLineEsssst+0x5c>
        if(x0 > x1) _swap_int16_t(x0, x1);
   d57de:	4299      	cmp	r1, r3
   d57e0:	bfc2      	ittt	gt
   d57e2:	460b      	movgt	r3, r1
   d57e4:	4625      	movgt	r5, r4
   d57e6:	461c      	movgt	r4, r3
        drawFastHLine(x0, y0, x1 - x0 + 1, color);
   d57e8:	1c63      	adds	r3, r4, #1
   d57ea:	f8cd 9028 	str.w	r9, [sp, #40]	; 0x28
   d57ee:	6bd4      	ldr	r4, [r2, #60]	; 0x3c
   d57f0:	1b5b      	subs	r3, r3, r5
   d57f2:	e7e9      	b.n	d57c8 <_ZN12Adafruit_GFX8drawLineEsssst+0x30>
        startWrite();
   d57f4:	6953      	ldr	r3, [r2, #20]
   d57f6:	4798      	blx	r3
        writeLine(x0, y0, x1, y1, color);
   d57f8:	e9cd 7900 	strd	r7, r9, [sp]
   d57fc:	f8d8 3000 	ldr.w	r3, [r8]
   d5800:	4640      	mov	r0, r8
   d5802:	6a9f      	ldr	r7, [r3, #40]	; 0x28
   d5804:	4632      	mov	r2, r6
   d5806:	4623      	mov	r3, r4
   d5808:	4629      	mov	r1, r5
   d580a:	47b8      	blx	r7
        endWrite();
   d580c:	f8d8 3000 	ldr.w	r3, [r8]
   d5810:	6adb      	ldr	r3, [r3, #44]	; 0x2c
   d5812:	4640      	mov	r0, r8
}
   d5814:	b003      	add	sp, #12
   d5816:	e8bd 43f0 	ldmia.w	sp!, {r4, r5, r6, r7, r8, r9, lr}
        endWrite();
   d581a:	4718      	bx	r3

000d581c <_ZN12Adafruit_GFX11setRotationEh>:
    rotation = (x & 3);
   d581c:	f001 0303 	and.w	r3, r1, #3
   d5820:	f9b0 200a 	ldrsh.w	r2, [r0, #10]
   d5824:	7643      	strb	r3, [r0, #25]
    switch(rotation) {
   d5826:	07c9      	lsls	r1, r1, #31
            _width  = WIDTH;
   d5828:	f9b0 3008 	ldrsh.w	r3, [r0, #8]
   d582c:	bf59      	ittee	pl
   d582e:	8183      	strhpl	r3, [r0, #12]
            _height = HEIGHT;
   d5830:	81c2      	strhpl	r2, [r0, #14]
            _width  = HEIGHT;
   d5832:	8182      	strhmi	r2, [r0, #12]
            _height = WIDTH;
   d5834:	81c3      	strhmi	r3, [r0, #14]
}
   d5836:	4770      	bx	lr

000d5838 <_ZN12Adafruit_GFXC1Ess>:
Adafruit_GFX::Adafruit_GFX(int16_t w, int16_t h):
   d5838:	b530      	push	{r4, r5, lr}
WIDTH(w), HEIGHT(h)
   d583a:	8101      	strh	r1, [r0, #8]
   d583c:	2400      	movs	r4, #0
   d583e:	4d07      	ldr	r5, [pc, #28]	; (d585c <_ZN12Adafruit_GFXC1Ess+0x24>)
   d5840:	8142      	strh	r2, [r0, #10]
    _width    = WIDTH;
   d5842:	8181      	strh	r1, [r0, #12]
    _height   = HEIGHT;
   d5844:	81c2      	strh	r2, [r0, #14]
    textsize  = 1;
   d5846:	f04f 31ff 	mov.w	r1, #4294967295
   d584a:	f04f 1201 	mov.w	r2, #65537	; 0x10001
   d584e:	e9c0 1205 	strd	r1, r2, [r0, #20]
   d5852:	6044      	str	r4, [r0, #4]
WIDTH(w), HEIGHT(h)
   d5854:	6005      	str	r5, [r0, #0]
    cursor_y  = cursor_x    = 0;
   d5856:	6104      	str	r4, [r0, #16]
    gfxFont   = NULL;
   d5858:	61c4      	str	r4, [r0, #28]
}
   d585a:	bd30      	pop	{r4, r5, pc}
   d585c:	000de804 	.word	0x000de804

000d5860 <_ZN12Adafruit_GFX10drawBitmapEssPKhsst>:
  const uint8_t bitmap[], int16_t w, int16_t h, uint16_t color) {
   d5860:	e92d 4ff0 	stmdb	sp!, {r4, r5, r6, r7, r8, r9, sl, fp, lr}
   d5864:	b089      	sub	sp, #36	; 0x24
   d5866:	e9cd 1202 	strd	r1, r2, [sp, #8]
    startWrite();
   d586a:	6802      	ldr	r2, [r0, #0]
  const uint8_t bitmap[], int16_t w, int16_t h, uint16_t color) {
   d586c:	f9bd 8048 	ldrsh.w	r8, [sp, #72]	; 0x48
   d5870:	9304      	str	r3, [sp, #16]
   d5872:	f9bd 304c 	ldrsh.w	r3, [sp, #76]	; 0x4c
    startWrite();
   d5876:	6952      	ldr	r2, [r2, #20]
  const uint8_t bitmap[], int16_t w, int16_t h, uint16_t color) {
   d5878:	9305      	str	r3, [sp, #20]
   d587a:	f8bd a050 	ldrh.w	sl, [sp, #80]	; 0x50
   d587e:	4604      	mov	r4, r0
    startWrite();
   d5880:	4790      	blx	r2
    int16_t byteWidth = (w + 7) / 8; // Bitmap scanline pad = whole byte
   d5882:	f118 0207 	adds.w	r2, r8, #7
    startWrite();
   d5886:	f04f 0600 	mov.w	r6, #0
    int16_t byteWidth = (w + 7) / 8; // Bitmap scanline pad = whole byte
   d588a:	bf48      	it	mi
   d588c:	f108 020e 	addmi.w	r2, r8, #14
   d5890:	ea4f 0be2 	mov.w	fp, r2, asr #3
    startWrite();
   d5894:	9601      	str	r6, [sp, #4]
    uint8_t byte = 0;
   d5896:	4635      	mov	r5, r6
   d5898:	9b03      	ldr	r3, [sp, #12]
   d589a:	9a01      	ldr	r2, [sp, #4]
    for(int16_t j=0; j<h; j++, y++) {
   d589c:	f9bd 1004 	ldrsh.w	r1, [sp, #4]
   d58a0:	189a      	adds	r2, r3, r2
   d58a2:	9b05      	ldr	r3, [sp, #20]
   d58a4:	428b      	cmp	r3, r1
   d58a6:	b212      	sxth	r2, r2
   d58a8:	dd27      	ble.n	d58fa <_ZN12Adafruit_GFX10drawBitmapEssPKhsst+0x9a>
            else      byte   = pgm_read_byte(&bitmap[j * byteWidth + i / 8]);
   d58aa:	9b04      	ldr	r3, [sp, #16]
   d58ac:	4433      	add	r3, r6
    for(int16_t j=0; j<h; j++, y++) {
   d58ae:	f04f 0900 	mov.w	r9, #0
            else      byte   = pgm_read_byte(&bitmap[j * byteWidth + i / 8]);
   d58b2:	9306      	str	r3, [sp, #24]
   d58b4:	fa0f f089 	sxth.w	r0, r9
        for(int16_t i=0; i<w; i++) {
   d58b8:	4580      	cmp	r8, r0
   d58ba:	fa1f f189 	uxth.w	r1, r9
   d58be:	dd17      	ble.n	d58f0 <_ZN12Adafruit_GFX10drawBitmapEssPKhsst+0x90>
            if(i & 7) byte <<= 1;
   d58c0:	074f      	lsls	r7, r1, #29
            else      byte   = pgm_read_byte(&bitmap[j * byteWidth + i / 8]);
   d58c2:	bf05      	ittet	eq
   d58c4:	9b06      	ldreq	r3, [sp, #24]
   d58c6:	10c0      	asreq	r0, r0, #3
            if(i & 7) byte <<= 1;
   d58c8:	006d      	lslne	r5, r5, #1
            else      byte   = pgm_read_byte(&bitmap[j * byteWidth + i / 8]);
   d58ca:	5c1d      	ldrbeq	r5, [r3, r0]
            if(i & 7) byte <<= 1;
   d58cc:	bf18      	it	ne
   d58ce:	b2ed      	uxtbne	r5, r5
            if(byte & 0x80) writePixel(x+i, y, color);
   d58d0:	062b      	lsls	r3, r5, #24
   d58d2:	d50a      	bpl.n	d58ea <_ZN12Adafruit_GFX10drawBitmapEssPKhsst+0x8a>
   d58d4:	9b02      	ldr	r3, [sp, #8]
   d58d6:	6820      	ldr	r0, [r4, #0]
   d58d8:	9207      	str	r2, [sp, #28]
   d58da:	4419      	add	r1, r3
   d58dc:	6983      	ldr	r3, [r0, #24]
   d58de:	b209      	sxth	r1, r1
   d58e0:	461f      	mov	r7, r3
   d58e2:	4620      	mov	r0, r4
   d58e4:	4653      	mov	r3, sl
   d58e6:	47b8      	blx	r7
   d58e8:	9a07      	ldr	r2, [sp, #28]
        for(int16_t i=0; i<w; i++) {
   d58ea:	f109 0901 	add.w	r9, r9, #1
   d58ee:	e7e1      	b.n	d58b4 <_ZN12Adafruit_GFX10drawBitmapEssPKhsst+0x54>
    for(int16_t j=0; j<h; j++, y++) {
   d58f0:	9b01      	ldr	r3, [sp, #4]
   d58f2:	3301      	adds	r3, #1
   d58f4:	9301      	str	r3, [sp, #4]
   d58f6:	445e      	add	r6, fp
   d58f8:	e7ce      	b.n	d5898 <_ZN12Adafruit_GFX10drawBitmapEssPKhsst+0x38>
    endWrite();
   d58fa:	6823      	ldr	r3, [r4, #0]
   d58fc:	6adb      	ldr	r3, [r3, #44]	; 0x2c
   d58fe:	4620      	mov	r0, r4
}
   d5900:	b009      	add	sp, #36	; 0x24
   d5902:	e8bd 4ff0 	ldmia.w	sp!, {r4, r5, r6, r7, r8, r9, sl, fp, lr}
    endWrite();
   d5906:	4718      	bx	r3

000d5908 <_ZN12Adafruit_GFX8drawCharEsshtth>:
  uint16_t color, uint16_t bg, uint8_t size) {
   d5908:	e92d 4ff0 	stmdb	sp!, {r4, r5, r6, r7, r8, r9, sl, fp, lr}
   d590c:	ed2d 8b02 	vpush	{d8}
   d5910:	b091      	sub	sp, #68	; 0x44
   d5912:	4616      	mov	r6, r2
    if(!gfxFont) { // 'Classic' built-in font
   d5914:	69c2      	ldr	r2, [r0, #28]
  uint16_t color, uint16_t bg, uint8_t size) {
   d5916:	f8bd 7074 	ldrh.w	r7, [sp, #116]	; 0x74
   d591a:	f89d 4078 	ldrb.w	r4, [sp, #120]	; 0x78
   d591e:	4698      	mov	r8, r3
   d5920:	f8bd 3070 	ldrh.w	r3, [sp, #112]	; 0x70
   d5924:	9302      	str	r3, [sp, #8]
   d5926:	4682      	mov	sl, r0
   d5928:	460d      	mov	r5, r1
    if(!gfxFont) { // 'Classic' built-in font
   d592a:	2a00      	cmp	r2, #0
   d592c:	f040 80b7 	bne.w	d5a9e <_ZN12Adafruit_GFX8drawCharEsshtth+0x196>
        if((x >= _width)            || // Clip right
   d5930:	f9b0 300c 	ldrsh.w	r3, [r0, #12]
   d5934:	428b      	cmp	r3, r1
   d5936:	f340 813c 	ble.w	d5bb2 <_ZN12Adafruit_GFX8drawCharEsshtth+0x2aa>
   d593a:	f9b0 300e 	ldrsh.w	r3, [r0, #14]
   d593e:	42b3      	cmp	r3, r6
   d5940:	f340 8137 	ble.w	d5bb2 <_ZN12Adafruit_GFX8drawCharEsshtth+0x2aa>
           ((x + 6 * size - 1) < 0) || // Clip left
   d5944:	2306      	movs	r3, #6
   d5946:	fb13 1304 	smlabb	r3, r3, r4, r1
           (y >= _height)           || // Clip bottom
   d594a:	2b00      	cmp	r3, #0
   d594c:	f340 8131 	ble.w	d5bb2 <_ZN12Adafruit_GFX8drawCharEsshtth+0x2aa>
           ((y + 8 * size - 1) < 0))   // Clip top
   d5950:	eb06 03c4 	add.w	r3, r6, r4, lsl #3
           ((x + 6 * size - 1) < 0) || // Clip left
   d5954:	2b00      	cmp	r3, #0
   d5956:	f340 812c 	ble.w	d5bb2 <_ZN12Adafruit_GFX8drawCharEsshtth+0x2aa>
        if(!_cp437 && (c >= 176)) c++; // Handle 'classic' charset behavior
   d595a:	7ec3      	ldrb	r3, [r0, #27]
   d595c:	b933      	cbnz	r3, d596c <_ZN12Adafruit_GFX8drawCharEsshtth+0x64>
   d595e:	f1b8 0faf 	cmp.w	r8, #175	; 0xaf
   d5962:	bf84      	itt	hi
   d5964:	f108 0801 	addhi.w	r8, r8, #1
   d5968:	fa5f f888 	uxtbhi.w	r8, r8
        startWrite();
   d596c:	f8da 3000 	ldr.w	r3, [sl]
   d5970:	4650      	mov	r0, sl
   d5972:	695b      	ldr	r3, [r3, #20]
   d5974:	4798      	blx	r3
            uint8_t line = pgm_read_byte(&font[c * 5 + i]);
   d5976:	2305      	movs	r3, #5
   d5978:	9309      	str	r3, [sp, #36]	; 0x24
        for(int8_t i=0; i<5; i++ ) { // Char bitmap = 5 columns
   d597a:	2300      	movs	r3, #0
   d597c:	9303      	str	r3, [sp, #12]
            uint8_t line = pgm_read_byte(&font[c * 5 + i]);
   d597e:	4b8f      	ldr	r3, [pc, #572]	; (d5bbc <_ZN12Adafruit_GFX8drawCharEsshtth+0x2b4>)
   d5980:	eb08 0888 	add.w	r8, r8, r8, lsl #2
   d5984:	4443      	add	r3, r8
   d5986:	930a      	str	r3, [sp, #40]	; 0x28
   d5988:	b2b3      	uxth	r3, r6
   d598a:	9307      	str	r3, [sp, #28]
   d598c:	9a03      	ldr	r2, [sp, #12]
   d598e:	9b0a      	ldr	r3, [sp, #40]	; 0x28
   d5990:	5c9b      	ldrb	r3, [r3, r2]
   d5992:	9306      	str	r3, [sp, #24]
                        writeFillRect(x+i*size, y+j*size, size, size, bg);
   d5994:	fb02 f904 	mul.w	r9, r2, r4
   d5998:	b2a3      	uxth	r3, r4
   d599a:	fa19 f985 	uxtah	r9, r9, r5
   d599e:	9305      	str	r3, [sp, #20]
   d59a0:	b2ab      	uxth	r3, r5
   d59a2:	9308      	str	r3, [sp, #32]
   d59a4:	fa0f f389 	sxth.w	r3, r9
   d59a8:	ee08 3a10 	vmov	s16, r3
   d59ac:	9b07      	ldr	r3, [sp, #28]
   d59ae:	9304      	str	r3, [sp, #16]
                        writePixel(x+i, y+j, bg);
   d59b0:	4613      	mov	r3, r2
   d59b2:	442b      	add	r3, r5
   d59b4:	b21b      	sxth	r3, r3
   d59b6:	ee08 3a90 	vmov	s17, r3
                        writeFillRect(x+i*size, y+j*size, size, size, bg);
   d59ba:	f04f 0800 	mov.w	r8, #0
   d59be:	fa0f f984 	sxth.w	r9, r4
                if(line & 1) {
   d59c2:	9a06      	ldr	r2, [sp, #24]
   d59c4:	f8da 3000 	ldr.w	r3, [sl]
   d59c8:	07d1      	lsls	r1, r2, #31
   d59ca:	d54a      	bpl.n	d5a62 <_ZN12Adafruit_GFX8drawCharEsshtth+0x15a>
                    if(size == 1)
   d59cc:	2c01      	cmp	r4, #1
   d59ce:	d13a      	bne.n	d5a46 <_ZN12Adafruit_GFX8drawCharEsshtth+0x13e>
                        writePixel(x+i, y+j, color);
   d59d0:	9a07      	ldr	r2, [sp, #28]
   d59d2:	f8d3 b018 	ldr.w	fp, [r3, #24]
   d59d6:	9b02      	ldr	r3, [sp, #8]
   d59d8:	4442      	add	r2, r8
                        writePixel(x+i, y+j, bg);
   d59da:	ee18 1a90 	vmov	r1, s17
   d59de:	b212      	sxth	r2, r2
   d59e0:	4650      	mov	r0, sl
   d59e2:	47d8      	blx	fp
            for(int8_t j=0; j<8; j++, line >>= 1) {
   d59e4:	9b06      	ldr	r3, [sp, #24]
   d59e6:	085b      	lsrs	r3, r3, #1
   d59e8:	9306      	str	r3, [sp, #24]
   d59ea:	e9dd 3204 	ldrd	r3, r2, [sp, #16]
   d59ee:	f108 0801 	add.w	r8, r8, #1
   d59f2:	4413      	add	r3, r2
   d59f4:	b29b      	uxth	r3, r3
   d59f6:	f1b8 0f08 	cmp.w	r8, #8
   d59fa:	9304      	str	r3, [sp, #16]
   d59fc:	d1e1      	bne.n	d59c2 <_ZN12Adafruit_GFX8drawCharEsshtth+0xba>
        for(int8_t i=0; i<5; i++ ) { // Char bitmap = 5 columns
   d59fe:	9b03      	ldr	r3, [sp, #12]
   d5a00:	3301      	adds	r3, #1
   d5a02:	b25b      	sxtb	r3, r3
   d5a04:	9303      	str	r3, [sp, #12]
   d5a06:	9b09      	ldr	r3, [sp, #36]	; 0x24
   d5a08:	3b01      	subs	r3, #1
   d5a0a:	f013 03ff 	ands.w	r3, r3, #255	; 0xff
   d5a0e:	9309      	str	r3, [sp, #36]	; 0x24
   d5a10:	d1bc      	bne.n	d598c <_ZN12Adafruit_GFX8drawCharEsshtth+0x84>
        if(bg != color) { // If opaque, draw vertical line for last column
   d5a12:	9b02      	ldr	r3, [sp, #8]
   d5a14:	42bb      	cmp	r3, r7
   d5a16:	d00c      	beq.n	d5a32 <_ZN12Adafruit_GFX8drawCharEsshtth+0x12a>
            if(size == 1) writeFastVLine(x+5, y, 8, bg);
   d5a18:	2c01      	cmp	r4, #1
   d5a1a:	f8da 2000 	ldr.w	r2, [sl]
   d5a1e:	d12d      	bne.n	d5a7c <_ZN12Adafruit_GFX8drawCharEsshtth+0x174>
   d5a20:	9908      	ldr	r1, [sp, #32]
   d5a22:	9700      	str	r7, [sp, #0]
   d5a24:	3105      	adds	r1, #5
   d5a26:	6a14      	ldr	r4, [r2, #32]
   d5a28:	4643      	mov	r3, r8
   d5a2a:	4632      	mov	r2, r6
   d5a2c:	b209      	sxth	r1, r1
   d5a2e:	4650      	mov	r0, sl
   d5a30:	47a0      	blx	r4
        endWrite();
   d5a32:	f8da 3000 	ldr.w	r3, [sl]
   d5a36:	6adb      	ldr	r3, [r3, #44]	; 0x2c
   d5a38:	4650      	mov	r0, sl
}
   d5a3a:	b011      	add	sp, #68	; 0x44
   d5a3c:	ecbd 8b02 	vpop	{d8}
   d5a40:	e8bd 4ff0 	ldmia.w	sp!, {r4, r5, r6, r7, r8, r9, sl, fp, lr}
        endWrite();
   d5a44:	4718      	bx	r3
                        writeFillRect(x+i*size, y+j*size, size, size, color);
   d5a46:	9a02      	ldr	r2, [sp, #8]
   d5a48:	9201      	str	r2, [sp, #4]
                        writeFillRect(x+i*size, y+j*size, size, size, bg);
   d5a4a:	f8cd 9000 	str.w	r9, [sp]
   d5a4e:	f8d3 b01c 	ldr.w	fp, [r3, #28]
   d5a52:	f9bd 2010 	ldrsh.w	r2, [sp, #16]
   d5a56:	ee18 1a10 	vmov	r1, s16
   d5a5a:	464b      	mov	r3, r9
   d5a5c:	4650      	mov	r0, sl
   d5a5e:	47d8      	blx	fp
   d5a60:	e7c0      	b.n	d59e4 <_ZN12Adafruit_GFX8drawCharEsshtth+0xdc>
                } else if(bg != color) {
   d5a62:	9a02      	ldr	r2, [sp, #8]
   d5a64:	42ba      	cmp	r2, r7
   d5a66:	d0bd      	beq.n	d59e4 <_ZN12Adafruit_GFX8drawCharEsshtth+0xdc>
                    if(size == 1)
   d5a68:	2c01      	cmp	r4, #1
   d5a6a:	d105      	bne.n	d5a78 <_ZN12Adafruit_GFX8drawCharEsshtth+0x170>
                        writePixel(x+i, y+j, bg);
   d5a6c:	9a07      	ldr	r2, [sp, #28]
   d5a6e:	f8d3 b018 	ldr.w	fp, [r3, #24]
   d5a72:	4442      	add	r2, r8
   d5a74:	463b      	mov	r3, r7
   d5a76:	e7b0      	b.n	d59da <_ZN12Adafruit_GFX8drawCharEsshtth+0xd2>
                        writeFillRect(x+i*size, y+j*size, size, size, bg);
   d5a78:	9701      	str	r7, [sp, #4]
   d5a7a:	e7e6      	b.n	d5a4a <_ZN12Adafruit_GFX8drawCharEsshtth+0x142>
            else          writeFillRect(x+5*size, y, size, 8*size, bg);
   d5a7c:	9b05      	ldr	r3, [sp, #20]
   d5a7e:	9701      	str	r7, [sp, #4]
   d5a80:	eb03 0183 	add.w	r1, r3, r3, lsl #2
   d5a84:	9b08      	ldr	r3, [sp, #32]
   d5a86:	440b      	add	r3, r1
   d5a88:	4619      	mov	r1, r3
   d5a8a:	9b05      	ldr	r3, [sp, #20]
   d5a8c:	00db      	lsls	r3, r3, #3
   d5a8e:	9300      	str	r3, [sp, #0]
   d5a90:	69d5      	ldr	r5, [r2, #28]
   d5a92:	4623      	mov	r3, r4
   d5a94:	4632      	mov	r2, r6
   d5a96:	b209      	sxth	r1, r1
   d5a98:	4650      	mov	r0, sl
   d5a9a:	47a8      	blx	r5
        endWrite();
   d5a9c:	e7c9      	b.n	d5a32 <_ZN12Adafruit_GFX8drawCharEsshtth+0x12a>
        c -= (uint8_t)pgm_read_byte(&gfxFont->first);
   d5a9e:	7a13      	ldrb	r3, [r2, #8]
        GFXglyph *glyph  = &(((GFXglyph *)pgm_read_pointer(&gfxFont->glyph))[c]);
   d5aa0:	6851      	ldr	r1, [r2, #4]
        uint8_t  *bitmap = (uint8_t *)pgm_read_pointer(&gfxFont->bitmap);
   d5aa2:	6812      	ldr	r2, [r2, #0]
   d5aa4:	9209      	str	r2, [sp, #36]	; 0x24
        c -= (uint8_t)pgm_read_byte(&gfxFont->first);
   d5aa6:	eba8 0803 	sub.w	r8, r8, r3
        GFXglyph *glyph  = &(((GFXglyph *)pgm_read_pointer(&gfxFont->glyph))[c]);
   d5aaa:	fa5f f888 	uxtb.w	r8, r8
   d5aae:	eb01 03c8 	add.w	r3, r1, r8, lsl #3
        uint16_t bo = pgm_read_word(&glyph->bitmapOffset);
   d5ab2:	f831 b038 	ldrh.w	fp, [r1, r8, lsl #3]
        uint8_t  w  = pgm_read_byte(&glyph->width),
   d5ab6:	789a      	ldrb	r2, [r3, #2]
                 yo = pgm_read_byte(&glyph->yOffset);
   d5ab8:	f993 8006 	ldrsb.w	r8, [r3, #6]
        uint8_t  w  = pgm_read_byte(&glyph->width),
   d5abc:	920a      	str	r2, [sp, #40]	; 0x28
        if(size > 1) {
   d5abe:	2c01      	cmp	r4, #1
                 h  = pgm_read_byte(&glyph->height);
   d5ac0:	78da      	ldrb	r2, [r3, #3]
   d5ac2:	920b      	str	r2, [sp, #44]	; 0x2c
        int8_t   xo = pgm_read_byte(&glyph->xOffset),
   d5ac4:	f993 2005 	ldrsb.w	r2, [r3, #5]
   d5ac8:	9206      	str	r2, [sp, #24]
        int16_t  xo16 = 0, yo16 = 0;
   d5aca:	bf95      	itete	ls
   d5acc:	2300      	movls	r3, #0
            yo16 = yo;
   d5ace:	fa0f f388 	sxthhi.w	r3, r8
        int16_t  xo16 = 0, yo16 = 0;
   d5ad2:	461f      	movls	r7, r3
            yo16 = yo;
   d5ad4:	9303      	strhi	r3, [sp, #12]
        int16_t  xo16 = 0, yo16 = 0;
   d5ad6:	bf98      	it	ls
   d5ad8:	9303      	strls	r3, [sp, #12]
        startWrite();
   d5ada:	6803      	ldr	r3, [r0, #0]
            xo16 = xo;
   d5adc:	bf88      	it	hi
   d5ade:	f9bd 7018 	ldrshhi.w	r7, [sp, #24]
        startWrite();
   d5ae2:	695b      	ldr	r3, [r3, #20]
   d5ae4:	4798      	blx	r3
        for(yy=0; yy<h; yy++) {
   d5ae6:	4367      	muls	r7, r4
                        writeFillRect(x+(xo16+xx)*size, y+(yo16+yy)*size,
   d5ae8:	b2a3      	uxth	r3, r4
   d5aea:	9305      	str	r3, [sp, #20]
   d5aec:	b2ab      	uxth	r3, r5
   d5aee:	fa17 f585 	uxtah	r5, r7, r5
   d5af2:	b2b2      	uxth	r2, r6
   d5af4:	9308      	str	r3, [sp, #32]
   d5af6:	b2ab      	uxth	r3, r5
   d5af8:	930d      	str	r3, [sp, #52]	; 0x34
   d5afa:	920e      	str	r2, [sp, #56]	; 0x38
        uint8_t  xx, yy, bits = 0, bit = 0;
   d5afc:	2300      	movs	r3, #0
                        writePixel(x+xo+xx, y+yo+yy, color);
   d5afe:	fa18 f286 	uxtah	r2, r8, r6
        uint8_t  xx, yy, bits = 0, bit = 0;
   d5b02:	461f      	mov	r7, r3
        for(yy=0; yy<h; yy++) {
   d5b04:	461d      	mov	r5, r3
                        writePixel(x+xo+xx, y+yo+yy, color);
   d5b06:	920f      	str	r2, [sp, #60]	; 0x3c
        for(yy=0; yy<h; yy++) {
   d5b08:	9a0b      	ldr	r2, [sp, #44]	; 0x2c
   d5b0a:	4295      	cmp	r5, r2
   d5b0c:	d291      	bcs.n	d5a32 <_ZN12Adafruit_GFX8drawCharEsshtth+0x12a>
                        writeFillRect(x+(xo16+xx)*size, y+(yo16+yy)*size,
   d5b0e:	9a03      	ldr	r2, [sp, #12]
   d5b10:	9905      	ldr	r1, [sp, #20]
   d5b12:	980e      	ldr	r0, [sp, #56]	; 0x38
   d5b14:	f8dd 8034 	ldr.w	r8, [sp, #52]	; 0x34
   d5b18:	442a      	add	r2, r5
   d5b1a:	fb02 0201 	mla	r2, r2, r1, r0
   d5b1e:	b212      	sxth	r2, r2
   d5b20:	ee08 2a10 	vmov	s16, r2
   d5b24:	9906      	ldr	r1, [sp, #24]
   d5b26:	9a08      	ldr	r2, [sp, #32]
   d5b28:	1856      	adds	r6, r2, r1
   d5b2a:	b2b2      	uxth	r2, r6
   d5b2c:	9204      	str	r2, [sp, #16]
   d5b2e:	9a0a      	ldr	r2, [sp, #40]	; 0x28
   d5b30:	189a      	adds	r2, r3, r2
   d5b32:	b2d2      	uxtb	r2, r2
   d5b34:	9207      	str	r2, [sp, #28]
                        writePixel(x+xo+xx, y+yo+yy, color);
   d5b36:	9a0f      	ldr	r2, [sp, #60]	; 0x3c
   d5b38:	eb02 0905 	add.w	r9, r2, r5
   d5b3c:	fa0f f989 	sxth.w	r9, r9
            for(xx=0; xx<w; xx++) {
   d5b40:	9a07      	ldr	r2, [sp, #28]
   d5b42:	429a      	cmp	r2, r3
   d5b44:	d032      	beq.n	d5bac <_ZN12Adafruit_GFX8drawCharEsshtth+0x2a4>
                if(!(bit++ & 7)) {
   d5b46:	1c5a      	adds	r2, r3, #1
   d5b48:	b2d2      	uxtb	r2, r2
   d5b4a:	920c      	str	r2, [sp, #48]	; 0x30
   d5b4c:	075a      	lsls	r2, r3, #29
                    bits = pgm_read_byte(&bitmap[bo++]);
   d5b4e:	bf01      	itttt	eq
   d5b50:	9a09      	ldreq	r2, [sp, #36]	; 0x24
   d5b52:	f812 700b 	ldrbeq.w	r7, [r2, fp]
   d5b56:	f10b 0301 	addeq.w	r3, fp, #1
   d5b5a:	fa1f fb83 	uxtheq.w	fp, r3
                if(bits & 0x80) {
   d5b5e:	063b      	lsls	r3, r7, #24
   d5b60:	d50b      	bpl.n	d5b7a <_ZN12Adafruit_GFX8drawCharEsshtth+0x272>
                    if(size == 1) {
   d5b62:	2c01      	cmp	r4, #1
   d5b64:	f8da 2000 	ldr.w	r2, [sl]
   d5b68:	d113      	bne.n	d5b92 <_ZN12Adafruit_GFX8drawCharEsshtth+0x28a>
                        writePixel(x+xo+xx, y+yo+yy, color);
   d5b6a:	6993      	ldr	r3, [r2, #24]
   d5b6c:	f9bd 1010 	ldrsh.w	r1, [sp, #16]
   d5b70:	461e      	mov	r6, r3
   d5b72:	464a      	mov	r2, r9
   d5b74:	9b02      	ldr	r3, [sp, #8]
   d5b76:	4650      	mov	r0, sl
   d5b78:	47b0      	blx	r6
                bits <<= 1;
   d5b7a:	9e04      	ldr	r6, [sp, #16]
   d5b7c:	3601      	adds	r6, #1
   d5b7e:	b2b3      	uxth	r3, r6
   d5b80:	9304      	str	r3, [sp, #16]
   d5b82:	9b05      	ldr	r3, [sp, #20]
   d5b84:	007f      	lsls	r7, r7, #1
   d5b86:	4498      	add	r8, r3
   d5b88:	b2ff      	uxtb	r7, r7
                if(!(bit++ & 7)) {
   d5b8a:	9b0c      	ldr	r3, [sp, #48]	; 0x30
   d5b8c:	fa1f f888 	uxth.w	r8, r8
            for(xx=0; xx<w; xx++) {
   d5b90:	e7d6      	b.n	d5b40 <_ZN12Adafruit_GFX8drawCharEsshtth+0x238>
                        writeFillRect(x+(xo16+xx)*size, y+(yo16+yy)*size,
   d5b92:	9902      	ldr	r1, [sp, #8]
   d5b94:	b223      	sxth	r3, r4
   d5b96:	e9cd 3100 	strd	r3, r1, [sp]
   d5b9a:	69d2      	ldr	r2, [r2, #28]
   d5b9c:	fa0f f188 	sxth.w	r1, r8
   d5ba0:	4616      	mov	r6, r2
   d5ba2:	4650      	mov	r0, sl
   d5ba4:	ee18 2a10 	vmov	r2, s16
   d5ba8:	47b0      	blx	r6
   d5baa:	e7e6      	b.n	d5b7a <_ZN12Adafruit_GFX8drawCharEsshtth+0x272>
        for(yy=0; yy<h; yy++) {
   d5bac:	3501      	adds	r5, #1
   d5bae:	b2ed      	uxtb	r5, r5
   d5bb0:	e7aa      	b.n	d5b08 <_ZN12Adafruit_GFX8drawCharEsshtth+0x200>
}
   d5bb2:	b011      	add	sp, #68	; 0x44
   d5bb4:	ecbd 8b02 	vpop	{d8}
   d5bb8:	e8bd 8ff0 	ldmia.w	sp!, {r4, r5, r6, r7, r8, r9, sl, fp, pc}
   d5bbc:	000de2fb 	.word	0x000de2fb

000d5bc0 <_ZN12Adafruit_GFX5writeEh>:
size_t Adafruit_GFX::write(uint8_t c) {
   d5bc0:	b57f      	push	{r0, r1, r2, r3, r4, r5, r6, lr}
    if(!gfxFont) { // 'Classic' built-in font
   d5bc2:	69c2      	ldr	r2, [r0, #28]
size_t Adafruit_GFX::write(uint8_t c) {
   d5bc4:	4604      	mov	r4, r0
   d5bc6:	460b      	mov	r3, r1
    if(!gfxFont) { // 'Classic' built-in font
   d5bc8:	2a00      	cmp	r2, #0
   d5bca:	d132      	bne.n	d5c32 <_ZN12Adafruit_GFX5writeEh+0x72>
        if(c == '\n') {                        // Newline?
   d5bcc:	290a      	cmp	r1, #10
   d5bce:	d108      	bne.n	d5be2 <_ZN12Adafruit_GFX5writeEh+0x22>
            cursor_y += textsize * 8;          // advance y one line
   d5bd0:	8a43      	ldrh	r3, [r0, #18]
            cursor_x  = 0;                     // Reset x to zero,
   d5bd2:	8202      	strh	r2, [r0, #16]
            cursor_y += textsize * 8;          // advance y one line
   d5bd4:	7e02      	ldrb	r2, [r0, #24]
   d5bd6:	eb03 03c2 	add.w	r3, r3, r2, lsl #3
            cursor_y += (int16_t)textsize *
   d5bda:	8263      	strh	r3, [r4, #18]
}
   d5bdc:	2001      	movs	r0, #1
   d5bde:	b004      	add	sp, #16
   d5be0:	bd70      	pop	{r4, r5, r6, pc}
        } else if(c != '\r') {                 // Ignore carriage returns
   d5be2:	290d      	cmp	r1, #13
   d5be4:	d0fa      	beq.n	d5bdc <_ZN12Adafruit_GFX5writeEh+0x1c>
            if(wrap && ((cursor_x + textsize * 6) > _width)) { // Off right?
   d5be6:	7e01      	ldrb	r1, [r0, #24]
   d5be8:	7e80      	ldrb	r0, [r0, #26]
   d5bea:	b170      	cbz	r0, d5c0a <_ZN12Adafruit_GFX5writeEh+0x4a>
   d5bec:	f9b4 5010 	ldrsh.w	r5, [r4, #16]
   d5bf0:	2006      	movs	r0, #6
   d5bf2:	fb10 5001 	smlabb	r0, r0, r1, r5
   d5bf6:	f9b4 500c 	ldrsh.w	r5, [r4, #12]
   d5bfa:	42a8      	cmp	r0, r5
   d5bfc:	bfc1      	itttt	gt
   d5bfe:	f9b4 0012 	ldrshgt.w	r0, [r4, #18]
                cursor_x  = 0;                 // Reset x to zero,
   d5c02:	8222      	strhgt	r2, [r4, #16]
                cursor_y += textsize * 8;      // advance y one line
   d5c04:	eb00 02c1 	addgt.w	r2, r0, r1, lsl #3
   d5c08:	8262      	strhgt	r2, [r4, #18]
            drawChar(cursor_x, cursor_y, c, textcolor, textbgcolor, textsize);
   d5c0a:	8ae2      	ldrh	r2, [r4, #22]
   d5c0c:	9201      	str	r2, [sp, #4]
   d5c0e:	8aa2      	ldrh	r2, [r4, #20]
   d5c10:	9102      	str	r1, [sp, #8]
   d5c12:	9200      	str	r2, [sp, #0]
   d5c14:	f9b4 1010 	ldrsh.w	r1, [r4, #16]
   d5c18:	f9b4 2012 	ldrsh.w	r2, [r4, #18]
   d5c1c:	4620      	mov	r0, r4
   d5c1e:	f7ff fe73 	bl	d5908 <_ZN12Adafruit_GFX8drawCharEsshtth>
            cursor_x += textsize * 6;          // Advance x one char
   d5c22:	7e23      	ldrb	r3, [r4, #24]
   d5c24:	8a22      	ldrh	r2, [r4, #16]
   d5c26:	eb03 0343 	add.w	r3, r3, r3, lsl #1
   d5c2a:	eb02 0343 	add.w	r3, r2, r3, lsl #1
                cursor_x += (uint8_t)pgm_read_byte(&glyph->xAdvance) * (int16_t)textsize;
   d5c2e:	8223      	strh	r3, [r4, #16]
   d5c30:	e7d4      	b.n	d5bdc <_ZN12Adafruit_GFX5writeEh+0x1c>
        if(c == '\n') {
   d5c32:	290a      	cmp	r1, #10
   d5c34:	d107      	bne.n	d5c46 <_ZN12Adafruit_GFX5writeEh+0x86>
            cursor_x  = 0;
   d5c36:	2300      	movs	r3, #0
   d5c38:	8203      	strh	r3, [r0, #16]
                        (uint8_t)pgm_read_byte(&gfxFont->yAdvance);
   d5c3a:	7a93      	ldrb	r3, [r2, #10]
            cursor_y += (int16_t)textsize *
   d5c3c:	7e01      	ldrb	r1, [r0, #24]
   d5c3e:	8a42      	ldrh	r2, [r0, #18]
   d5c40:	fb01 2303 	mla	r3, r1, r3, r2
   d5c44:	e7c9      	b.n	d5bda <_ZN12Adafruit_GFX5writeEh+0x1a>
        } else if(c != '\r') {
   d5c46:	290d      	cmp	r1, #13
   d5c48:	d0c8      	beq.n	d5bdc <_ZN12Adafruit_GFX5writeEh+0x1c>
            uint8_t first = pgm_read_byte(&gfxFont->first);
   d5c4a:	7a15      	ldrb	r5, [r2, #8]
            if((c >= first) && (c <= (uint8_t)pgm_read_byte(&gfxFont->last))) {
   d5c4c:	42a9      	cmp	r1, r5
   d5c4e:	d3c5      	bcc.n	d5bdc <_ZN12Adafruit_GFX5writeEh+0x1c>
   d5c50:	7a51      	ldrb	r1, [r2, #9]
   d5c52:	4299      	cmp	r1, r3
   d5c54:	d3c2      	bcc.n	d5bdc <_ZN12Adafruit_GFX5writeEh+0x1c>
                  &gfxFont->glyph))[c - first]);
   d5c56:	6851      	ldr	r1, [r2, #4]
   d5c58:	1b5d      	subs	r5, r3, r5
   d5c5a:	eb01 05c5 	add.w	r5, r1, r5, lsl #3
                uint8_t   w     = pgm_read_byte(&glyph->width),
   d5c5e:	78ae      	ldrb	r6, [r5, #2]
                if((w > 0) && (h > 0)) { // Is there an associated bitmap?
   d5c60:	b31e      	cbz	r6, d5caa <_ZN12Adafruit_GFX5writeEh+0xea>
   d5c62:	78e9      	ldrb	r1, [r5, #3]
   d5c64:	b309      	cbz	r1, d5caa <_ZN12Adafruit_GFX5writeEh+0xea>
                    if(wrap && ((cursor_x + textsize * (xo + w)) > _width)) {
   d5c66:	7ea1      	ldrb	r1, [r4, #26]
   d5c68:	7e00      	ldrb	r0, [r0, #24]
   d5c6a:	b191      	cbz	r1, d5c92 <_ZN12Adafruit_GFX5writeEh+0xd2>
   d5c6c:	f995 1005 	ldrsb.w	r1, [r5, #5]
   d5c70:	4431      	add	r1, r6
   d5c72:	f9b4 6010 	ldrsh.w	r6, [r4, #16]
   d5c76:	fb00 6101 	mla	r1, r0, r1, r6
   d5c7a:	f9b4 600c 	ldrsh.w	r6, [r4, #12]
   d5c7e:	42b1      	cmp	r1, r6
   d5c80:	dd07      	ble.n	d5c92 <_ZN12Adafruit_GFX5writeEh+0xd2>
                        cursor_x  = 0;
   d5c82:	2600      	movs	r6, #0
   d5c84:	8226      	strh	r6, [r4, #16]
   d5c86:	f9b4 1012 	ldrsh.w	r1, [r4, #18]
                          (uint8_t)pgm_read_byte(&gfxFont->yAdvance);
   d5c8a:	7a92      	ldrb	r2, [r2, #10]
                        cursor_y += (int16_t)textsize *
   d5c8c:	fb02 1200 	mla	r2, r2, r0, r1
   d5c90:	8262      	strh	r2, [r4, #18]
                    drawChar(cursor_x, cursor_y, c, textcolor, textbgcolor, textsize);
   d5c92:	8ae2      	ldrh	r2, [r4, #22]
   d5c94:	9201      	str	r2, [sp, #4]
   d5c96:	8aa2      	ldrh	r2, [r4, #20]
   d5c98:	9002      	str	r0, [sp, #8]
   d5c9a:	9200      	str	r2, [sp, #0]
   d5c9c:	f9b4 1010 	ldrsh.w	r1, [r4, #16]
   d5ca0:	f9b4 2012 	ldrsh.w	r2, [r4, #18]
   d5ca4:	4620      	mov	r0, r4
   d5ca6:	f7ff fe2f 	bl	d5908 <_ZN12Adafruit_GFX8drawCharEsshtth>
                cursor_x += (uint8_t)pgm_read_byte(&glyph->xAdvance) * (int16_t)textsize;
   d5caa:	7929      	ldrb	r1, [r5, #4]
   d5cac:	7e23      	ldrb	r3, [r4, #24]
   d5cae:	8a22      	ldrh	r2, [r4, #16]
   d5cb0:	fb01 2303 	mla	r3, r1, r3, r2
   d5cb4:	e7bb      	b.n	d5c2e <_ZN12Adafruit_GFX5writeEh+0x6e>

000d5cb6 <_ZN12Adafruit_GFX9setCursorEss>:
    cursor_x = x;
   d5cb6:	8201      	strh	r1, [r0, #16]
    cursor_y = y;
   d5cb8:	8242      	strh	r2, [r0, #18]
}
   d5cba:	4770      	bx	lr

000d5cbc <_ZN12Adafruit_GFX11setTextSizeEh>:
    textsize = (s > 0) ? s : 1;
   d5cbc:	2901      	cmp	r1, #1
   d5cbe:	bf38      	it	cc
   d5cc0:	2101      	movcc	r1, #1
   d5cc2:	7601      	strb	r1, [r0, #24]
}
   d5cc4:	4770      	bx	lr

000d5cc6 <_ZN12Adafruit_GFX12setTextColorEt>:
    textcolor = textbgcolor = c;
   d5cc6:	82c1      	strh	r1, [r0, #22]
   d5cc8:	8281      	strh	r1, [r0, #20]
}
   d5cca:	4770      	bx	lr

000d5ccc <_ZN12Adafruit_GFX11setTextWrapEb>:
    wrap = w;
   d5ccc:	7681      	strb	r1, [r0, #26]
}
   d5cce:	4770      	bx	lr

000d5cd0 <_ZNK12Adafruit_GFX11getRotationEv>:
}
   d5cd0:	7e40      	ldrb	r0, [r0, #25]
   d5cd2:	4770      	bx	lr

000d5cd4 <_ZNK12Adafruit_GFX5widthEv>:
}
   d5cd4:	f9b0 000c 	ldrsh.w	r0, [r0, #12]
   d5cd8:	4770      	bx	lr

000d5cda <_ZNK12Adafruit_GFX6heightEv>:
}
   d5cda:	f9b0 000e 	ldrsh.w	r0, [r0, #14]
   d5cde:	4770      	bx	lr

000d5ce0 <_ZN15Adafruit_BME280C1Ev>:

/***************************************************************************
 PRIVATE FUNCTIONS
 ***************************************************************************/
Adafruit_BME280::Adafruit_BME280()
    : _cs(-1), _mosi(-1), _miso(-1), _sck(-1)
   d5ce0:	f04f 33ff 	mov.w	r3, #4294967295
   d5ce4:	60c3      	str	r3, [r0, #12]
{ }
   d5ce6:	4770      	bx	lr

000d5ce8 <_ZN8particle8SpiProxyIL19hal_spi_interface_t0EE8instanceEv>:
    static SPIClass& instance() {
   d5ce8:	b513      	push	{r0, r1, r4, lr}
        static SPIClass instance(Interface);
   d5cea:	4c0b      	ldr	r4, [pc, #44]	; (d5d18 <_ZN8particle8SpiProxyIL19hal_spi_interface_t0EE8instanceEv+0x30>)
   d5cec:	7821      	ldrb	r1, [r4, #0]
   d5cee:	f3bf 8f5b 	dmb	ish
   d5cf2:	f011 0101 	ands.w	r1, r1, #1
   d5cf6:	d10b      	bne.n	d5d10 <_ZN8particle8SpiProxyIL19hal_spi_interface_t0EE8instanceEv+0x28>
   d5cf8:	4620      	mov	r0, r4
   d5cfa:	9101      	str	r1, [sp, #4]
   d5cfc:	f7fe f9dc 	bl	d40b8 <__cxa_guard_acquire>
   d5d00:	9901      	ldr	r1, [sp, #4]
   d5d02:	b128      	cbz	r0, d5d10 <_ZN8particle8SpiProxyIL19hal_spi_interface_t0EE8instanceEv+0x28>
   d5d04:	4805      	ldr	r0, [pc, #20]	; (d5d1c <_ZN8particle8SpiProxyIL19hal_spi_interface_t0EE8instanceEv+0x34>)
   d5d06:	f003 f98d 	bl	d9024 <_ZN8SPIClassC1E19hal_spi_interface_t>
   d5d0a:	4620      	mov	r0, r4
   d5d0c:	f7fe f9d9 	bl	d40c2 <__cxa_guard_release>
        return instance;
    }
   d5d10:	4802      	ldr	r0, [pc, #8]	; (d5d1c <_ZN8particle8SpiProxyIL19hal_spi_interface_t0EE8instanceEv+0x34>)
   d5d12:	b002      	add	sp, #8
   d5d14:	bd10      	pop	{r4, pc}
   d5d16:	bf00      	nop
   d5d18:	2003de24 	.word	0x2003de24
   d5d1c:	2003de28 	.word	0x2003de28

000d5d20 <_ZN15Adafruit_BME2807spixferEh>:
/**************************************************************************/
/*!
    @brief  Encapsulate hardware and software SPI transfer into one function
*/
/**************************************************************************/
uint8_t Adafruit_BME280::spixfer(uint8_t x) {
   d5d20:	e92d 41f0 	stmdb	sp!, {r4, r5, r6, r7, r8, lr}
    // hardware SPI
    if (_sck == -1)
   d5d24:	f990 300f 	ldrsb.w	r3, [r0, #15]
   d5d28:	3301      	adds	r3, #1
uint8_t Adafruit_BME280::spixfer(uint8_t x) {
   d5d2a:	4605      	mov	r5, r0
   d5d2c:	460f      	mov	r7, r1
    if (_sck == -1)
   d5d2e:	d106      	bne.n	d5d3e <_ZN15Adafruit_BME2807spixferEh+0x1e>
    }
    static void computeClockDivider(unsigned reference, unsigned targetSpeed, uint8_t& divider, unsigned& clock) {
        instance().computeClockDivider(reference, targetSpeed, divider, clock);
    }
    byte transfer(byte data) {
        return instance().transfer(data);
   d5d30:	f7ff ffda 	bl	d5ce8 <_ZN8particle8SpiProxyIL19hal_spi_interface_t0EE8instanceEv>
   d5d34:	4639      	mov	r1, r7
        digitalWrite(_sck, HIGH);
        if (digitalRead(_miso))
            reply |= 1;
        }
    return reply;
}
   d5d36:	e8bd 41f0 	ldmia.w	sp!, {r4, r5, r6, r7, r8, lr}
   d5d3a:	f003 ba15 	b.w	d9168 <_ZN8SPIClass8transferEh>
    uint8_t reply = 0;
   d5d3e:	2400      	movs	r4, #0
    for (int i=7; i>=0; i--) {
   d5d40:	2607      	movs	r6, #7
        digitalWrite(_mosi, x & (1<<i));
   d5d42:	f04f 0801 	mov.w	r8, #1
        digitalWrite(_sck, LOW);
   d5d46:	f995 000f 	ldrsb.w	r0, [r5, #15]
   d5d4a:	2100      	movs	r1, #0
   d5d4c:	b280      	uxth	r0, r0
   d5d4e:	f005 fc02 	bl	db556 <digitalWrite>
        digitalWrite(_mosi, x & (1<<i));
   d5d52:	f995 000d 	ldrsb.w	r0, [r5, #13]
   d5d56:	fa08 f106 	lsl.w	r1, r8, r6
   d5d5a:	4039      	ands	r1, r7
   d5d5c:	b280      	uxth	r0, r0
   d5d5e:	f005 fbfa 	bl	db556 <digitalWrite>
        digitalWrite(_sck, HIGH);
   d5d62:	f995 000f 	ldrsb.w	r0, [r5, #15]
   d5d66:	2101      	movs	r1, #1
   d5d68:	b280      	uxth	r0, r0
   d5d6a:	f005 fbf4 	bl	db556 <digitalWrite>
        if (digitalRead(_miso))
   d5d6e:	f995 000e 	ldrsb.w	r0, [r5, #14]
        reply <<= 1;
   d5d72:	0064      	lsls	r4, r4, #1
        if (digitalRead(_miso))
   d5d74:	b280      	uxth	r0, r0
        reply <<= 1;
   d5d76:	b2e4      	uxtb	r4, r4
        if (digitalRead(_miso))
   d5d78:	f005 fc06 	bl	db588 <digitalRead>
   d5d7c:	b108      	cbz	r0, d5d82 <_ZN15Adafruit_BME2807spixferEh+0x62>
            reply |= 1;
   d5d7e:	f044 0401 	orr.w	r4, r4, #1
    for (int i=7; i>=0; i--) {
   d5d82:	3e01      	subs	r6, #1
   d5d84:	d2df      	bcs.n	d5d46 <_ZN15Adafruit_BME2807spixferEh+0x26>
}
   d5d86:	4620      	mov	r0, r4
   d5d88:	e8bd 81f0 	ldmia.w	sp!, {r4, r5, r6, r7, r8, pc}

000d5d8c <_ZN8particle8SpiProxyIL19hal_spi_interface_t0EE14endTransactionEv.isra.0>:
    void endTransaction() {
   d5d8c:	b508      	push	{r3, lr}
        instance().endTransaction();
   d5d8e:	f7ff ffab 	bl	d5ce8 <_ZN8particle8SpiProxyIL19hal_spi_interface_t0EE8instanceEv>
    }
   d5d92:	e8bd 4008 	ldmia.w	sp!, {r3, lr}
        instance().endTransaction();
   d5d96:	f003 b960 	b.w	d905a <_ZN8SPIClass14endTransactionEv>

000d5d9a <_ZN8particle8SpiProxyIL19hal_spi_interface_t0EE16beginTransactionERKNS_11SPISettingsE.isra.0.constprop.0>:
    int32_t beginTransaction(const particle::SPISettings& settings) {
   d5d9a:	b507      	push	{r0, r1, r2, lr}
   d5d9c:	9001      	str	r0, [sp, #4]
        return instance().beginTransaction(settings);
   d5d9e:	f7ff ffa3 	bl	d5ce8 <_ZN8particle8SpiProxyIL19hal_spi_interface_t0EE8instanceEv>
   d5da2:	9901      	ldr	r1, [sp, #4]
    }
   d5da4:	b003      	add	sp, #12
   d5da6:	f85d eb04 	ldr.w	lr, [sp], #4
        return instance().beginTransaction(settings);
   d5daa:	f003 b96f 	b.w	d908c <_ZN8SPIClass16beginTransactionERKN8particle11SPISettingsE>
	...

000d5db0 <_ZN15Adafruit_BME2806read24Eh>:
/*!
    @brief  Reads a 24 bit value over I2C
*/
/**************************************************************************/
uint32_t Adafruit_BME280::read24(byte reg)
{
   d5db0:	b530      	push	{r4, r5, lr}
    uint32_t value;

    if (_cs == -1) {
   d5db2:	f990 300c 	ldrsb.w	r3, [r0, #12]
   d5db6:	3301      	adds	r3, #1
{
   d5db8:	b085      	sub	sp, #20
   d5dba:	4604      	mov	r4, r0
   d5dbc:	460d      	mov	r5, r1
    if (_cs == -1) {
   d5dbe:	d12a      	bne.n	d5e16 <_ZN15Adafruit_BME2806read24Eh+0x66>
        Wire.beginTransmission((uint8_t)_i2caddr);
   d5dc0:	f005 fc3c 	bl	db63c <_Z19__fetch_global_Wirev>
   d5dc4:	7821      	ldrb	r1, [r4, #0]
   d5dc6:	f005 faa5 	bl	db314 <_ZN7TwoWire17beginTransmissionEh>
        Wire.write((uint8_t)reg);
   d5dca:	f005 fc37 	bl	db63c <_Z19__fetch_global_Wirev>
   d5dce:	6803      	ldr	r3, [r0, #0]
   d5dd0:	4629      	mov	r1, r5
   d5dd2:	689b      	ldr	r3, [r3, #8]
   d5dd4:	4798      	blx	r3
        Wire.endTransmission();
   d5dd6:	f005 fc31 	bl	db63c <_Z19__fetch_global_Wirev>
   d5dda:	f005 faa3 	bl	db324 <_ZN7TwoWire15endTransmissionEv>
        Wire.requestFrom((uint8_t)_i2caddr, (byte)3);
   d5dde:	f005 fc2d 	bl	db63c <_Z19__fetch_global_Wirev>
   d5de2:	7821      	ldrb	r1, [r4, #0]
   d5de4:	2203      	movs	r2, #3
   d5de6:	f005 fa92 	bl	db30e <_ZN7TwoWire11requestFromEhj>

        value = Wire.read();
   d5dea:	f005 fc27 	bl	db63c <_Z19__fetch_global_Wirev>
   d5dee:	6803      	ldr	r3, [r0, #0]
   d5df0:	695b      	ldr	r3, [r3, #20]
   d5df2:	4798      	blx	r3
        value <<= 8;
   d5df4:	0205      	lsls	r5, r0, #8
        value |= Wire.read();
   d5df6:	f005 fc21 	bl	db63c <_Z19__fetch_global_Wirev>
   d5dfa:	6803      	ldr	r3, [r0, #0]
   d5dfc:	695b      	ldr	r3, [r3, #20]
   d5dfe:	4798      	blx	r3
   d5e00:	4328      	orrs	r0, r5
        value <<= 8;
   d5e02:	0205      	lsls	r5, r0, #8
        value |= Wire.read();
   d5e04:	f005 fc1a 	bl	db63c <_Z19__fetch_global_Wirev>
   d5e08:	6803      	ldr	r3, [r0, #0]
   d5e0a:	695b      	ldr	r3, [r3, #20]
   d5e0c:	4798      	blx	r3
   d5e0e:	4305      	orrs	r5, r0
        if (_sck == -1)
            SPI.endTransaction(); // release the SPI bus
    }

    return value;
}
   d5e10:	4628      	mov	r0, r5
   d5e12:	b005      	add	sp, #20
   d5e14:	bd30      	pop	{r4, r5, pc}
        if (_sck == -1)
   d5e16:	f990 300f 	ldrsb.w	r3, [r0, #15]
   d5e1a:	3301      	adds	r3, #1
   d5e1c:	d10c      	bne.n	d5e38 <_ZN15Adafruit_BME2806read24Eh+0x88>
      dataMode_{dataMode}
   d5e1e:	4b1a      	ldr	r3, [pc, #104]	; (d5e88 <_ZN15Adafruit_BME2806read24Eh+0xd8>)
   d5e20:	9300      	str	r3, [sp, #0]
   d5e22:	2300      	movs	r3, #0
   d5e24:	f88d 3004 	strb.w	r3, [sp, #4]
   d5e28:	4b18      	ldr	r3, [pc, #96]	; (d5e8c <_ZN15Adafruit_BME2806read24Eh+0xdc>)
   d5e2a:	9302      	str	r3, [sp, #8]
            SPI.beginTransaction(SPISettings(500000, MSBFIRST, SPI_MODE0));
   d5e2c:	4668      	mov	r0, sp
   d5e2e:	2301      	movs	r3, #1
   d5e30:	f8ad 300c 	strh.w	r3, [sp, #12]
   d5e34:	f7ff ffb1 	bl	d5d9a <_ZN8particle8SpiProxyIL19hal_spi_interface_t0EE16beginTransactionERKNS_11SPISettingsE.isra.0.constprop.0>
        digitalWrite(_cs, LOW);
   d5e38:	f994 000c 	ldrsb.w	r0, [r4, #12]
   d5e3c:	2100      	movs	r1, #0
   d5e3e:	b280      	uxth	r0, r0
   d5e40:	f005 fb89 	bl	db556 <digitalWrite>
        spixfer(reg | 0x80); // read, bit 7 high
   d5e44:	f045 0180 	orr.w	r1, r5, #128	; 0x80
   d5e48:	4620      	mov	r0, r4
   d5e4a:	f7ff ff69 	bl	d5d20 <_ZN15Adafruit_BME2807spixferEh>
        value = spixfer(0);
   d5e4e:	2100      	movs	r1, #0
   d5e50:	4620      	mov	r0, r4
   d5e52:	f7ff ff65 	bl	d5d20 <_ZN15Adafruit_BME2807spixferEh>
        value |= spixfer(0);
   d5e56:	2100      	movs	r1, #0
        value <<= 8;
   d5e58:	0205      	lsls	r5, r0, #8
        value |= spixfer(0);
   d5e5a:	4620      	mov	r0, r4
   d5e5c:	f7ff ff60 	bl	d5d20 <_ZN15Adafruit_BME2807spixferEh>
   d5e60:	4328      	orrs	r0, r5
        value <<= 8;
   d5e62:	0205      	lsls	r5, r0, #8
        value |= spixfer(0);
   d5e64:	2100      	movs	r1, #0
   d5e66:	4620      	mov	r0, r4
   d5e68:	f7ff ff5a 	bl	d5d20 <_ZN15Adafruit_BME2807spixferEh>
   d5e6c:	4305      	orrs	r5, r0
        digitalWrite(_cs, HIGH);
   d5e6e:	f994 000c 	ldrsb.w	r0, [r4, #12]
   d5e72:	2101      	movs	r1, #1
   d5e74:	b280      	uxth	r0, r0
   d5e76:	f005 fb6e 	bl	db556 <digitalWrite>
        if (_sck == -1)
   d5e7a:	f994 300f 	ldrsb.w	r3, [r4, #15]
   d5e7e:	3301      	adds	r3, #1
   d5e80:	d1c6      	bne.n	d5e10 <_ZN15Adafruit_BME2806read24Eh+0x60>
            SPI.endTransaction(); // release the SPI bus
   d5e82:	f7ff ff83 	bl	d5d8c <_ZN8particle8SpiProxyIL19hal_spi_interface_t0EE14endTransactionEv.isra.0>
    return value;
   d5e86:	e7c3      	b.n	d5e10 <_ZN15Adafruit_BME2806read24Eh+0x60>
   d5e88:	000de218 	.word	0x000de218
   d5e8c:	0007a120 	.word	0x0007a120

000d5e90 <_ZN15Adafruit_BME28015readTemperatureEv>:
/*!
    @brief  Returns the temperature from the sensor
*/
/**************************************************************************/
float Adafruit_BME280::readTemperature(void)
{
   d5e90:	b510      	push	{r4, lr}
    int32_t var1, var2;

    int32_t adc_T = read24(BME280_REGISTER_TEMPDATA);
   d5e92:	21fa      	movs	r1, #250	; 0xfa
{
   d5e94:	4604      	mov	r4, r0
    int32_t adc_T = read24(BME280_REGISTER_TEMPDATA);
   d5e96:	f7ff ff8b 	bl	d5db0 <_ZN15Adafruit_BME2806read24Eh>
    if (adc_T == 0x800000) // value in case temp measurement was disabled
   d5e9a:	f5b0 0f00 	cmp.w	r0, #8388608	; 0x800000
   d5e9e:	d01e      	beq.n	d5ede <_ZN15Adafruit_BME28015readTemperatureEv+0x4e>
        return NAN;
    adc_T >>= 4;

    var1 = ((((adc_T>>3) - ((int32_t)_bme280_calib.dig_T1 <<1))) *
   d5ea0:	8a21      	ldrh	r1, [r4, #16]
            ((int32_t)_bme280_calib.dig_T3)) >> 14;

    t_fine = var1 + var2;

    float T = (t_fine * 5 + 128) >> 8;
    return T/100;
   d5ea2:	ed9f 7a10 	vldr	s14, [pc, #64]	; d5ee4 <_ZN15Adafruit_BME28015readTemperatureEv+0x54>
    var1 = ((((adc_T>>3) - ((int32_t)_bme280_calib.dig_T1 <<1))) *
   d5ea6:	004b      	lsls	r3, r1, #1
    var2 = (((((adc_T>>4) - ((int32_t)_bme280_calib.dig_T1)) *
   d5ea8:	ebc1 2220 	rsb	r2, r1, r0, asr #8
    var1 = ((((adc_T>>3) - ((int32_t)_bme280_calib.dig_T1 <<1))) *
   d5eac:	ebc3 11e0 	rsb	r1, r3, r0, asr #7
            ((int32_t)_bme280_calib.dig_T2)) >> 11;
   d5eb0:	f9b4 3012 	ldrsh.w	r3, [r4, #18]
    var2 = (((((adc_T>>4) - ((int32_t)_bme280_calib.dig_T1)) *
   d5eb4:	4352      	muls	r2, r2
    var1 = ((((adc_T>>3) - ((int32_t)_bme280_calib.dig_T1 <<1))) *
   d5eb6:	4359      	muls	r1, r3
            ((int32_t)_bme280_calib.dig_T3)) >> 14;
   d5eb8:	f9b4 3014 	ldrsh.w	r3, [r4, #20]
              ((adc_T>>4) - ((int32_t)_bme280_calib.dig_T1))) >> 12) *
   d5ebc:	1312      	asrs	r2, r2, #12
   d5ebe:	4353      	muls	r3, r2
    var2 = (((((adc_T>>4) - ((int32_t)_bme280_calib.dig_T1)) *
   d5ec0:	139b      	asrs	r3, r3, #14
    t_fine = var1 + var2;
   d5ec2:	eb03 23e1 	add.w	r3, r3, r1, asr #11
   d5ec6:	60a3      	str	r3, [r4, #8]
    float T = (t_fine * 5 + 128) >> 8;
   d5ec8:	eb03 0383 	add.w	r3, r3, r3, lsl #2
   d5ecc:	3380      	adds	r3, #128	; 0x80
   d5ece:	121b      	asrs	r3, r3, #8
   d5ed0:	ee07 3a90 	vmov	s15, r3
   d5ed4:	eef8 7ae7 	vcvt.f32.s32	s15, s15
    return T/100;
   d5ed8:	ee87 0a87 	vdiv.f32	s0, s15, s14
}
   d5edc:	bd10      	pop	{r4, pc}
        return NAN;
   d5ede:	ed9f 0a02 	vldr	s0, [pc, #8]	; d5ee8 <_ZN15Adafruit_BME28015readTemperatureEv+0x58>
   d5ee2:	e7fb      	b.n	d5edc <_ZN15Adafruit_BME28015readTemperatureEv+0x4c>
   d5ee4:	42c80000 	.word	0x42c80000
   d5ee8:	7fc00000 	.word	0x7fc00000

000d5eec <_ZN15Adafruit_BME28012readPressureEv>:
/**************************************************************************/
/*!
    @brief  Returns the temperature from the sensor
*/
/**************************************************************************/
float Adafruit_BME280::readPressure(void) {
   d5eec:	e92d 43f8 	stmdb	sp!, {r3, r4, r5, r6, r7, r8, r9, lr}
   d5ef0:	4604      	mov	r4, r0
    int64_t var1, var2, p;

    readTemperature(); // must be done first to get t_fine
   d5ef2:	f7ff ffcd 	bl	d5e90 <_ZN15Adafruit_BME28015readTemperatureEv>

    int32_t adc_P = read24(BME280_REGISTER_PRESSUREDATA);
   d5ef6:	21f7      	movs	r1, #247	; 0xf7
   d5ef8:	4620      	mov	r0, r4
   d5efa:	f7ff ff59 	bl	d5db0 <_ZN15Adafruit_BME2806read24Eh>
    if (adc_P == 0x800000) // value in case pressure measurement was disabled
   d5efe:	f5b0 0f00 	cmp.w	r0, #8388608	; 0x800000
    int32_t adc_P = read24(BME280_REGISTER_PRESSUREDATA);
   d5f02:	4605      	mov	r5, r0
    if (adc_P == 0x800000) // value in case pressure measurement was disabled
   d5f04:	f000 80bf 	beq.w	d6086 <_ZN15Adafruit_BME28012readPressureEv+0x19a>
        return NAN;
    adc_P >>= 4;

    var1 = ((int64_t)t_fine) - 128000;
   d5f08:	68a0      	ldr	r0, [r4, #8]
    var2 = var1 * var1 * (int64_t)_bme280_calib.dig_P6;
    var2 = var2 + ((var1*(int64_t)_bme280_calib.dig_P5)<<17);
    var2 = var2 + (((int64_t)_bme280_calib.dig_P4)<<35);
    var1 = ((var1 * var1 * (int64_t)_bme280_calib.dig_P3)>>8) +
           ((var1 * (int64_t)_bme280_calib.dig_P2)<<12);
   d5f0a:	f9b4 6018 	ldrsh.w	r6, [r4, #24]
    var1 = ((int64_t)t_fine) - 128000;
   d5f0e:	f5b0 33fa 	subs.w	r3, r0, #128000	; 0x1f400
   d5f12:	ea4f 71e0 	mov.w	r1, r0, asr #31
   d5f16:	f141 32ff 	adc.w	r2, r1, #4294967295
    var2 = var1 * var1 * (int64_t)_bme280_calib.dig_P6;
   d5f1a:	fba3 8903 	umull	r8, r9, r3, r3
   d5f1e:	fb03 f102 	mul.w	r1, r3, r2
   d5f22:	eb09 0941 	add.w	r9, r9, r1, lsl #1
           ((var1 * (int64_t)_bme280_calib.dig_P2)<<12);
   d5f26:	17f7      	asrs	r7, r6, #31
   d5f28:	fb06 f102 	mul.w	r1, r6, r2
   d5f2c:	fb03 1107 	mla	r1, r3, r7, r1
   d5f30:	fba6 6703 	umull	r6, r7, r6, r3
   d5f34:	440f      	add	r7, r1
   d5f36:	0339      	lsls	r1, r7, #12
   d5f38:	ea41 5116 	orr.w	r1, r1, r6, lsr #20
   d5f3c:	0330      	lsls	r0, r6, #12
    var1 = ((var1 * var1 * (int64_t)_bme280_calib.dig_P3)>>8) +
   d5f3e:	f9b4 601a 	ldrsh.w	r6, [r4, #26]
   d5f42:	17f7      	asrs	r7, r6, #31
   d5f44:	fb06 fc09 	mul.w	ip, r6, r9
   d5f48:	fb08 cc07 	mla	ip, r8, r7, ip
   d5f4c:	fba6 6708 	umull	r6, r7, r6, r8
   d5f50:	4467      	add	r7, ip
   d5f52:	ea4f 2c16 	mov.w	ip, r6, lsr #8
   d5f56:	ea4c 6c07 	orr.w	ip, ip, r7, lsl #24
    var1 = (((((int64_t)1)<<47)+var1))*((int64_t)_bme280_calib.dig_P1)>>33;
   d5f5a:	8ae6      	ldrh	r6, [r4, #22]
    var1 = ((var1 * var1 * (int64_t)_bme280_calib.dig_P3)>>8) +
   d5f5c:	ea4f 2e27 	mov.w	lr, r7, asr #8
   d5f60:	eb1c 0000 	adds.w	r0, ip, r0
   d5f64:	eb4e 0e01 	adc.w	lr, lr, r1
    var1 = (((((int64_t)1)<<47)+var1))*((int64_t)_bme280_calib.dig_P1)>>33;
   d5f68:	3000      	adds	r0, #0
   d5f6a:	f54e 4e00 	adc.w	lr, lr, #32768	; 0x8000
   d5f6e:	fba0 0106 	umull	r0, r1, r0, r6
   d5f72:	fb06 110e 	mla	r1, r6, lr, r1
   d5f76:	104e      	asrs	r6, r1, #1
   d5f78:	17cf      	asrs	r7, r1, #31

    if (var1 == 0) {
   d5f7a:	ea56 0107 	orrs.w	r1, r6, r7
   d5f7e:	f000 8085 	beq.w	d608c <_ZN15Adafruit_BME28012readPressureEv+0x1a0>
    var2 = var1 * var1 * (int64_t)_bme280_calib.dig_P6;
   d5f82:	f9b4 0020 	ldrsh.w	r0, [r4, #32]
   d5f86:	fb00 fc09 	mul.w	ip, r0, r9
   d5f8a:	17c1      	asrs	r1, r0, #31
   d5f8c:	fb08 cc01 	mla	ip, r8, r1, ip
   d5f90:	fba0 0108 	umull	r0, r1, r0, r8
    var2 = var2 + ((var1*(int64_t)_bme280_calib.dig_P5)<<17);
   d5f94:	f9b4 801e 	ldrsh.w	r8, [r4, #30]
   d5f98:	ea4f 79e8 	mov.w	r9, r8, asr #31
   d5f9c:	fb08 f202 	mul.w	r2, r8, r2
   d5fa0:	fb03 2209 	mla	r2, r3, r9, r2
   d5fa4:	fba8 8903 	umull	r8, r9, r8, r3
   d5fa8:	4491      	add	r9, r2
    var2 = var1 * var1 * (int64_t)_bme280_calib.dig_P6;
   d5faa:	4461      	add	r1, ip
    var2 = var2 + ((var1*(int64_t)_bme280_calib.dig_P5)<<17);
   d5fac:	ea4f 4248 	mov.w	r2, r8, lsl #17
   d5fb0:	ea4f 4c49 	mov.w	ip, r9, lsl #17
    adc_P >>= 4;
   d5fb4:	112d      	asrs	r5, r5, #4
    var2 = var2 + ((var1*(int64_t)_bme280_calib.dig_P5)<<17);
   d5fb6:	1812      	adds	r2, r2, r0
        return 0; // avoid exception caused by division by zero
    }
    p = 1048576 - adc_P;
   d5fb8:	f5c5 1580 	rsb	r5, r5, #1048576	; 0x100000
    var2 = var2 + ((var1*(int64_t)_bme280_calib.dig_P5)<<17);
   d5fbc:	ea4c 3cd8 	orr.w	ip, ip, r8, lsr #15
    var2 = var2 + (((int64_t)_bme280_calib.dig_P4)<<35);
   d5fc0:	f9b4 801c 	ldrsh.w	r8, [r4, #28]
    var2 = var2 + ((var1*(int64_t)_bme280_calib.dig_P5)<<17);
   d5fc4:	eb4c 0c01 	adc.w	ip, ip, r1
    var2 = var2 + (((int64_t)_bme280_calib.dig_P4)<<35);
   d5fc8:	2300      	movs	r3, #0
    p = 1048576 - adc_P;
   d5fca:	17e9      	asrs	r1, r5, #31
    var2 = var2 + (((int64_t)_bme280_calib.dig_P4)<<35);
   d5fcc:	189b      	adds	r3, r3, r2
    p = (((p<<31) - var2)*3125) / var1;
   d5fce:	ea4f 7ec1 	mov.w	lr, r1, lsl #31
   d5fd2:	ea4f 70c5 	mov.w	r0, r5, lsl #31
    var2 = var2 + (((int64_t)_bme280_calib.dig_P4)<<35);
   d5fd6:	ea4f 01c8 	mov.w	r1, r8, lsl #3
   d5fda:	eb41 0c0c 	adc.w	ip, r1, ip
    p = (((p<<31) - var2)*3125) / var1;
   d5fde:	ea4e 0e55 	orr.w	lr, lr, r5, lsr #1
   d5fe2:	1ac0      	subs	r0, r0, r3
   d5fe4:	f640 4335 	movw	r3, #3125	; 0xc35
   d5fe8:	eb6e 0e0c 	sbc.w	lr, lr, ip
   d5fec:	fba0 0103 	umull	r0, r1, r0, r3
   d5ff0:	fb03 110e 	mla	r1, r3, lr, r1
   d5ff4:	4632      	mov	r2, r6
   d5ff6:	463b      	mov	r3, r7
   d5ff8:	f007 fc3e 	bl	dd878 <__aeabi_ldivmod>
    var1 = (((int64_t)_bme280_calib.dig_P9) * (p>>13) * (p>>13)) >> 25;
   d5ffc:	f9b4 2026 	ldrsh.w	r2, [r4, #38]	; 0x26
   d6000:	134d      	asrs	r5, r1, #13
   d6002:	0b46      	lsrs	r6, r0, #13
   d6004:	ea46 46c1 	orr.w	r6, r6, r1, lsl #19
   d6008:	fb02 f705 	mul.w	r7, r2, r5
   d600c:	17d3      	asrs	r3, r2, #31
   d600e:	fb06 7703 	mla	r7, r6, r3, r7
   d6012:	fba2 2306 	umull	r2, r3, r2, r6
   d6016:	443b      	add	r3, r7
   d6018:	4355      	muls	r5, r2
   d601a:	fb06 5503 	mla	r5, r6, r3, r5
   d601e:	fba2 2306 	umull	r2, r3, r2, r6
   d6022:	442b      	add	r3, r5
   d6024:	0e55      	lsrs	r5, r2, #25
   d6026:	ea45 15c3 	orr.w	r5, r5, r3, lsl #7
    var2 = (((int64_t)_bme280_calib.dig_P8) * p) >> 19;
   d602a:	f9b4 2024 	ldrsh.w	r2, [r4, #36]	; 0x24

    p = ((p + var1 + var2) >> 8) + (((int64_t)_bme280_calib.dig_P7)<<4);
   d602e:	f9b4 4022 	ldrsh.w	r4, [r4, #34]	; 0x22
   d6032:	182d      	adds	r5, r5, r0
    var1 = (((int64_t)_bme280_calib.dig_P9) * (p>>13) * (p>>13)) >> 25;
   d6034:	ea4f 6663 	mov.w	r6, r3, asr #25
    p = ((p + var1 + var2) >> 8) + (((int64_t)_bme280_calib.dig_P7)<<4);
   d6038:	eb41 0606 	adc.w	r6, r1, r6
    var2 = (((int64_t)_bme280_calib.dig_P8) * p) >> 19;
   d603c:	17d3      	asrs	r3, r2, #31
   d603e:	4351      	muls	r1, r2
   d6040:	fb00 1103 	mla	r1, r0, r3, r1
   d6044:	fba2 2300 	umull	r2, r3, r2, r0
   d6048:	440b      	add	r3, r1
   d604a:	0cd1      	lsrs	r1, r2, #19
   d604c:	ea41 3143 	orr.w	r1, r1, r3, lsl #13
    p = ((p + var1 + var2) >> 8) + (((int64_t)_bme280_calib.dig_P7)<<4);
   d6050:	186d      	adds	r5, r5, r1
    var2 = (((int64_t)_bme280_calib.dig_P8) * p) >> 19;
   d6052:	ea4f 40e3 	mov.w	r0, r3, asr #19
    p = ((p + var1 + var2) >> 8) + (((int64_t)_bme280_calib.dig_P7)<<4);
   d6056:	eb46 0300 	adc.w	r3, r6, r0
   d605a:	0a2a      	lsrs	r2, r5, #8
   d605c:	17e5      	asrs	r5, r4, #31
   d605e:	ea42 6203 	orr.w	r2, r2, r3, lsl #24
   d6062:	1219      	asrs	r1, r3, #8
   d6064:	0120      	lsls	r0, r4, #4
   d6066:	012b      	lsls	r3, r5, #4
   d6068:	ea43 7314 	orr.w	r3, r3, r4, lsr #28
    return (float)p/256;
   d606c:	1880      	adds	r0, r0, r2
   d606e:	eb43 0101 	adc.w	r1, r3, r1
   d6072:	f007 fbc3 	bl	dd7fc <__aeabi_l2f>
   d6076:	ed9f 0a07 	vldr	s0, [pc, #28]	; d6094 <_ZN15Adafruit_BME28012readPressureEv+0x1a8>
   d607a:	ee07 0a90 	vmov	s15, r0
   d607e:	ee27 0a80 	vmul.f32	s0, s15, s0
}
   d6082:	e8bd 83f8 	ldmia.w	sp!, {r3, r4, r5, r6, r7, r8, r9, pc}
        return NAN;
   d6086:	ed9f 0a04 	vldr	s0, [pc, #16]	; d6098 <_ZN15Adafruit_BME28012readPressureEv+0x1ac>
   d608a:	e7fa      	b.n	d6082 <_ZN15Adafruit_BME28012readPressureEv+0x196>
        return 0; // avoid exception caused by division by zero
   d608c:	ed9f 0a03 	vldr	s0, [pc, #12]	; d609c <_ZN15Adafruit_BME28012readPressureEv+0x1b0>
   d6090:	e7f7      	b.n	d6082 <_ZN15Adafruit_BME28012readPressureEv+0x196>
   d6092:	bf00      	nop
   d6094:	3b800000 	.word	0x3b800000
   d6098:	7fc00000 	.word	0x7fc00000
   d609c:	00000000 	.word	0x00000000

000d60a0 <_ZN15Adafruit_BME28012readAltitudeEf>:
    @param  seaLevel      Sea-level pressure in hPa
    @param  atmospheric   Atmospheric pressure in hPa
*/
/**************************************************************************/
float Adafruit_BME280::readAltitude(float seaLevel)
{
   d60a0:	b508      	push	{r3, lr}
   d60a2:	ed2d 8b02 	vpush	{d8}
   d60a6:	eeb0 8a40 	vmov.f32	s16, s0

    // Note that using the equation from wikipedia can give bad results
    // at high altitude. See this thread for more information:
    //  http://forums.adafruit.com/viewtopic.php?f=22&t=58064

    float atmospheric = readPressure() / 100.0F;
   d60aa:	f7ff ff1f 	bl	d5eec <_ZN15Adafruit_BME28012readPressureEv>
   d60ae:	ed9f 7a16 	vldr	s14, [pc, #88]	; d6108 <_ZN15Adafruit_BME28012readAltitudeEf+0x68>
   d60b2:	eec0 7a07 	vdiv.f32	s15, s0, s14
    inline _GLIBCXX_CONSTEXPR
    typename __gnu_cxx::__promote_2<_Tp, _Up>::__type
    pow(_Tp __x, _Up __y)
    {
      typedef typename __gnu_cxx::__promote_2<_Tp, _Up>::__type __type;
      return pow(__type(__x), __type(__y));
   d60b6:	eec7 7a88 	vdiv.f32	s15, s15, s16
   d60ba:	ee17 0a90 	vmov	r0, s15
   d60be:	f006 ff2d 	bl	dcf1c <__aeabi_f2d>
   d60c2:	ed9f 1b0d 	vldr	d1, [pc, #52]	; d60f8 <_ZN15Adafruit_BME28012readAltitudeEf+0x58>
   d60c6:	ec41 0b10 	vmov	d0, r0, r1
   d60ca:	f005 fc25 	bl	db918 <pow>
    return 44330.0 * (1.0 - pow(atmospheric / seaLevel, 0.1903));
   d60ce:	490f      	ldr	r1, [pc, #60]	; (d610c <_ZN15Adafruit_BME28012readAltitudeEf+0x6c>)
   d60d0:	ec53 2b10 	vmov	r2, r3, d0
   d60d4:	2000      	movs	r0, #0
   d60d6:	f006 fdc1 	bl	dcc5c <__aeabi_dsub>
   d60da:	a309      	add	r3, pc, #36	; (adr r3, d6100 <_ZN15Adafruit_BME28012readAltitudeEf+0x60>)
   d60dc:	e9d3 2300 	ldrd	r2, r3, [r3]
   d60e0:	f006 ff74 	bl	dcfcc <__aeabi_dmul>
   d60e4:	f007 fa6a 	bl	dd5bc <__aeabi_d2f>
}
   d60e8:	ecbd 8b02 	vpop	{d8}
   d60ec:	ee00 0a10 	vmov	s0, r0
   d60f0:	bd08      	pop	{r3, pc}
   d60f2:	bf00      	nop
   d60f4:	f3af 8000 	nop.w
   d60f8:	1a36e2eb 	.word	0x1a36e2eb
   d60fc:	3fc85bc0 	.word	0x3fc85bc0
   d6100:	00000000 	.word	0x00000000
   d6104:	40e5a540 	.word	0x40e5a540
   d6108:	42c80000 	.word	0x42c80000
   d610c:	3ff00000 	.word	0x3ff00000

000d6110 <_ZN15Adafruit_BME2806read16Eh>:
{
   d6110:	b530      	push	{r4, r5, lr}
    if (_cs == -1) {
   d6112:	f990 300c 	ldrsb.w	r3, [r0, #12]
   d6116:	3301      	adds	r3, #1
{
   d6118:	b085      	sub	sp, #20
   d611a:	4604      	mov	r4, r0
   d611c:	460d      	mov	r5, r1
    if (_cs == -1) {
   d611e:	d125      	bne.n	d616c <_ZN15Adafruit_BME2806read16Eh+0x5c>
        Wire.beginTransmission((uint8_t)_i2caddr);
   d6120:	f005 fa8c 	bl	db63c <_Z19__fetch_global_Wirev>
   d6124:	7821      	ldrb	r1, [r4, #0]
   d6126:	f005 f8f5 	bl	db314 <_ZN7TwoWire17beginTransmissionEh>
        Wire.write((uint8_t)reg);
   d612a:	f005 fa87 	bl	db63c <_Z19__fetch_global_Wirev>
   d612e:	6803      	ldr	r3, [r0, #0]
   d6130:	4629      	mov	r1, r5
   d6132:	689b      	ldr	r3, [r3, #8]
   d6134:	4798      	blx	r3
        Wire.endTransmission();
   d6136:	f005 fa81 	bl	db63c <_Z19__fetch_global_Wirev>
   d613a:	f005 f8f3 	bl	db324 <_ZN7TwoWire15endTransmissionEv>
        Wire.requestFrom((uint8_t)_i2caddr, (byte)2);
   d613e:	f005 fa7d 	bl	db63c <_Z19__fetch_global_Wirev>
   d6142:	7821      	ldrb	r1, [r4, #0]
   d6144:	2202      	movs	r2, #2
   d6146:	f005 f8e2 	bl	db30e <_ZN7TwoWire11requestFromEhj>
        value = (Wire.read() << 8) | Wire.read();
   d614a:	f005 fa77 	bl	db63c <_Z19__fetch_global_Wirev>
   d614e:	6803      	ldr	r3, [r0, #0]
   d6150:	695b      	ldr	r3, [r3, #20]
   d6152:	4798      	blx	r3
   d6154:	4605      	mov	r5, r0
   d6156:	f005 fa71 	bl	db63c <_Z19__fetch_global_Wirev>
   d615a:	6803      	ldr	r3, [r0, #0]
   d615c:	695b      	ldr	r3, [r3, #20]
   d615e:	4798      	blx	r3
   d6160:	ea40 2005 	orr.w	r0, r0, r5, lsl #8
   d6164:	b285      	uxth	r5, r0
}
   d6166:	4628      	mov	r0, r5
   d6168:	b005      	add	sp, #20
   d616a:	bd30      	pop	{r4, r5, pc}
        if (_sck == -1)
   d616c:	f990 300f 	ldrsb.w	r3, [r0, #15]
   d6170:	3301      	adds	r3, #1
   d6172:	d10c      	bne.n	d618e <_ZN15Adafruit_BME2806read16Eh+0x7e>
   d6174:	4b18      	ldr	r3, [pc, #96]	; (d61d8 <_ZN15Adafruit_BME2806read16Eh+0xc8>)
   d6176:	9300      	str	r3, [sp, #0]
   d6178:	2300      	movs	r3, #0
   d617a:	f88d 3004 	strb.w	r3, [sp, #4]
   d617e:	4b17      	ldr	r3, [pc, #92]	; (d61dc <_ZN15Adafruit_BME2806read16Eh+0xcc>)
   d6180:	9302      	str	r3, [sp, #8]
            SPI.beginTransaction(SPISettings(500000, MSBFIRST, SPI_MODE0));
   d6182:	4668      	mov	r0, sp
   d6184:	2301      	movs	r3, #1
   d6186:	f8ad 300c 	strh.w	r3, [sp, #12]
   d618a:	f7ff fe06 	bl	d5d9a <_ZN8particle8SpiProxyIL19hal_spi_interface_t0EE16beginTransactionERKNS_11SPISettingsE.isra.0.constprop.0>
        digitalWrite(_cs, LOW);
   d618e:	f994 000c 	ldrsb.w	r0, [r4, #12]
   d6192:	2100      	movs	r1, #0
   d6194:	b280      	uxth	r0, r0
   d6196:	f005 f9de 	bl	db556 <digitalWrite>
        spixfer(reg | 0x80); // read, bit 7 high
   d619a:	f045 0180 	orr.w	r1, r5, #128	; 0x80
   d619e:	4620      	mov	r0, r4
   d61a0:	f7ff fdbe 	bl	d5d20 <_ZN15Adafruit_BME2807spixferEh>
        value = (spixfer(0) << 8) | spixfer(0);
   d61a4:	2100      	movs	r1, #0
   d61a6:	4620      	mov	r0, r4
   d61a8:	f7ff fdba 	bl	d5d20 <_ZN15Adafruit_BME2807spixferEh>
   d61ac:	2100      	movs	r1, #0
   d61ae:	4605      	mov	r5, r0
   d61b0:	4620      	mov	r0, r4
   d61b2:	f7ff fdb5 	bl	d5d20 <_ZN15Adafruit_BME2807spixferEh>
   d61b6:	ea40 2005 	orr.w	r0, r0, r5, lsl #8
   d61ba:	b285      	uxth	r5, r0
        digitalWrite(_cs, HIGH);
   d61bc:	f994 000c 	ldrsb.w	r0, [r4, #12]
   d61c0:	2101      	movs	r1, #1
   d61c2:	b280      	uxth	r0, r0
   d61c4:	f005 f9c7 	bl	db556 <digitalWrite>
        if (_sck == -1)
   d61c8:	f994 300f 	ldrsb.w	r3, [r4, #15]
   d61cc:	3301      	adds	r3, #1
   d61ce:	d1ca      	bne.n	d6166 <_ZN15Adafruit_BME2806read16Eh+0x56>
            SPI.endTransaction(); // release the SPI bus
   d61d0:	f7ff fddc 	bl	d5d8c <_ZN8particle8SpiProxyIL19hal_spi_interface_t0EE14endTransactionEv.isra.0>
   d61d4:	e7c7      	b.n	d6166 <_ZN15Adafruit_BME2806read16Eh+0x56>
   d61d6:	bf00      	nop
   d61d8:	000de218 	.word	0x000de218
   d61dc:	0007a120 	.word	0x0007a120

000d61e0 <_ZN15Adafruit_BME2809read16_LEEh>:
uint16_t Adafruit_BME280::read16_LE(byte reg) {
   d61e0:	b508      	push	{r3, lr}
    uint16_t temp = read16(reg);
   d61e2:	f7ff ff95 	bl	d6110 <_ZN15Adafruit_BME2806read16Eh>
    return (temp >> 8) | (temp << 8);
   d61e6:	ba40      	rev16	r0, r0
}
   d61e8:	b280      	uxth	r0, r0
   d61ea:	bd08      	pop	{r3, pc}

000d61ec <_ZN15Adafruit_BME28012readHumidityEv>:
float Adafruit_BME280::readHumidity(void) {
   d61ec:	b538      	push	{r3, r4, r5, lr}
   d61ee:	4604      	mov	r4, r0
    readTemperature(); // must be done first to get t_fine
   d61f0:	f7ff fe4e 	bl	d5e90 <_ZN15Adafruit_BME28015readTemperatureEv>
    int32_t adc_H = read16(BME280_REGISTER_HUMIDDATA);
   d61f4:	21fd      	movs	r1, #253	; 0xfd
   d61f6:	4620      	mov	r0, r4
   d61f8:	f7ff ff8a 	bl	d6110 <_ZN15Adafruit_BME2806read16Eh>
    if (adc_H == 0x8000) // value in case humidity measurement was disabled
   d61fc:	f5b0 4f00 	cmp.w	r0, #32768	; 0x8000
   d6200:	d038      	beq.n	d6274 <_ZN15Adafruit_BME28012readHumidityEv+0x88>
    v_x1_u32r = (((((adc_H << 14) - (((int32_t)_bme280_calib.dig_H4) << 20) -
   d6202:	f9b4 502e 	ldrsh.w	r5, [r4, #46]	; 0x2e
    v_x1_u32r = (t_fine - ((int32_t)76800));
   d6206:	68a2      	ldr	r2, [r4, #8]
                    (((int32_t)_bme280_calib.dig_H5) * v_x1_u32r)) + ((int32_t)16384)) >> 15) *
   d6208:	f9b4 3030 	ldrsh.w	r3, [r4, #48]	; 0x30
    v_x1_u32r = (((((adc_H << 14) - (((int32_t)_bme280_calib.dig_H4) << 20) -
   d620c:	052d      	lsls	r5, r5, #20
    v_x1_u32r = (t_fine - ((int32_t)76800));
   d620e:	f5a2 3296 	sub.w	r2, r2, #76800	; 0x12c00
    v_x1_u32r = (((((adc_H << 14) - (((int32_t)_bme280_calib.dig_H4) << 20) -
   d6212:	ebc5 3080 	rsb	r0, r5, r0, lsl #14
   d6216:	fb02 0313 	mls	r3, r2, r3, r0
                    (((int32_t)_bme280_calib.dig_H5) * v_x1_u32r)) + ((int32_t)16384)) >> 15) *
   d621a:	f503 4380 	add.w	r3, r3, #16384	; 0x4000
   d621e:	13d9      	asrs	r1, r3, #15
                      (((v_x1_u32r * ((int32_t)_bme280_calib.dig_H3)) >> 11) + ((int32_t)32768))) >> 10) +
   d6220:	f894 302c 	ldrb.w	r3, [r4, #44]	; 0x2c
   d6224:	4353      	muls	r3, r2
   d6226:	12db      	asrs	r3, r3, #11
   d6228:	f503 4000 	add.w	r0, r3, #32768	; 0x8000
                 (((((((v_x1_u32r * ((int32_t)_bme280_calib.dig_H6)) >> 10) *
   d622c:	f994 3032 	ldrsb.w	r3, [r4, #50]	; 0x32
   d6230:	4353      	muls	r3, r2
   d6232:	129b      	asrs	r3, r3, #10
   d6234:	4343      	muls	r3, r0
                      (((v_x1_u32r * ((int32_t)_bme280_calib.dig_H3)) >> 11) + ((int32_t)32768))) >> 10) +
   d6236:	129b      	asrs	r3, r3, #10
   d6238:	f503 1200 	add.w	r2, r3, #2097152	; 0x200000
                    ((int32_t)2097152)) * ((int32_t)_bme280_calib.dig_H2) + 8192) >> 14));
   d623c:	f9b4 302a 	ldrsh.w	r3, [r4, #42]	; 0x2a
   d6240:	4353      	muls	r3, r2
   d6242:	f503 5300 	add.w	r3, r3, #8192	; 0x2000
   d6246:	139b      	asrs	r3, r3, #14
    v_x1_u32r = (((((adc_H << 14) - (((int32_t)_bme280_calib.dig_H4) << 20) -
   d6248:	434b      	muls	r3, r1
    v_x1_u32r = (v_x1_u32r - (((((v_x1_u32r >> 15) * (v_x1_u32r >> 15)) >> 7) *
   d624a:	13da      	asrs	r2, r3, #15
                               ((int32_t)_bme280_calib.dig_H1)) >> 4));
   d624c:	f894 1028 	ldrb.w	r1, [r4, #40]	; 0x28
    v_x1_u32r = (v_x1_u32r - (((((v_x1_u32r >> 15) * (v_x1_u32r >> 15)) >> 7) *
   d6250:	4352      	muls	r2, r2
   d6252:	11d2      	asrs	r2, r2, #7
   d6254:	434a      	muls	r2, r1
   d6256:	eba3 1322 	sub.w	r3, r3, r2, asr #4
    v_x1_u32r = (v_x1_u32r < 0) ? 0 : v_x1_u32r;
   d625a:	ea23 73e3 	bic.w	r3, r3, r3, asr #31
    v_x1_u32r = (v_x1_u32r > 419430400) ? 419430400 : v_x1_u32r;
   d625e:	f1b3 5fc8 	cmp.w	r3, #419430400	; 0x19000000
   d6262:	bfa8      	it	ge
   d6264:	f04f 53c8 	movge.w	r3, #419430400	; 0x19000000
    float h = (v_x1_u32r>>12);
   d6268:	131b      	asrs	r3, r3, #12
   d626a:	ee00 3a10 	vmov	s0, r3
    return  h / 1024.0;
   d626e:	eeba 0acb 	vcvt.f32.s32	s0, s0, #10
}
   d6272:	bd38      	pop	{r3, r4, r5, pc}
        return NAN;
   d6274:	ed9f 0a01 	vldr	s0, [pc, #4]	; d627c <_ZN15Adafruit_BME28012readHumidityEv+0x90>
   d6278:	e7fb      	b.n	d6272 <_ZN15Adafruit_BME28012readHumidityEv+0x86>
   d627a:	bf00      	nop
   d627c:	7fc00000 	.word	0x7fc00000

000d6280 <_ZN15Adafruit_BME2805read8Eh>:
uint8_t Adafruit_BME280::read8(byte reg) {
   d6280:	b530      	push	{r4, r5, lr}
    if (_cs == -1) {
   d6282:	f990 300c 	ldrsb.w	r3, [r0, #12]
   d6286:	3301      	adds	r3, #1
uint8_t Adafruit_BME280::read8(byte reg) {
   d6288:	b085      	sub	sp, #20
   d628a:	4604      	mov	r4, r0
   d628c:	460d      	mov	r5, r1
    if (_cs == -1) {
   d628e:	d11d      	bne.n	d62cc <_ZN15Adafruit_BME2805read8Eh+0x4c>
        Wire.beginTransmission((uint8_t)_i2caddr);
   d6290:	f005 f9d4 	bl	db63c <_Z19__fetch_global_Wirev>
   d6294:	7821      	ldrb	r1, [r4, #0]
   d6296:	f005 f83d 	bl	db314 <_ZN7TwoWire17beginTransmissionEh>
        Wire.write((uint8_t)reg);
   d629a:	f005 f9cf 	bl	db63c <_Z19__fetch_global_Wirev>
   d629e:	6803      	ldr	r3, [r0, #0]
   d62a0:	4629      	mov	r1, r5
   d62a2:	689b      	ldr	r3, [r3, #8]
   d62a4:	4798      	blx	r3
        Wire.endTransmission();
   d62a6:	f005 f9c9 	bl	db63c <_Z19__fetch_global_Wirev>
   d62aa:	f005 f83b 	bl	db324 <_ZN7TwoWire15endTransmissionEv>
        Wire.requestFrom((uint8_t)_i2caddr, (byte)1);
   d62ae:	f005 f9c5 	bl	db63c <_Z19__fetch_global_Wirev>
   d62b2:	7821      	ldrb	r1, [r4, #0]
   d62b4:	2201      	movs	r2, #1
   d62b6:	f005 f82a 	bl	db30e <_ZN7TwoWire11requestFromEhj>
        value = Wire.read();
   d62ba:	f005 f9bf 	bl	db63c <_Z19__fetch_global_Wirev>
   d62be:	6803      	ldr	r3, [r0, #0]
   d62c0:	695b      	ldr	r3, [r3, #20]
   d62c2:	4798      	blx	r3
   d62c4:	b2c5      	uxtb	r5, r0
}
   d62c6:	4628      	mov	r0, r5
   d62c8:	b005      	add	sp, #20
   d62ca:	bd30      	pop	{r4, r5, pc}
        if (_sck == -1)
   d62cc:	f990 300f 	ldrsb.w	r3, [r0, #15]
   d62d0:	3301      	adds	r3, #1
   d62d2:	d10c      	bne.n	d62ee <_ZN15Adafruit_BME2805read8Eh+0x6e>
   d62d4:	4b14      	ldr	r3, [pc, #80]	; (d6328 <_ZN15Adafruit_BME2805read8Eh+0xa8>)
   d62d6:	9300      	str	r3, [sp, #0]
   d62d8:	2300      	movs	r3, #0
   d62da:	f88d 3004 	strb.w	r3, [sp, #4]
   d62de:	4b13      	ldr	r3, [pc, #76]	; (d632c <_ZN15Adafruit_BME2805read8Eh+0xac>)
   d62e0:	9302      	str	r3, [sp, #8]
            SPI.beginTransaction(SPISettings(500000, MSBFIRST, SPI_MODE0));
   d62e2:	4668      	mov	r0, sp
   d62e4:	2301      	movs	r3, #1
   d62e6:	f8ad 300c 	strh.w	r3, [sp, #12]
   d62ea:	f7ff fd56 	bl	d5d9a <_ZN8particle8SpiProxyIL19hal_spi_interface_t0EE16beginTransactionERKNS_11SPISettingsE.isra.0.constprop.0>
        digitalWrite(_cs, LOW);
   d62ee:	f994 000c 	ldrsb.w	r0, [r4, #12]
   d62f2:	2100      	movs	r1, #0
   d62f4:	b280      	uxth	r0, r0
   d62f6:	f005 f92e 	bl	db556 <digitalWrite>
        spixfer(reg | 0x80); // read, bit 7 high
   d62fa:	f045 0180 	orr.w	r1, r5, #128	; 0x80
   d62fe:	4620      	mov	r0, r4
   d6300:	f7ff fd0e 	bl	d5d20 <_ZN15Adafruit_BME2807spixferEh>
        value = spixfer(0);
   d6304:	2100      	movs	r1, #0
   d6306:	4620      	mov	r0, r4
   d6308:	f7ff fd0a 	bl	d5d20 <_ZN15Adafruit_BME2807spixferEh>
   d630c:	4605      	mov	r5, r0
        digitalWrite(_cs, HIGH);
   d630e:	f994 000c 	ldrsb.w	r0, [r4, #12]
   d6312:	2101      	movs	r1, #1
   d6314:	b280      	uxth	r0, r0
   d6316:	f005 f91e 	bl	db556 <digitalWrite>
        if (_sck == -1)
   d631a:	f994 300f 	ldrsb.w	r3, [r4, #15]
   d631e:	3301      	adds	r3, #1
   d6320:	d1d1      	bne.n	d62c6 <_ZN15Adafruit_BME2805read8Eh+0x46>
            SPI.endTransaction(); // release the SPI bus
   d6322:	f7ff fd33 	bl	d5d8c <_ZN8particle8SpiProxyIL19hal_spi_interface_t0EE14endTransactionEv.isra.0>
   d6326:	e7ce      	b.n	d62c6 <_ZN15Adafruit_BME2805read8Eh+0x46>
   d6328:	000de218 	.word	0x000de218
   d632c:	0007a120 	.word	0x0007a120

000d6330 <_ZN15Adafruit_BME28020isReadingCalibrationEv>:
{
   d6330:	b508      	push	{r3, lr}
  uint8_t const rStatus = read8(BME280_REGISTER_STATUS);
   d6332:	21f3      	movs	r1, #243	; 0xf3
   d6334:	f7ff ffa4 	bl	d6280 <_ZN15Adafruit_BME2805read8Eh>
}
   d6338:	f000 0001 	and.w	r0, r0, #1
   d633c:	bd08      	pop	{r3, pc}

000d633e <_ZN15Adafruit_BME28016readCoefficientsEv>:
{
   d633e:	b538      	push	{r3, r4, r5, lr}
    _bme280_calib.dig_T1 = read16_LE(BME280_REGISTER_DIG_T1);
   d6340:	2188      	movs	r1, #136	; 0x88
{
   d6342:	4604      	mov	r4, r0
    _bme280_calib.dig_T1 = read16_LE(BME280_REGISTER_DIG_T1);
   d6344:	f7ff ff4c 	bl	d61e0 <_ZN15Adafruit_BME2809read16_LEEh>
    return (int16_t)read16_LE(reg);
   d6348:	218a      	movs	r1, #138	; 0x8a
    _bme280_calib.dig_T1 = read16_LE(BME280_REGISTER_DIG_T1);
   d634a:	8220      	strh	r0, [r4, #16]
    return (int16_t)read16_LE(reg);
   d634c:	4620      	mov	r0, r4
   d634e:	f7ff ff47 	bl	d61e0 <_ZN15Adafruit_BME2809read16_LEEh>
   d6352:	218c      	movs	r1, #140	; 0x8c
    _bme280_calib.dig_T2 = readS16_LE(BME280_REGISTER_DIG_T2);
   d6354:	8260      	strh	r0, [r4, #18]
    return (int16_t)read16_LE(reg);
   d6356:	4620      	mov	r0, r4
   d6358:	f7ff ff42 	bl	d61e0 <_ZN15Adafruit_BME2809read16_LEEh>
    _bme280_calib.dig_P1 = read16_LE(BME280_REGISTER_DIG_P1);
   d635c:	218e      	movs	r1, #142	; 0x8e
    _bme280_calib.dig_T3 = readS16_LE(BME280_REGISTER_DIG_T3);
   d635e:	82a0      	strh	r0, [r4, #20]
    _bme280_calib.dig_P1 = read16_LE(BME280_REGISTER_DIG_P1);
   d6360:	4620      	mov	r0, r4
   d6362:	f7ff ff3d 	bl	d61e0 <_ZN15Adafruit_BME2809read16_LEEh>
    return (int16_t)read16_LE(reg);
   d6366:	2190      	movs	r1, #144	; 0x90
    _bme280_calib.dig_P1 = read16_LE(BME280_REGISTER_DIG_P1);
   d6368:	82e0      	strh	r0, [r4, #22]
    return (int16_t)read16_LE(reg);
   d636a:	4620      	mov	r0, r4
   d636c:	f7ff ff38 	bl	d61e0 <_ZN15Adafruit_BME2809read16_LEEh>
   d6370:	2192      	movs	r1, #146	; 0x92
    _bme280_calib.dig_P2 = readS16_LE(BME280_REGISTER_DIG_P2);
   d6372:	8320      	strh	r0, [r4, #24]
    return (int16_t)read16_LE(reg);
   d6374:	4620      	mov	r0, r4
   d6376:	f7ff ff33 	bl	d61e0 <_ZN15Adafruit_BME2809read16_LEEh>
   d637a:	2194      	movs	r1, #148	; 0x94
    _bme280_calib.dig_P3 = readS16_LE(BME280_REGISTER_DIG_P3);
   d637c:	8360      	strh	r0, [r4, #26]
    return (int16_t)read16_LE(reg);
   d637e:	4620      	mov	r0, r4
   d6380:	f7ff ff2e 	bl	d61e0 <_ZN15Adafruit_BME2809read16_LEEh>
   d6384:	2196      	movs	r1, #150	; 0x96
    _bme280_calib.dig_P4 = readS16_LE(BME280_REGISTER_DIG_P4);
   d6386:	83a0      	strh	r0, [r4, #28]
    return (int16_t)read16_LE(reg);
   d6388:	4620      	mov	r0, r4
   d638a:	f7ff ff29 	bl	d61e0 <_ZN15Adafruit_BME2809read16_LEEh>
   d638e:	2198      	movs	r1, #152	; 0x98
    _bme280_calib.dig_P5 = readS16_LE(BME280_REGISTER_DIG_P5);
   d6390:	83e0      	strh	r0, [r4, #30]
    return (int16_t)read16_LE(reg);
   d6392:	4620      	mov	r0, r4
   d6394:	f7ff ff24 	bl	d61e0 <_ZN15Adafruit_BME2809read16_LEEh>
   d6398:	219a      	movs	r1, #154	; 0x9a
    _bme280_calib.dig_P6 = readS16_LE(BME280_REGISTER_DIG_P6);
   d639a:	8420      	strh	r0, [r4, #32]
    return (int16_t)read16_LE(reg);
   d639c:	4620      	mov	r0, r4
   d639e:	f7ff ff1f 	bl	d61e0 <_ZN15Adafruit_BME2809read16_LEEh>
   d63a2:	219c      	movs	r1, #156	; 0x9c
    _bme280_calib.dig_P7 = readS16_LE(BME280_REGISTER_DIG_P7);
   d63a4:	8460      	strh	r0, [r4, #34]	; 0x22
    return (int16_t)read16_LE(reg);
   d63a6:	4620      	mov	r0, r4
   d63a8:	f7ff ff1a 	bl	d61e0 <_ZN15Adafruit_BME2809read16_LEEh>
   d63ac:	219e      	movs	r1, #158	; 0x9e
    _bme280_calib.dig_P8 = readS16_LE(BME280_REGISTER_DIG_P8);
   d63ae:	84a0      	strh	r0, [r4, #36]	; 0x24
    return (int16_t)read16_LE(reg);
   d63b0:	4620      	mov	r0, r4
   d63b2:	f7ff ff15 	bl	d61e0 <_ZN15Adafruit_BME2809read16_LEEh>
    _bme280_calib.dig_H1 = read8(BME280_REGISTER_DIG_H1);
   d63b6:	21a1      	movs	r1, #161	; 0xa1
    _bme280_calib.dig_P9 = readS16_LE(BME280_REGISTER_DIG_P9);
   d63b8:	84e0      	strh	r0, [r4, #38]	; 0x26
    _bme280_calib.dig_H1 = read8(BME280_REGISTER_DIG_H1);
   d63ba:	4620      	mov	r0, r4
   d63bc:	f7ff ff60 	bl	d6280 <_ZN15Adafruit_BME2805read8Eh>
    return (int16_t)read16_LE(reg);
   d63c0:	21e1      	movs	r1, #225	; 0xe1
    _bme280_calib.dig_H1 = read8(BME280_REGISTER_DIG_H1);
   d63c2:	f884 0028 	strb.w	r0, [r4, #40]	; 0x28
    return (int16_t)read16_LE(reg);
   d63c6:	4620      	mov	r0, r4
   d63c8:	f7ff ff0a 	bl	d61e0 <_ZN15Adafruit_BME2809read16_LEEh>
    _bme280_calib.dig_H3 = read8(BME280_REGISTER_DIG_H3);
   d63cc:	21e3      	movs	r1, #227	; 0xe3
    _bme280_calib.dig_H2 = readS16_LE(BME280_REGISTER_DIG_H2);
   d63ce:	8560      	strh	r0, [r4, #42]	; 0x2a
    _bme280_calib.dig_H3 = read8(BME280_REGISTER_DIG_H3);
   d63d0:	4620      	mov	r0, r4
   d63d2:	f7ff ff55 	bl	d6280 <_ZN15Adafruit_BME2805read8Eh>
    _bme280_calib.dig_H4 = (read8(BME280_REGISTER_DIG_H4) << 4) | (read8(BME280_REGISTER_DIG_H4+1) & 0xF);
   d63d6:	21e4      	movs	r1, #228	; 0xe4
    _bme280_calib.dig_H3 = read8(BME280_REGISTER_DIG_H3);
   d63d8:	f884 002c 	strb.w	r0, [r4, #44]	; 0x2c
    _bme280_calib.dig_H4 = (read8(BME280_REGISTER_DIG_H4) << 4) | (read8(BME280_REGISTER_DIG_H4+1) & 0xF);
   d63dc:	4620      	mov	r0, r4
   d63de:	f7ff ff4f 	bl	d6280 <_ZN15Adafruit_BME2805read8Eh>
   d63e2:	21e5      	movs	r1, #229	; 0xe5
   d63e4:	4605      	mov	r5, r0
   d63e6:	4620      	mov	r0, r4
   d63e8:	f7ff ff4a 	bl	d6280 <_ZN15Adafruit_BME2805read8Eh>
   d63ec:	f000 030f 	and.w	r3, r0, #15
   d63f0:	ea43 1005 	orr.w	r0, r3, r5, lsl #4
   d63f4:	85e0      	strh	r0, [r4, #46]	; 0x2e
    _bme280_calib.dig_H5 = (read8(BME280_REGISTER_DIG_H5+1) << 4) | (read8(BME280_REGISTER_DIG_H5) >> 4);
   d63f6:	21e6      	movs	r1, #230	; 0xe6
   d63f8:	4620      	mov	r0, r4
   d63fa:	f7ff ff41 	bl	d6280 <_ZN15Adafruit_BME2805read8Eh>
   d63fe:	21e5      	movs	r1, #229	; 0xe5
   d6400:	4605      	mov	r5, r0
   d6402:	4620      	mov	r0, r4
   d6404:	f7ff ff3c 	bl	d6280 <_ZN15Adafruit_BME2805read8Eh>
   d6408:	1103      	asrs	r3, r0, #4
   d640a:	ea43 1005 	orr.w	r0, r3, r5, lsl #4
   d640e:	8620      	strh	r0, [r4, #48]	; 0x30
    _bme280_calib.dig_H6 = (int8_t)read8(BME280_REGISTER_DIG_H6);
   d6410:	21e7      	movs	r1, #231	; 0xe7
   d6412:	4620      	mov	r0, r4
   d6414:	f7ff ff34 	bl	d6280 <_ZN15Adafruit_BME2805read8Eh>
   d6418:	f884 0032 	strb.w	r0, [r4, #50]	; 0x32
}
   d641c:	bd38      	pop	{r3, r4, r5, pc}
	...

000d6420 <_ZN15Adafruit_BME2806write8Ehh>:
void Adafruit_BME280::write8(byte reg, byte value) {
   d6420:	b57f      	push	{r0, r1, r2, r3, r4, r5, r6, lr}
    if (_cs == -1) {
   d6422:	f990 300c 	ldrsb.w	r3, [r0, #12]
   d6426:	3301      	adds	r3, #1
void Adafruit_BME280::write8(byte reg, byte value) {
   d6428:	4604      	mov	r4, r0
   d642a:	460e      	mov	r6, r1
   d642c:	4615      	mov	r5, r2
    if (_cs == -1) {
   d642e:	d116      	bne.n	d645e <_ZN15Adafruit_BME2806write8Ehh+0x3e>
        Wire.beginTransmission((uint8_t)_i2caddr);
   d6430:	f005 f904 	bl	db63c <_Z19__fetch_global_Wirev>
   d6434:	7821      	ldrb	r1, [r4, #0]
   d6436:	f004 ff6d 	bl	db314 <_ZN7TwoWire17beginTransmissionEh>
        Wire.write((uint8_t)reg);
   d643a:	f005 f8ff 	bl	db63c <_Z19__fetch_global_Wirev>
   d643e:	6803      	ldr	r3, [r0, #0]
   d6440:	4631      	mov	r1, r6
   d6442:	689b      	ldr	r3, [r3, #8]
   d6444:	4798      	blx	r3
        Wire.write((uint8_t)value);
   d6446:	f005 f8f9 	bl	db63c <_Z19__fetch_global_Wirev>
   d644a:	6803      	ldr	r3, [r0, #0]
   d644c:	4629      	mov	r1, r5
   d644e:	689b      	ldr	r3, [r3, #8]
   d6450:	4798      	blx	r3
        Wire.endTransmission();
   d6452:	f005 f8f3 	bl	db63c <_Z19__fetch_global_Wirev>
   d6456:	f004 ff65 	bl	db324 <_ZN7TwoWire15endTransmissionEv>
}
   d645a:	b004      	add	sp, #16
   d645c:	bd70      	pop	{r4, r5, r6, pc}
        if (_sck == -1)
   d645e:	f990 300f 	ldrsb.w	r3, [r0, #15]
   d6462:	3301      	adds	r3, #1
   d6464:	d10c      	bne.n	d6480 <_ZN15Adafruit_BME2806write8Ehh+0x60>
   d6466:	4b14      	ldr	r3, [pc, #80]	; (d64b8 <_ZN15Adafruit_BME2806write8Ehh+0x98>)
   d6468:	9300      	str	r3, [sp, #0]
   d646a:	2300      	movs	r3, #0
   d646c:	f88d 3004 	strb.w	r3, [sp, #4]
   d6470:	4b12      	ldr	r3, [pc, #72]	; (d64bc <_ZN15Adafruit_BME2806write8Ehh+0x9c>)
   d6472:	9302      	str	r3, [sp, #8]
            SPI.beginTransaction(SPISettings(500000, MSBFIRST, SPI_MODE0));
   d6474:	4668      	mov	r0, sp
   d6476:	2301      	movs	r3, #1
   d6478:	f8ad 300c 	strh.w	r3, [sp, #12]
   d647c:	f7ff fc8d 	bl	d5d9a <_ZN8particle8SpiProxyIL19hal_spi_interface_t0EE16beginTransactionERKNS_11SPISettingsE.isra.0.constprop.0>
        digitalWrite(_cs, LOW);
   d6480:	f994 000c 	ldrsb.w	r0, [r4, #12]
   d6484:	2100      	movs	r1, #0
   d6486:	b280      	uxth	r0, r0
   d6488:	f005 f865 	bl	db556 <digitalWrite>
        spixfer(reg & ~0x80); // write, bit 7 low
   d648c:	f006 017f 	and.w	r1, r6, #127	; 0x7f
   d6490:	4620      	mov	r0, r4
   d6492:	f7ff fc45 	bl	d5d20 <_ZN15Adafruit_BME2807spixferEh>
        spixfer(value);
   d6496:	4629      	mov	r1, r5
   d6498:	4620      	mov	r0, r4
   d649a:	f7ff fc41 	bl	d5d20 <_ZN15Adafruit_BME2807spixferEh>
        digitalWrite(_cs, HIGH);
   d649e:	f994 000c 	ldrsb.w	r0, [r4, #12]
   d64a2:	2101      	movs	r1, #1
   d64a4:	b280      	uxth	r0, r0
   d64a6:	f005 f856 	bl	db556 <digitalWrite>
    if (_sck == -1)
   d64aa:	f994 300f 	ldrsb.w	r3, [r4, #15]
   d64ae:	3301      	adds	r3, #1
   d64b0:	d1d3      	bne.n	d645a <_ZN15Adafruit_BME2806write8Ehh+0x3a>
        SPI.endTransaction(); // release the SPI bus
   d64b2:	f7ff fc6b 	bl	d5d8c <_ZN8particle8SpiProxyIL19hal_spi_interface_t0EE14endTransactionEv.isra.0>
}
   d64b6:	e7d0      	b.n	d645a <_ZN15Adafruit_BME2806write8Ehh+0x3a>
   d64b8:	000de218 	.word	0x000de218
   d64bc:	0007a120 	.word	0x0007a120

000d64c0 <_ZN15Adafruit_BME28011setSamplingENS_11sensor_modeENS_15sensor_samplingES1_S1_NS_13sensor_filterENS_16standby_durationE>:
		 standby_duration  duration) {
   d64c0:	b5f8      	push	{r3, r4, r5, r6, r7, lr}
    _measReg.osrs_t   = tempSampling;
   d64c2:	00db      	lsls	r3, r3, #3
   d64c4:	f002 0207 	and.w	r2, r2, #7
   d64c8:	f003 0338 	and.w	r3, r3, #56	; 0x38
   d64cc:	4313      	orrs	r3, r2
   d64ce:	ea43 1381 	orr.w	r3, r3, r1, lsl #6
		 standby_duration  duration) {
   d64d2:	f89d 6018 	ldrb.w	r6, [sp, #24]
    _measReg.osrs_t   = tempSampling;
   d64d6:	f880 3038 	strb.w	r3, [r0, #56]	; 0x38
    _humReg.osrs_h    = humSampling;
   d64da:	f890 303c 	ldrb.w	r3, [r0, #60]	; 0x3c
		 standby_duration  duration) {
   d64de:	f89d 501c 	ldrb.w	r5, [sp, #28]
   d64e2:	f89d 7020 	ldrb.w	r7, [sp, #32]
    _humReg.osrs_h    = humSampling;
   d64e6:	f366 1347 	bfi	r3, r6, #5, #3
   d64ea:	f880 303c 	strb.w	r3, [r0, #60]	; 0x3c
    _configReg.t_sb   = duration;
   d64ee:	00ed      	lsls	r5, r5, #3
   d64f0:	f890 3034 	ldrb.w	r3, [r0, #52]	; 0x34
   d64f4:	f007 0707 	and.w	r7, r7, #7
   d64f8:	f005 0538 	and.w	r5, r5, #56	; 0x38
   d64fc:	f023 033f 	bic.w	r3, r3, #63	; 0x3f
   d6500:	433d      	orrs	r5, r7
		 standby_duration  duration) {
   d6502:	4604      	mov	r4, r0
    _configReg.t_sb   = duration;
   d6504:	431d      	orrs	r5, r3
   d6506:	f880 5034 	strb.w	r5, [r0, #52]	; 0x34
    write8(BME280_REGISTER_CONTROLHUMID, _humReg.get());
   d650a:	f006 0207 	and.w	r2, r6, #7
   d650e:	21f2      	movs	r1, #242	; 0xf2
   d6510:	f7ff ff86 	bl	d6420 <_ZN15Adafruit_BME2806write8Ehh>
            // unused - don't set
            unsigned int none : 1;
            unsigned int spi3w_en : 1;

            unsigned int get() {
                return (t_sb << 5) | (filter << 3) | spi3w_en;
   d6514:	f894 2034 	ldrb.w	r2, [r4, #52]	; 0x34
   d6518:	f002 0107 	and.w	r1, r2, #7
   d651c:	f002 0338 	and.w	r3, r2, #56	; 0x38
   d6520:	ea43 1341 	orr.w	r3, r3, r1, lsl #5
    write8(BME280_REGISTER_CONFIG, _configReg.get());
   d6524:	ea43 12d2 	orr.w	r2, r3, r2, lsr #7
   d6528:	4620      	mov	r0, r4
   d652a:	21f5      	movs	r1, #245	; 0xf5
   d652c:	f7ff ff78 	bl	d6420 <_ZN15Adafruit_BME2806write8Ehh>
            // 01 or 10 = forced
            // 11       = normal
            unsigned int mode : 2;

            unsigned int get() {
                return (osrs_t << 5) | (osrs_p << 3) | mode;
   d6530:	f894 2038 	ldrb.w	r2, [r4, #56]	; 0x38
   d6534:	f002 0107 	and.w	r1, r2, #7
   d6538:	f002 0338 	and.w	r3, r2, #56	; 0x38
   d653c:	ea43 1341 	orr.w	r3, r3, r1, lsl #5
    write8(BME280_REGISTER_CONTROL, _measReg.get());
   d6540:	ea43 1292 	orr.w	r2, r3, r2, lsr #6
   d6544:	4620      	mov	r0, r4
   d6546:	21f4      	movs	r1, #244	; 0xf4
}
   d6548:	e8bd 40f8 	ldmia.w	sp!, {r3, r4, r5, r6, r7, lr}
    write8(BME280_REGISTER_CONTROL, _measReg.get());
   d654c:	f7ff bf68 	b.w	d6420 <_ZN15Adafruit_BME2806write8Ehh>

000d6550 <_ZN15Adafruit_BME2805beginEh>:
{
   d6550:	b530      	push	{r4, r5, lr}
   d6552:	4604      	mov	r4, r0
    _i2caddr = addr;
   d6554:	7001      	strb	r1, [r0, #0]
    if (_cs == -1) {
   d6556:	f990 000c 	ldrsb.w	r0, [r0, #12]
   d655a:	1c42      	adds	r2, r0, #1
{
   d655c:	b085      	sub	sp, #20
    if (_cs == -1) {
   d655e:	d119      	bne.n	d6594 <_ZN15Adafruit_BME2805beginEh+0x44>
        Wire.begin();
   d6560:	f005 f86c 	bl	db63c <_Z19__fetch_global_Wirev>
   d6564:	f004 fea4 	bl	db2b0 <_ZN7TwoWire5beginEv>
    if (read8(BME280_REGISTER_CHIPID) != 0x60)
   d6568:	21d0      	movs	r1, #208	; 0xd0
   d656a:	4620      	mov	r0, r4
   d656c:	f7ff fe88 	bl	d6280 <_ZN15Adafruit_BME2805read8Eh>
   d6570:	2860      	cmp	r0, #96	; 0x60
   d6572:	d142      	bne.n	d65fa <_ZN15Adafruit_BME2805beginEh+0xaa>
    write8(BME280_REGISTER_SOFTRESET, 0xB6);
   d6574:	4620      	mov	r0, r4
   d6576:	22b6      	movs	r2, #182	; 0xb6
   d6578:	21e0      	movs	r1, #224	; 0xe0
   d657a:	f7ff ff51 	bl	d6420 <_ZN15Adafruit_BME2806write8Ehh>
    delay(300);
   d657e:	f44f 7096 	mov.w	r0, #300	; 0x12c
   d6582:	f004 facd 	bl	dab20 <delay>
    while (isReadingCalibration())
   d6586:	4620      	mov	r0, r4
   d6588:	f7ff fed2 	bl	d6330 <_ZN15Adafruit_BME28020isReadingCalibrationEv>
   d658c:	4605      	mov	r5, r0
   d658e:	b328      	cbz	r0, d65dc <_ZN15Adafruit_BME2805beginEh+0x8c>
          delay(100);
   d6590:	2064      	movs	r0, #100	; 0x64
   d6592:	e7f6      	b.n	d6582 <_ZN15Adafruit_BME2805beginEh+0x32>
        digitalWrite(_cs, HIGH);
   d6594:	2101      	movs	r1, #1
   d6596:	b280      	uxth	r0, r0
   d6598:	f004 ffdd 	bl	db556 <digitalWrite>
        pinMode(_cs, OUTPUT);
   d659c:	f994 000c 	ldrsb.w	r0, [r4, #12]
   d65a0:	2101      	movs	r1, #1
   d65a2:	b280      	uxth	r0, r0
   d65a4:	f004 ffc6 	bl	db534 <pinMode>
        if (_sck == -1) {
   d65a8:	f994 000f 	ldrsb.w	r0, [r4, #15]
   d65ac:	1c43      	adds	r3, r0, #1
   d65ae:	d104      	bne.n	d65ba <_ZN15Adafruit_BME2805beginEh+0x6a>
        instance().begin();
   d65b0:	f7ff fb9a 	bl	d5ce8 <_ZN8particle8SpiProxyIL19hal_spi_interface_t0EE8instanceEv>
   d65b4:	f002 fd40 	bl	d9038 <_ZN8SPIClass5beginEv>
    }
   d65b8:	e7d6      	b.n	d6568 <_ZN15Adafruit_BME2805beginEh+0x18>
            pinMode(_sck, OUTPUT);
   d65ba:	2101      	movs	r1, #1
   d65bc:	b280      	uxth	r0, r0
   d65be:	f004 ffb9 	bl	db534 <pinMode>
            pinMode(_mosi, OUTPUT);
   d65c2:	f994 000d 	ldrsb.w	r0, [r4, #13]
   d65c6:	2101      	movs	r1, #1
   d65c8:	b280      	uxth	r0, r0
   d65ca:	f004 ffb3 	bl	db534 <pinMode>
            pinMode(_miso, INPUT);
   d65ce:	f994 000e 	ldrsb.w	r0, [r4, #14]
   d65d2:	2100      	movs	r1, #0
   d65d4:	b280      	uxth	r0, r0
   d65d6:	f004 ffad 	bl	db534 <pinMode>
   d65da:	e7c5      	b.n	d6568 <_ZN15Adafruit_BME2805beginEh+0x18>
    readCoefficients(); // read trimming parameters, see DS 4.2.2
   d65dc:	4620      	mov	r0, r4
   d65de:	f7ff feae 	bl	d633e <_ZN15Adafruit_BME28016readCoefficientsEv>
    setSampling(); // use defaults
   d65e2:	2305      	movs	r3, #5
   d65e4:	4620      	mov	r0, r4
   d65e6:	e9cd 5501 	strd	r5, r5, [sp, #4]
   d65ea:	9300      	str	r3, [sp, #0]
   d65ec:	461a      	mov	r2, r3
   d65ee:	2103      	movs	r1, #3
   d65f0:	f7ff ff66 	bl	d64c0 <_ZN15Adafruit_BME28011setSamplingENS_11sensor_modeENS_15sensor_samplingES1_S1_NS_13sensor_filterENS_16standby_durationE>
    return true;
   d65f4:	2001      	movs	r0, #1
}
   d65f6:	b005      	add	sp, #20
   d65f8:	bd30      	pop	{r4, r5, pc}
        return false;
   d65fa:	2000      	movs	r0, #0
   d65fc:	e7fb      	b.n	d65f6 <_ZN15Adafruit_BME2805beginEh+0xa6>

000d65fe <_ZN9FatVolume9cacheSyncEv>:
  FatCache m_fatCache;
  cache_t* cacheFetchFat(uint32_t blockNumber, uint8_t options) {
    return m_fatCache.read(blockNumber,
                           options | FatCache::CACHE_STATUS_MIRROR_FAT);
  }
  bool cacheSync() {
   d65fe:	b510      	push	{r4, lr}
   d6600:	4604      	mov	r4, r0
    return m_cache.sync() && m_fatCache.sync() && syncBlocks();
   d6602:	3024      	adds	r0, #36	; 0x24
   d6604:	f000 feac 	bl	d7360 <_ZN8FatCache4syncEv>
   d6608:	b128      	cbz	r0, d6616 <_ZN9FatVolume9cacheSyncEv+0x18>
   d660a:	f504 700c 	add.w	r0, r4, #560	; 0x230
  }
   d660e:	e8bd 4010 	ldmia.w	sp!, {r4, lr}
    return m_cache.sync() && m_fatCache.sync() && syncBlocks();
   d6612:	f000 bea5 	b.w	d7360 <_ZN8FatCache4syncEv>
  }
   d6616:	bd10      	pop	{r4, pc}

000d6618 <_ZN7FatFile11lfnChecksumEPh>:
#include "FatFile.h"
//------------------------------------------------------------------------------
//
uint8_t FatFile::lfnChecksum(uint8_t* name) {
  uint8_t sum = 0;
  for (uint8_t i = 0; i < 11; i++) {
   d6618:	1e41      	subs	r1, r0, #1
   d661a:	f100 030a 	add.w	r3, r0, #10
  uint8_t sum = 0;
   d661e:	2000      	movs	r0, #0
    sum = (((sum & 1) << 7) | ((sum & 0xfe) >> 1)) + name[i];
   d6620:	0842      	lsrs	r2, r0, #1
   d6622:	ea42 10c0 	orr.w	r0, r2, r0, lsl #7
   d6626:	f811 2f01 	ldrb.w	r2, [r1, #1]!
   d662a:	fa52 f080 	uxtab	r0, r2, r0
  for (uint8_t i = 0; i < 11; i++) {
   d662e:	428b      	cmp	r3, r1
    sum = (((sum & 1) << 7) | ((sum & 0xfe) >> 1)) + name[i];
   d6630:	b2c0      	uxtb	r0, r0
  for (uint8_t i = 0; i < 11; i++) {
   d6632:	d1f5      	bne.n	d6620 <_ZN7FatFile11lfnChecksumEPh+0x8>
  }
  return sum;
}
   d6634:	4770      	bx	lr
	...

000d6638 <_ZN7FatFile13parsePathNameEPKcP7fname_tPS1_>:
  m_firstCluster = file->m_dirCluster;
  return true;
}
//------------------------------------------------------------------------------
bool FatFile::parsePathName(const char* path,
                            fname_t* fname, const char** ptr) {
   d6638:	e92d 47f0 	stmdb	sp!, {r4, r5, r6, r7, r8, r9, sl, lr}
   d663c:	4606      	mov	r6, r0
  int len = 0;
  int si;
  int dot;

  // Skip leading spaces.
  while (*path == ' ') {
   d663e:	f810 3b01 	ldrb.w	r3, [r0], #1
   d6642:	2b20      	cmp	r3, #32
   d6644:	d0fa      	beq.n	d663c <_ZN7FatFile13parsePathNameEPKcP7fname_tPS1_+0x4>
  if (c == '/' || c == '\\' || c == '"' || c == '*' ||
   d6646:	4d6b      	ldr	r5, [pc, #428]	; (d67f4 <_ZN7FatFile13parsePathNameEPKcP7fname_tPS1_+0x1bc>)
    path++;
  }
  fname->lfn = path;
   d6648:	608e      	str	r6, [r1, #8]

  for (len = 0; ; len++) {
   d664a:	2400      	movs	r4, #0
    c = path[len];
   d664c:	5d33      	ldrb	r3, [r6, r4]
    if (c == 0 || isDirSeparator(c)) {
   d664e:	b1c3      	cbz	r3, d6682 <_ZN7FatFile13parsePathNameEPKcP7fname_tPS1_+0x4a>
   d6650:	2b2f      	cmp	r3, #47	; 0x2f
   d6652:	d016      	beq.n	d6682 <_ZN7FatFile13parsePathNameEPKcP7fname_tPS1_+0x4a>
  if (c == '/' || c == '\\' || c == '"' || c == '*' ||
   d6654:	2b5c      	cmp	r3, #92	; 0x5c
   d6656:	d102      	bne.n	d665e <_ZN7FatFile13parsePathNameEPKcP7fname_tPS1_+0x26>
      break;
    }
    if (!lfnLegalChar(c)) {
      return false;
   d6658:	2000      	movs	r0, #0
    fname->flags = FNAME_FLAG_LOST_CHARS;
    fname->sfn[fname->seqPos] = '~';
    fname->sfn[fname->seqPos + 1] = '1';
  }
  return true;
}
   d665a:	e8bd 87f0 	ldmia.w	sp!, {r4, r5, r6, r7, r8, r9, sl, pc}
  if (c == '/' || c == '\\' || c == '"' || c == '*' ||
   d665e:	f1a3 0022 	sub.w	r0, r3, #34	; 0x22
   d6662:	b2c0      	uxtb	r0, r0
   d6664:	281d      	cmp	r0, #29
   d6666:	d803      	bhi.n	d6670 <_ZN7FatFile13parsePathNameEPKcP7fname_tPS1_+0x38>
   d6668:	fa25 f000 	lsr.w	r0, r5, r0
   d666c:	07c0      	lsls	r0, r0, #31
   d666e:	d4f3      	bmi.n	d6658 <_ZN7FatFile13parsePathNameEPKcP7fname_tPS1_+0x20>
      c == ':' || c == '<' || c == '>' || c == '?' || c == '|') {
   d6670:	f003 00bf 	and.w	r0, r3, #191	; 0xbf
   d6674:	283c      	cmp	r0, #60	; 0x3c
   d6676:	d0ef      	beq.n	d6658 <_ZN7FatFile13parsePathNameEPKcP7fname_tPS1_+0x20>
    if (!lfnLegalChar(c)) {
   d6678:	3b20      	subs	r3, #32
   d667a:	2b5e      	cmp	r3, #94	; 0x5e
   d667c:	d8ec      	bhi.n	d6658 <_ZN7FatFile13parsePathNameEPKcP7fname_tPS1_+0x20>
  for (len = 0; ; len++) {
   d667e:	3401      	adds	r4, #1
    c = path[len];
   d6680:	e7e4      	b.n	d664c <_ZN7FatFile13parsePathNameEPKcP7fname_tPS1_+0x14>
   d6682:	1933      	adds	r3, r6, r4
  for (len = 0; ; len++) {
   d6684:	4618      	mov	r0, r3
  for (end = len; path[end] ==  ' ' || isDirSeparator(path[end]); end++) {}
   d6686:	4607      	mov	r7, r0
   d6688:	f810 5b01 	ldrb.w	r5, [r0], #1
   d668c:	2d20      	cmp	r5, #32
   d668e:	d0fa      	beq.n	d6686 <_ZN7FatFile13parsePathNameEPKcP7fname_tPS1_+0x4e>
   d6690:	2d2f      	cmp	r5, #47	; 0x2f
   d6692:	d0f8      	beq.n	d6686 <_ZN7FatFile13parsePathNameEPKcP7fname_tPS1_+0x4e>
  *ptr = &path[end];
   d6694:	6017      	str	r7, [r2, #0]
  while (len) {
   d6696:	b14c      	cbz	r4, d66ac <_ZN7FatFile13parsePathNameEPKcP7fname_tPS1_+0x74>
    c = path[len - 1];
   d6698:	f813 2d01 	ldrb.w	r2, [r3, #-1]!
    if (c != '.' && c != ' ') {
   d669c:	2a2e      	cmp	r2, #46	; 0x2e
   d669e:	d001      	beq.n	d66a4 <_ZN7FatFile13parsePathNameEPKcP7fname_tPS1_+0x6c>
   d66a0:	2a20      	cmp	r2, #32
   d66a2:	d101      	bne.n	d66a8 <_ZN7FatFile13parsePathNameEPKcP7fname_tPS1_+0x70>
    len--;
   d66a4:	3c01      	subs	r4, #1
  while (len) {
   d66a6:	e7f6      	b.n	d6696 <_ZN7FatFile13parsePathNameEPKcP7fname_tPS1_+0x5e>
  if (len > 255) {
   d66a8:	2cff      	cmp	r4, #255	; 0xff
   d66aa:	dcd5      	bgt.n	d6658 <_ZN7FatFile13parsePathNameEPKcP7fname_tPS1_+0x20>
  fname->len = len;
   d66ac:	604c      	str	r4, [r1, #4]
  for (uint8_t k = 0; k < 11; k++) {
   d66ae:	f101 030d 	add.w	r3, r1, #13
   d66b2:	f101 0218 	add.w	r2, r1, #24
    fname->sfn[k] = ' ';
   d66b6:	2020      	movs	r0, #32
   d66b8:	f803 0b01 	strb.w	r0, [r3], #1
  for (uint8_t k = 0; k < 11; k++) {
   d66bc:	4293      	cmp	r3, r2
   d66be:	d1fb      	bne.n	d66b8 <_ZN7FatFile13parsePathNameEPKcP7fname_tPS1_+0x80>
  for (si = 0; path[si] == '.' || path[si] == ' '; si++) {}
   d66c0:	f04f 0800 	mov.w	r8, #0
   d66c4:	f816 3008 	ldrb.w	r3, [r6, r8]
   d66c8:	2b2e      	cmp	r3, #46	; 0x2e
   d66ca:	d001      	beq.n	d66d0 <_ZN7FatFile13parsePathNameEPKcP7fname_tPS1_+0x98>
   d66cc:	2b20      	cmp	r3, #32
   d66ce:	d102      	bne.n	d66d6 <_ZN7FatFile13parsePathNameEPKcP7fname_tPS1_+0x9e>
   d66d0:	f108 0801 	add.w	r8, r8, #1
   d66d4:	e7f6      	b.n	d66c4 <_ZN7FatFile13parsePathNameEPKcP7fname_tPS1_+0x8c>
  is83 = !si;
   d66d6:	fab8 f088 	clz	r0, r8
   d66da:	0940      	lsrs	r0, r0, #5
  for (dot = len - 1; dot >= 0 && path[dot] != '.'; dot--) {}
   d66dc:	1e65      	subs	r5, r4, #1
   d66de:	1c6b      	adds	r3, r5, #1
   d66e0:	d002      	beq.n	d66e8 <_ZN7FatFile13parsePathNameEPKcP7fname_tPS1_+0xb0>
   d66e2:	5d73      	ldrb	r3, [r6, r5]
   d66e4:	2b2e      	cmp	r3, #46	; 0x2e
   d66e6:	d114      	bne.n	d6712 <_ZN7FatFile13parsePathNameEPKcP7fname_tPS1_+0xda>
  for (si = 0; path[si] == '.' || path[si] == ' '; si++) {}
   d66e8:	f04f 0900 	mov.w	r9, #0
   d66ec:	2707      	movs	r7, #7
   d66ee:	464a      	mov	r2, r9
   d66f0:	46ca      	mov	sl, r9
   d66f2:	f04f 0e08 	mov.w	lr, #8
  for (; si < len; si++) {
   d66f6:	45a0      	cmp	r8, r4
   d66f8:	da69      	bge.n	d67ce <_ZN7FatFile13parsePathNameEPKcP7fname_tPS1_+0x196>
    c = path[si];
   d66fa:	f816 3008 	ldrb.w	r3, [r6, r8]
    if (c == ' ' || (c == '.' && dot != si)) {
   d66fe:	2b20      	cmp	r3, #32
   d6700:	d003      	beq.n	d670a <_ZN7FatFile13parsePathNameEPKcP7fname_tPS1_+0xd2>
   d6702:	2b2e      	cmp	r3, #46	; 0x2e
   d6704:	d107      	bne.n	d6716 <_ZN7FatFile13parsePathNameEPKcP7fname_tPS1_+0xde>
   d6706:	45a8      	cmp	r8, r5
   d6708:	d012      	beq.n	d6730 <_ZN7FatFile13parsePathNameEPKcP7fname_tPS1_+0xf8>
      is83 = false;
   d670a:	2000      	movs	r0, #0
  for (; si < len; si++) {
   d670c:	f108 0801 	add.w	r8, r8, #1
   d6710:	e7f1      	b.n	d66f6 <_ZN7FatFile13parsePathNameEPKcP7fname_tPS1_+0xbe>
  for (dot = len - 1; dot >= 0 && path[dot] != '.'; dot--) {}
   d6712:	3d01      	subs	r5, #1
   d6714:	e7e3      	b.n	d66de <_ZN7FatFile13parsePathNameEPKcP7fname_tPS1_+0xa6>
    if (c == '"' || c == '|') {
   d6716:	2b22      	cmp	r3, #34	; 0x22
   d6718:	d008      	beq.n	d672c <_ZN7FatFile13parsePathNameEPKcP7fname_tPS1_+0xf4>
   d671a:	2b7c      	cmp	r3, #124	; 0x7c
   d671c:	d006      	beq.n	d672c <_ZN7FatFile13parsePathNameEPKcP7fname_tPS1_+0xf4>
    if (0X2A <= c && c <= 0X2F && c != 0X2D) {
   d671e:	f1a3 0c2a 	sub.w	ip, r3, #42	; 0x2a
   d6722:	f1bc 0f05 	cmp.w	ip, #5
   d6726:	d80b      	bhi.n	d6740 <_ZN7FatFile13parsePathNameEPKcP7fname_tPS1_+0x108>
   d6728:	2b2d      	cmp	r3, #45	; 0x2d
   d672a:	d013      	beq.n	d6754 <_ZN7FatFile13parsePathNameEPKcP7fname_tPS1_+0x11c>
    if (!legal83Char(c) && si != dot) {
   d672c:	45a8      	cmp	r8, r5
   d672e:	d15c      	bne.n	d67ea <_ZN7FatFile13parsePathNameEPKcP7fname_tPS1_+0x1b2>
      if (in == 10) {
   d6730:	2f0a      	cmp	r7, #10
   d6732:	d04b      	beq.n	d67cc <_ZN7FatFile13parsePathNameEPKcP7fname_tPS1_+0x194>
   d6734:	46a8      	mov	r8, r5
      in = 10;  // Max index for full 8.3 name.
   d6736:	270a      	movs	r7, #10
      i = 8;    // Place for extension.
   d6738:	2208      	movs	r2, #8
      bit = DIR_NT_LC_EXT;  // bit for extension.
   d673a:	f04f 0e10 	mov.w	lr, #16
   d673e:	e7e5      	b.n	d670c <_ZN7FatFile13parsePathNameEPKcP7fname_tPS1_+0xd4>
    if (0X3A <= c && c <= 0X3F) {
   d6740:	f1a3 0c3a 	sub.w	ip, r3, #58	; 0x3a
   d6744:	f1bc 0f05 	cmp.w	ip, #5
   d6748:	d9f0      	bls.n	d672c <_ZN7FatFile13parsePathNameEPKcP7fname_tPS1_+0xf4>
    if (0X5B <= c && c <= 0X5D) {
   d674a:	f1a3 0c5b 	sub.w	ip, r3, #91	; 0x5b
   d674e:	f1bc 0f02 	cmp.w	ip, #2
   d6752:	d9eb      	bls.n	d672c <_ZN7FatFile13parsePathNameEPKcP7fname_tPS1_+0xf4>
    if (!legal83Char(c) && si != dot) {
   d6754:	f1a3 0c21 	sub.w	ip, r3, #33	; 0x21
   d6758:	f1bc 0f5d 	cmp.w	ip, #93	; 0x5d
   d675c:	d8e6      	bhi.n	d672c <_ZN7FatFile13parsePathNameEPKcP7fname_tPS1_+0xf4>
    if (si == dot || i > in) {
   d675e:	45a8      	cmp	r8, r5
   d6760:	d0e6      	beq.n	d6730 <_ZN7FatFile13parsePathNameEPKcP7fname_tPS1_+0xf8>
   d6762:	42ba      	cmp	r2, r7
   d6764:	d830      	bhi.n	d67c8 <_ZN7FatFile13parsePathNameEPKcP7fname_tPS1_+0x190>
      if ('a' <= c && c <= 'z') {
   d6766:	f1a3 0c61 	sub.w	ip, r3, #97	; 0x61
   d676a:	f1bc 0f19 	cmp.w	ip, #25
   d676e:	d81a      	bhi.n	d67a6 <_ZN7FatFile13parsePathNameEPKcP7fname_tPS1_+0x16e>
        c += 'A' - 'a';
   d6770:	3b20      	subs	r3, #32
        lc |= bit;
   d6772:	ea4e 0909 	orr.w	r9, lr, r9
        c += 'A' - 'a';
   d6776:	b2db      	uxtb	r3, r3
        lc |= bit;
   d6778:	fa5f f989 	uxtb.w	r9, r9
      fname->sfn[i++] = c;
   d677c:	f102 0c01 	add.w	ip, r2, #1
   d6780:	fa5f fc8c 	uxtb.w	ip, ip
   d6784:	440a      	add	r2, r1
      if (i < 7) {
   d6786:	f1bc 0f06 	cmp.w	ip, #6
      fname->sfn[i++] = c;
   d678a:	7353      	strb	r3, [r2, #13]
      if (i < 7) {
   d678c:	d801      	bhi.n	d6792 <_ZN7FatFile13parsePathNameEPKcP7fname_tPS1_+0x15a>
        fname->seqPos = i;
   d678e:	f881 c00c 	strb.w	ip, [r1, #12]
   d6792:	4662      	mov	r2, ip
   d6794:	e7ba      	b.n	d670c <_ZN7FatFile13parsePathNameEPKcP7fname_tPS1_+0xd4>
      if (si > dot) {
   d6796:	45a8      	cmp	r8, r5
   d6798:	dc18      	bgt.n	d67cc <_ZN7FatFile13parsePathNameEPKcP7fname_tPS1_+0x194>
   d679a:	46a8      	mov	r8, r5
      in = 10;  // Max index for full 8.3 name.
   d679c:	270a      	movs	r7, #10
      i = 8;    // Place for extension.
   d679e:	2208      	movs	r2, #8
      bit = DIR_NT_LC_EXT;  // bit for extension.
   d67a0:	f04f 0e10 	mov.w	lr, #16
   d67a4:	e7b1      	b.n	d670a <_ZN7FatFile13parsePathNameEPKcP7fname_tPS1_+0xd2>
      } else if ('A' <= c && c <= 'Z') {
   d67a6:	f1a3 0c41 	sub.w	ip, r3, #65	; 0x41
   d67aa:	f1bc 0f19 	cmp.w	ip, #25
        uc |= bit;
   d67ae:	bf98      	it	ls
   d67b0:	ea4e 0a0a 	orrls.w	sl, lr, sl
   d67b4:	e7e2      	b.n	d677c <_ZN7FatFile13parsePathNameEPKcP7fname_tPS1_+0x144>
    fname->sfn[fname->seqPos] = '~';
   d67b6:	7b0b      	ldrb	r3, [r1, #12]
    fname->flags = FNAME_FLAG_LOST_CHARS;
   d67b8:	2001      	movs	r0, #1
   d67ba:	7008      	strb	r0, [r1, #0]
    fname->sfn[fname->seqPos] = '~';
   d67bc:	4419      	add	r1, r3
   d67be:	237e      	movs	r3, #126	; 0x7e
   d67c0:	734b      	strb	r3, [r1, #13]
    fname->sfn[fname->seqPos + 1] = '1';
   d67c2:	2331      	movs	r3, #49	; 0x31
   d67c4:	738b      	strb	r3, [r1, #14]
   d67c6:	e748      	b.n	d665a <_ZN7FatFile13parsePathNameEPKcP7fname_tPS1_+0x22>
      if (in == 10) {
   d67c8:	2f0a      	cmp	r7, #10
   d67ca:	d1e4      	bne.n	d6796 <_ZN7FatFile13parsePathNameEPKcP7fname_tPS1_+0x15e>
        is83 = false;
   d67cc:	2000      	movs	r0, #0
  if (fname->sfn[0] == ' ') {
   d67ce:	7b4b      	ldrb	r3, [r1, #13]
   d67d0:	2b20      	cmp	r3, #32
   d67d2:	f43f af41 	beq.w	d6658 <_ZN7FatFile13parsePathNameEPKcP7fname_tPS1_+0x20>
  if (is83) {
   d67d6:	2800      	cmp	r0, #0
   d67d8:	d0ed      	beq.n	d67b6 <_ZN7FatFile13parsePathNameEPKcP7fname_tPS1_+0x17e>
    fname->flags = lc & uc ? FNAME_FLAG_MIXED_CASE : lc;
   d67da:	ea1a 0f09 	tst.w	sl, r9
   d67de:	bf18      	it	ne
   d67e0:	f04f 0902 	movne.w	r9, #2
   d67e4:	f881 9000 	strb.w	r9, [r1]
   d67e8:	e737      	b.n	d665a <_ZN7FatFile13parsePathNameEPKcP7fname_tPS1_+0x22>
    if (si == dot || i > in) {
   d67ea:	42ba      	cmp	r2, r7
   d67ec:	d8ec      	bhi.n	d67c8 <_ZN7FatFile13parsePathNameEPKcP7fname_tPS1_+0x190>
      c = '_';
   d67ee:	235f      	movs	r3, #95	; 0x5f
      is83 = false;
   d67f0:	2000      	movs	r0, #0
   d67f2:	e7c3      	b.n	d677c <_ZN7FatFile13parsePathNameEPKcP7fname_tPS1_+0x144>
   d67f4:	31000101 	.word	0x31000101

000d67f8 <_ZN7FatFile12lfnUniqueSfnEP7fname_t>:

fail:
  return false;
}
//------------------------------------------------------------------------------
bool FatFile::lfnUniqueSfn(fname_t* fname) {
   d67f8:	e92d 43f8 	stmdb	sp!, {r3, r4, r5, r6, r7, r8, r9, lr}
  const uint8_t FIRST_HASH_SEQ = 2;  // min value is 2
  uint8_t pos = fname->seqPos;;
   d67fc:	f891 900c 	ldrb.w	r9, [r1, #12]
bool FatFile::lfnUniqueSfn(fname_t* fname) {
   d6800:	4606      	mov	r6, r0
   d6802:	460c      	mov	r4, r1
  uint8_t pos = fname->seqPos;;
   d6804:	2502      	movs	r5, #2
        uint8_t h = hex & 0XF;
        fname->sfn[i] = h < 10 ? h + '0' : h + 'A' - 10;
        hex >>= 4;
      }
    }
    fname->sfn[pos] = '~';
   d6806:	277e      	movs	r7, #126	; 0x7e
        goto fail;
      }
      if (dir->name[0] == DIR_NAME_FREE) {
        goto done;
      }
      if (DIR_IS_FILE_OR_SUBDIR(dir) && !memcmp(fname->sfn, dir->name, 11)) {
   d6808:	f101 080d 	add.w	r8, r1, #13
      hex = Bernstein(seq + fname->len, fname->lfn, fname->len);
   d680c:	6861      	ldr	r1, [r4, #4]
   d680e:	68a2      	ldr	r2, [r4, #8]
   d6810:	186b      	adds	r3, r5, r1
   d6812:	b29b      	uxth	r3, r3
  for (size_t i = 0; i < len; i++) {
   d6814:	4411      	add	r1, r2
   d6816:	4291      	cmp	r1, r2
   d6818:	d006      	beq.n	d6828 <_ZN7FatFile12lfnUniqueSfnEP7fname_t+0x30>
    hash = ((hash << 5) + hash) ^ str[i];
   d681a:	f812 0b01 	ldrb.w	r0, [r2], #1
   d681e:	eb03 1343 	add.w	r3, r3, r3, lsl #5
   d6822:	4043      	eors	r3, r0
   d6824:	b29b      	uxth	r3, r3
  for (size_t i = 0; i < len; i++) {
   d6826:	e7f6      	b.n	d6816 <_ZN7FatFile12lfnUniqueSfnEP7fname_t+0x1e>
      if (pos > 3) {
   d6828:	f1b9 0f03 	cmp.w	r9, #3
   d682c:	bf28      	it	cs
   d682e:	f04f 0903 	movcs.w	r9, #3
      for (uint8_t i = pos + 4 ; i > pos; i--) {
   d6832:	f109 0204 	add.w	r2, r9, #4
   d6836:	b2d2      	uxtb	r2, r2
        uint8_t h = hex & 0XF;
   d6838:	f003 010f 	and.w	r1, r3, #15
        fname->sfn[i] = h < 10 ? h + '0' : h + 'A' - 10;
   d683c:	18a0      	adds	r0, r4, r2
      for (uint8_t i = pos + 4 ; i > pos; i--) {
   d683e:	3a01      	subs	r2, #1
        fname->sfn[i] = h < 10 ? h + '0' : h + 'A' - 10;
   d6840:	2909      	cmp	r1, #9
      for (uint8_t i = pos + 4 ; i > pos; i--) {
   d6842:	b2d2      	uxtb	r2, r2
        fname->sfn[i] = h < 10 ? h + '0' : h + 'A' - 10;
   d6844:	bf94      	ite	ls
   d6846:	3130      	addls	r1, #48	; 0x30
   d6848:	3137      	addhi	r1, #55	; 0x37
      for (uint8_t i = pos + 4 ; i > pos; i--) {
   d684a:	4591      	cmp	r9, r2
        fname->sfn[i] = h < 10 ? h + '0' : h + 'A' - 10;
   d684c:	7341      	strb	r1, [r0, #13]
        hex >>= 4;
   d684e:	ea4f 1313 	mov.w	r3, r3, lsr #4
      for (uint8_t i = pos + 4 ; i > pos; i--) {
   d6852:	d1f1      	bne.n	d6838 <_ZN7FatFile12lfnUniqueSfnEP7fname_t+0x40>
    fname->sfn[pos] = '~';
   d6854:	eb04 0309 	add.w	r3, r4, r9
    seekSet(0);
   d6858:	2100      	movs	r1, #0
   d685a:	735f      	strb	r7, [r3, #13]
   d685c:	4630      	mov	r0, r6
   d685e:	f000 fb6c 	bl	d6f3a <_ZN7FatFile7seekSetEm>
      dir = readDirCache(true);
   d6862:	2101      	movs	r1, #1
   d6864:	4630      	mov	r0, r6
   d6866:	f000 fb49 	bl	d6efc <_ZN7FatFile12readDirCacheEb>
      if (!dir) {
   d686a:	4601      	mov	r1, r0
   d686c:	b928      	cbnz	r0, d687a <_ZN7FatFile12lfnUniqueSfnEP7fname_t+0x82>
        if (!getError()) {
   d686e:	7870      	ldrb	r0, [r6, #1]
   d6870:	fab0 f080 	clz	r0, r0
   d6874:	0940      	lsrs	r0, r0, #5
fail:
  return false;

done:
  return true;
}
   d6876:	e8bd 83f8 	ldmia.w	sp!, {r3, r4, r5, r6, r7, r8, r9, pc}
      if (dir->name[0] == DIR_NAME_FREE) {
   d687a:	7803      	ldrb	r3, [r0, #0]
   d687c:	b16b      	cbz	r3, d689a <_ZN7FatFile12lfnUniqueSfnEP7fname_t+0xa2>
      if (DIR_IS_FILE_OR_SUBDIR(dir) && !memcmp(fname->sfn, dir->name, 11)) {
   d687e:	7ac3      	ldrb	r3, [r0, #11]
   d6880:	071b      	lsls	r3, r3, #28
   d6882:	d4ee      	bmi.n	d6862 <_ZN7FatFile12lfnUniqueSfnEP7fname_t+0x6a>
   d6884:	220b      	movs	r2, #11
   d6886:	4640      	mov	r0, r8
   d6888:	f007 f9bc 	bl	ddc04 <memcmp>
   d688c:	2800      	cmp	r0, #0
   d688e:	d1e8      	bne.n	d6862 <_ZN7FatFile12lfnUniqueSfnEP7fname_t+0x6a>
  for (uint8_t seq = 2; seq < 100; seq++) {
   d6890:	3501      	adds	r5, #1
   d6892:	b2ad      	uxth	r5, r5
   d6894:	2d64      	cmp	r5, #100	; 0x64
   d6896:	d1b9      	bne.n	d680c <_ZN7FatFile12lfnUniqueSfnEP7fname_t+0x14>
   d6898:	e7ed      	b.n	d6876 <_ZN7FatFile12lfnUniqueSfnEP7fname_t+0x7e>
  return true;
   d689a:	2001      	movs	r0, #1
   d689c:	e7eb      	b.n	d6876 <_ZN7FatFile12lfnUniqueSfnEP7fname_t+0x7e>
	...

000d68a0 <_ZN7FatFile4openEPS_P7fname_ti>:
bool FatFile::open(FatFile* dirFile, fname_t* fname, oflag_t oflag) {
   d68a0:	e92d 4ff0 	stmdb	sp!, {r4, r5, r6, r7, r8, r9, sl, fp, lr}
   d68a4:	ed2d 8b02 	vpush	{d8}
   d68a8:	b089      	sub	sp, #36	; 0x24
   d68aa:	460d      	mov	r5, r1
   d68ac:	9305      	str	r3, [sp, #20]
  if (!dirFile->isDir() || isOpen()) {
   d68ae:	780b      	ldrb	r3, [r1, #0]
bool FatFile::open(FatFile* dirFile, fname_t* fname, oflag_t oflag) {
   d68b0:	9006      	str	r0, [sp, #24]
  if (!dirFile->isDir() || isOpen()) {
   d68b2:	f013 0f70 	tst.w	r3, #112	; 0x70
bool FatFile::open(FatFile* dirFile, fname_t* fname, oflag_t oflag) {
   d68b6:	4690      	mov	r8, r2
  if (!dirFile->isDir() || isOpen()) {
   d68b8:	d105      	bne.n	d68c6 <_ZN7FatFile4openEPS_P7fname_ti+0x26>
  return false;
   d68ba:	2000      	movs	r0, #0
}
   d68bc:	b009      	add	sp, #36	; 0x24
   d68be:	ecbd 8b02 	vpop	{d8}
   d68c2:	e8bd 8ff0 	ldmia.w	sp!, {r4, r5, r6, r7, r8, r9, sl, fp, pc}
  if (!dirFile->isDir() || isOpen()) {
   d68c6:	9b06      	ldr	r3, [sp, #24]
   d68c8:	781b      	ldrb	r3, [r3, #0]
   d68ca:	2b00      	cmp	r3, #0
   d68cc:	d1f5      	bne.n	d68ba <_ZN7FatFile4openEPS_P7fname_ti+0x1a>
  size_t len = fname->len;
   d68ce:	6853      	ldr	r3, [r2, #4]
   d68d0:	9304      	str	r3, [sp, #16]
  freeNeed = fname->flags & FNAME_FLAG_NEED_LFN ? 1 + (len + 12)/13 : 1;
   d68d2:	7813      	ldrb	r3, [r2, #0]
   d68d4:	0799      	lsls	r1, r3, #30
   d68d6:	bf1c      	itt	ne
   d68d8:	9b04      	ldrne	r3, [sp, #16]
   d68da:	f103 070c 	addne.w	r7, r3, #12
   d68de:	f04f 0100 	mov.w	r1, #0
   d68e2:	bf18      	it	ne
   d68e4:	230d      	movne	r3, #13
   d68e6:	4628      	mov	r0, r5
   d68e8:	bf1d      	ittte	ne
   d68ea:	fbb7 f7f3 	udivne	r7, r7, r3
   d68ee:	3701      	addne	r7, #1
   d68f0:	b2ff      	uxtbne	r7, r7
   d68f2:	2701      	moveq	r7, #1
   d68f4:	f000 fb21 	bl	d6f3a <_ZN7FatFile7seekSetEm>
      if (!memcmp(dir->name, fname->sfn, sizeof(fname->sfn))) {
   d68f8:	f108 020d 	add.w	r2, r8, #13
  }
   d68fc:	2300      	movs	r3, #0
   d68fe:	ee08 2a10 	vmov	s16, r2
   d6902:	469b      	mov	fp, r3
   d6904:	461c      	mov	r4, r3
   d6906:	461e      	mov	r6, r3
   d6908:	9303      	str	r3, [sp, #12]
   d690a:	469a      	mov	sl, r3
    curIndex = dirFile->m_curPosition/32;
   d690c:	696a      	ldr	r2, [r5, #20]
   d690e:	9307      	str	r3, [sp, #28]
    dir = dirFile->readDirCache(true);
   d6910:	2101      	movs	r1, #1
   d6912:	4628      	mov	r0, r5
    curIndex = dirFile->m_curPosition/32;
   d6914:	f3c2 194f 	ubfx	r9, r2, #5, #16
    dir = dirFile->readDirCache(true);
   d6918:	f000 faf0 	bl	d6efc <_ZN7FatFile12readDirCacheEb>
    if (!dir) {
   d691c:	9b07      	ldr	r3, [sp, #28]
   d691e:	2800      	cmp	r0, #0
   d6920:	d16e      	bne.n	d6a00 <_ZN7FatFile4openEPS_P7fname_ti+0x160>
      if (dirFile->getError()) {
   d6922:	786b      	ldrb	r3, [r5, #1]
   d6924:	2b00      	cmp	r3, #0
   d6926:	d1c8      	bne.n	d68ba <_ZN7FatFile4openEPS_P7fname_ti+0x1a>
  if (!(oflag & O_CREAT) || !isWriteMode(oflag)) {
   d6928:	9b05      	ldr	r3, [sp, #20]
   d692a:	059a      	lsls	r2, r3, #22
   d692c:	d5c5      	bpl.n	d68ba <_ZN7FatFile4openEPS_P7fname_ti+0x1a>

#define O_READ    O_RDONLY
#define O_WRITE   O_WRONLY

inline bool isWriteMode(oflag_t oflag) {
  oflag &= O_ACCMODE;
   d692e:	f003 0303 	and.w	r3, r3, #3
  return oflag == O_WRONLY || oflag == O_RDWR;
   d6932:	3b01      	subs	r3, #1
   d6934:	2b01      	cmp	r3, #1
   d6936:	d8c0      	bhi.n	d68ba <_ZN7FatFile4openEPS_P7fname_ti+0x1a>
  if (freeFound == 0) {
   d6938:	9b03      	ldr	r3, [sp, #12]
   d693a:	2c00      	cmp	r4, #0
   d693c:	bf08      	it	eq
   d693e:	464b      	moveq	r3, r9
   d6940:	9303      	str	r3, [sp, #12]
  while (freeFound < freeNeed) {
   d6942:	42bc      	cmp	r4, r7
   d6944:	f0c0 8103 	bcc.w	d6b4e <_ZN7FatFile4openEPS_P7fname_ti+0x2ae>
  if (fnameFound) {
   d6948:	f1ba 0f00 	cmp.w	sl, #0
   d694c:	f040 811b 	bne.w	d6b86 <_ZN7FatFile4openEPS_P7fname_ti+0x2e6>
  if (!dirFile->seekSet(32UL*freeIndex)) {
   d6950:	9b03      	ldr	r3, [sp, #12]
   d6952:	4628      	mov	r0, r5
   d6954:	0159      	lsls	r1, r3, #5
   d6956:	f000 faf0 	bl	d6f3a <_ZN7FatFile7seekSetEm>
   d695a:	2800      	cmp	r0, #0
   d695c:	d0ad      	beq.n	d68ba <_ZN7FatFile4openEPS_P7fname_ti+0x1a>
  lfnOrd = freeNeed - 1;
   d695e:	3f01      	subs	r7, #1
   d6960:	fa5f fa87 	uxtb.w	sl, r7
  for (uint8_t ord = lfnOrd ; ord ; ord--) {
   d6964:	4656      	mov	r6, sl
    ldir = reinterpret_cast<ldir_t*>(dirFile->readDirCache());
   d6966:	f04f 0900 	mov.w	r9, #0
    ldir->attr = DIR_ATT_LONG_NAME;
   d696a:	270f      	movs	r7, #15
  for (uint8_t ord = lfnOrd ; ord ; ord--) {
   d696c:	2e00      	cmp	r6, #0
   d696e:	f000 8121 	beq.w	d6bb4 <_ZN7FatFile4openEPS_P7fname_ti+0x314>
    ldir = reinterpret_cast<ldir_t*>(dirFile->readDirCache());
   d6972:	2100      	movs	r1, #0
   d6974:	4628      	mov	r0, r5
   d6976:	f000 fac1 	bl	d6efc <_ZN7FatFile12readDirCacheEb>
    if (!ldir) {
   d697a:	4604      	mov	r4, r0
   d697c:	2800      	cmp	r0, #0
   d697e:	d09c      	beq.n	d68ba <_ZN7FatFile4openEPS_P7fname_ti+0x1a>
    dirFile->m_vol->cacheDirty();
   d6980:	68aa      	ldr	r2, [r5, #8]
    m_status |= CACHE_STATUS_DIRTY;
   d6982:	f892 3024 	ldrb.w	r3, [r2, #36]	; 0x24
    ldir->ord = ord == lfnOrd ? LDIR_ORD_LAST_LONG_ENTRY | ord : ord;
   d6986:	4556      	cmp	r6, sl
   d6988:	f043 0301 	orr.w	r3, r3, #1
   d698c:	bf0c      	ite	eq
   d698e:	f046 0b40 	orreq.w	fp, r6, #64	; 0x40
   d6992:	46b3      	movne	fp, r6
   d6994:	f882 3024 	strb.w	r3, [r2, #36]	; 0x24
   d6998:	f880 b000 	strb.w	fp, [r0]
    ldir->attr = DIR_ATT_LONG_NAME;
   d699c:	72c7      	strb	r7, [r0, #11]
    ldir->type = 0;
   d699e:	f880 900c 	strb.w	r9, [r0, #12]
    ldir->chksum = lfnChecksum(fname->sfn);
   d69a2:	f108 000d 	add.w	r0, r8, #13
   d69a6:	f7ff fe37 	bl	d6618 <_ZN7FatFile11lfnChecksumEPh>
  size_t k = 13*((ldir->ord & 0X1F) - 1);
   d69aa:	f00b 0b1f 	and.w	fp, fp, #31
    ldir->chksum = lfnChecksum(fname->sfn);
   d69ae:	7360      	strb	r0, [r4, #13]
    ldir->mustBeZero = 0;
   d69b0:	f884 901a 	strb.w	r9, [r4, #26]
   d69b4:	f884 901b 	strb.w	r9, [r4, #27]
  size_t k = 13*((ldir->ord & 0X1F) - 1);
   d69b8:	f10b 3bff 	add.w	fp, fp, #4294967295
   d69bc:	220d      	movs	r2, #13
    lfnPutName(ldir, fname->lfn, len);
   d69be:	f8d8 c008 	ldr.w	ip, [r8, #8]
  size_t k = 13*((ldir->ord & 0X1F) - 1);
   d69c2:	fb02 f20b 	mul.w	r2, r2, fp
   d69c6:	2300      	movs	r3, #0
    uint16_t c = k < n ? name[k] : k == n ? 0 : 0XFFFF;
   d69c8:	9904      	ldr	r1, [sp, #16]
   d69ca:	4291      	cmp	r1, r2
   d69cc:	f240 80e3 	bls.w	d6b96 <_ZN7FatFile4openEPS_P7fname_ti+0x2f6>
   d69d0:	f81c 1002 	ldrb.w	r1, [ip, r2]
  if (i < LDIR_NAME1_DIM) {
   d69d4:	2b04      	cmp	r3, #4
   d69d6:	fa5f fe83 	uxtb.w	lr, r3
   d69da:	f103 0001 	add.w	r0, r3, #1
   d69de:	f200 80e0 	bhi.w	d6ba2 <_ZN7FatFile4openEPS_P7fname_ti+0x302>
    ldir->name1[i] = c;
   d69e2:	eb04 0343 	add.w	r3, r4, r3, lsl #1
   d69e6:	f8a3 1001 	strh.w	r1, [r3, #1]
  for (uint8_t i = 0; i < 13; i++, k++) {
   d69ea:	280d      	cmp	r0, #13
   d69ec:	f102 0201 	add.w	r2, r2, #1
   d69f0:	4603      	mov	r3, r0
   d69f2:	d1e9      	bne.n	d69c8 <_ZN7FatFile4openEPS_P7fname_ti+0x128>
  for (uint8_t ord = lfnOrd ; ord ; ord--) {
   d69f4:	3e01      	subs	r6, #1
   d69f6:	b2f6      	uxtb	r6, r6
   d69f8:	e7b8      	b.n	d696c <_ZN7FatFile4openEPS_P7fname_ti+0xcc>
        fnameFound = true;
   d69fa:	f04f 0a01 	mov.w	sl, #1
   d69fe:	e785      	b.n	d690c <_ZN7FatFile4openEPS_P7fname_ti+0x6c>
    if (dir->name[0] == DIR_NAME_DELETED || dir->name[0] == DIR_NAME_FREE) {
   d6a00:	7802      	ldrb	r2, [r0, #0]
   d6a02:	2ae5      	cmp	r2, #229	; 0xe5
   d6a04:	d000      	beq.n	d6a08 <_ZN7FatFile4openEPS_P7fname_ti+0x168>
   d6a06:	b97a      	cbnz	r2, d6a28 <_ZN7FatFile4openEPS_P7fname_ti+0x188>
    curIndex = dirFile->m_curPosition/32;
   d6a08:	9903      	ldr	r1, [sp, #12]
   d6a0a:	2c00      	cmp	r4, #0
   d6a0c:	bf08      	it	eq
   d6a0e:	4649      	moveq	r1, r9
      if (freeFound < freeNeed) {
   d6a10:	42bc      	cmp	r4, r7
        freeFound++;
   d6a12:	bf38      	it	cc
   d6a14:	3401      	addcc	r4, #1
    curIndex = dirFile->m_curPosition/32;
   d6a16:	9103      	str	r1, [sp, #12]
        freeFound++;
   d6a18:	bf38      	it	cc
   d6a1a:	b2e4      	uxtbcc	r4, r4
      if (dir->name[0] == DIR_NAME_FREE) {
   d6a1c:	2a00      	cmp	r2, #0
   d6a1e:	d083      	beq.n	d6928 <_ZN7FatFile4openEPS_P7fname_ti+0x88>
    if (dir->name[0] == DIR_NAME_DELETED || dir->name[0] == '.') {
   d6a20:	2ae5      	cmp	r2, #229	; 0xe5
   d6a22:	d104      	bne.n	d6a2e <_ZN7FatFile4openEPS_P7fname_ti+0x18e>
      lfnOrd = 0;
   d6a24:	2600      	movs	r6, #0
   d6a26:	e771      	b.n	d690c <_ZN7FatFile4openEPS_P7fname_ti+0x6c>
        freeFound = 0;
   d6a28:	42bc      	cmp	r4, r7
   d6a2a:	bf38      	it	cc
   d6a2c:	2400      	movcc	r4, #0
    if (dir->name[0] == DIR_NAME_DELETED || dir->name[0] == '.') {
   d6a2e:	2a2e      	cmp	r2, #46	; 0x2e
   d6a30:	d0f8      	beq.n	d6a24 <_ZN7FatFile4openEPS_P7fname_ti+0x184>
    } else if (DIR_IS_LONG_NAME(dir)) {
   d6a32:	7ac1      	ldrb	r1, [r0, #11]
   d6a34:	290f      	cmp	r1, #15
   d6a36:	d15d      	bne.n	d6af4 <_ZN7FatFile4openEPS_P7fname_ti+0x254>
      if (!lfnOrd) {
   d6a38:	bb3e      	cbnz	r6, d6a8a <_ZN7FatFile4openEPS_P7fname_ti+0x1ea>
        if ((ldir->ord & LDIR_ORD_LAST_LONG_ENTRY) == 0) {
   d6a3a:	f012 0640 	ands.w	r6, r2, #64	; 0x40
   d6a3e:	f43f af65 	beq.w	d690c <_ZN7FatFile4openEPS_P7fname_ti+0x6c>
        lfnOrd = ord = ldir->ord & 0X1F;
   d6a42:	f002 061f 	and.w	r6, r2, #31
        chksum = ldir->chksum;
   d6a46:	7b43      	ldrb	r3, [r0, #13]
        lfnOrd = ord = ldir->ord & 0X1F;
   d6a48:	46b3      	mov	fp, r6
      size_t k = 13*(ord - 1);
   d6a4a:	f10b 32ff 	add.w	r2, fp, #4294967295
   d6a4e:	f04f 0e0d 	mov.w	lr, #13
   d6a52:	fb0e fe02 	mul.w	lr, lr, r2
      if (k >= len) {
   d6a56:	9a04      	ldr	r2, [sp, #16]
   d6a58:	4572      	cmp	r2, lr
   d6a5a:	d9e3      	bls.n	d6a24 <_ZN7FatFile4openEPS_P7fname_ti+0x184>
   d6a5c:	eba2 020e 	sub.w	r2, r2, lr
   d6a60:	9207      	str	r2, [sp, #28]
   d6a62:	f04f 0c00 	mov.w	ip, #0
  if (i < LDIR_NAME1_DIM) {
   d6a66:	f1bc 0f04 	cmp.w	ip, #4
   d6a6a:	eb0c 090e 	add.w	r9, ip, lr
   d6a6e:	fa5f f28c 	uxtb.w	r2, ip
   d6a72:	d814      	bhi.n	d6a9e <_ZN7FatFile4openEPS_P7fname_ti+0x1fe>
    return ldir->name1[i];
   d6a74:	eb00 024c 	add.w	r2, r0, ip, lsl #1
   d6a78:	f8b2 2001 	ldrh.w	r2, [r2, #1]
        if (k == len) {
   d6a7c:	9907      	ldr	r1, [sp, #28]
   d6a7e:	458c      	cmp	ip, r1
   d6a80:	d11b      	bne.n	d6aba <_ZN7FatFile4openEPS_P7fname_ti+0x21a>
            lfnOrd = 0;
   d6a82:	2a00      	cmp	r2, #0
   d6a84:	bf18      	it	ne
   d6a86:	2600      	movne	r6, #0
   d6a88:	e740      	b.n	d690c <_ZN7FatFile4openEPS_P7fname_ti+0x6c>
      } else if (ldir->ord != --ord || chksum != ldir->chksum) {
   d6a8a:	f10b 3bff 	add.w	fp, fp, #4294967295
   d6a8e:	fa5f fb8b 	uxtb.w	fp, fp
   d6a92:	455a      	cmp	r2, fp
   d6a94:	d1c6      	bne.n	d6a24 <_ZN7FatFile4openEPS_P7fname_ti+0x184>
   d6a96:	7b42      	ldrb	r2, [r0, #13]
   d6a98:	429a      	cmp	r2, r3
   d6a9a:	d0d6      	beq.n	d6a4a <_ZN7FatFile4openEPS_P7fname_ti+0x1aa>
   d6a9c:	e7c2      	b.n	d6a24 <_ZN7FatFile4openEPS_P7fname_ti+0x184>
  } else if (i < (LDIR_NAME1_DIM + LDIR_NAME2_DIM)) {
   d6a9e:	2a0a      	cmp	r2, #10
    return ldir->name2[i - LDIR_NAME1_DIM];
   d6aa0:	bf95      	itete	ls
   d6aa2:	f10c 32ff 	addls.w	r2, ip, #4294967295
    return ldir->name3[i - LDIR_NAME1_DIM - LDIR_NAME2_DIM];
   d6aa6:	f10c 0201 	addhi.w	r2, ip, #1
    return ldir->name2[i - LDIR_NAME1_DIM];
   d6aaa:	eb00 0242 	addls.w	r2, r0, r2, lsl #1
    return ldir->name3[i - LDIR_NAME1_DIM - LDIR_NAME2_DIM];
   d6aae:	eb00 0242 	addhi.w	r2, r0, r2, lsl #1
    return ldir->name2[i - LDIR_NAME1_DIM];
   d6ab2:	bf94      	ite	ls
   d6ab4:	88d2      	ldrhls	r2, [r2, #6]
    return ldir->name3[i - LDIR_NAME1_DIM - LDIR_NAME2_DIM];
   d6ab6:	8892      	ldrhhi	r2, [r2, #4]
   d6ab8:	e7e0      	b.n	d6a7c <_ZN7FatFile4openEPS_P7fname_ti+0x1dc>
        if (u > 255 || lfnToLower(u) != lfnToLower(fname->lfn[k++])) {
   d6aba:	2aff      	cmp	r2, #255	; 0xff
   d6abc:	d8b2      	bhi.n	d6a24 <_ZN7FatFile4openEPS_P7fname_ti+0x184>
   d6abe:	b2d2      	uxtb	r2, r2
  return 'A' <= c && c <= 'Z' ? c + 'a' - 'A' : c;
   d6ac0:	f1a2 0141 	sub.w	r1, r2, #65	; 0x41
   d6ac4:	2919      	cmp	r1, #25
        if (u > 255 || lfnToLower(u) != lfnToLower(fname->lfn[k++])) {
   d6ac6:	f8d8 1008 	ldr.w	r1, [r8, #8]
   d6aca:	f811 1009 	ldrb.w	r1, [r1, r9]
  return 'A' <= c && c <= 'Z' ? c + 'a' - 'A' : c;
   d6ace:	bf98      	it	ls
   d6ad0:	3220      	addls	r2, #32
   d6ad2:	f1a1 0941 	sub.w	r9, r1, #65	; 0x41
   d6ad6:	bf98      	it	ls
   d6ad8:	b2d2      	uxtbls	r2, r2
   d6ada:	f1b9 0f19 	cmp.w	r9, #25
   d6ade:	bf9c      	itt	ls
   d6ae0:	3120      	addls	r1, #32
   d6ae2:	b2c9      	uxtbls	r1, r1
        if (u > 255 || lfnToLower(u) != lfnToLower(fname->lfn[k++])) {
   d6ae4:	4291      	cmp	r1, r2
   d6ae6:	d19d      	bne.n	d6a24 <_ZN7FatFile4openEPS_P7fname_ti+0x184>
      for (uint8_t i = 0; i < 13; i++) {
   d6ae8:	f10c 0c01 	add.w	ip, ip, #1
   d6aec:	f1bc 0f0d 	cmp.w	ip, #13
   d6af0:	d1b9      	bne.n	d6a66 <_ZN7FatFile4openEPS_P7fname_ti+0x1c6>
   d6af2:	e70b      	b.n	d690c <_ZN7FatFile4openEPS_P7fname_ti+0x6c>
    } else if (DIR_IS_FILE_OR_SUBDIR(dir)) {
   d6af4:	070a      	lsls	r2, r1, #28
   d6af6:	d495      	bmi.n	d6a24 <_ZN7FatFile4openEPS_P7fname_ti+0x184>
      if (lfnOrd) {
   d6af8:	b166      	cbz	r6, d6b14 <_ZN7FatFile4openEPS_P7fname_ti+0x274>
        if (1 == ord && lfnChecksum(dir->name) == chksum) {
   d6afa:	f1bb 0f01 	cmp.w	fp, #1
   d6afe:	9303      	str	r3, [sp, #12]
   d6b00:	f47f aedb 	bne.w	d68ba <_ZN7FatFile4openEPS_P7fname_ti+0x1a>
   d6b04:	f7ff fd88 	bl	d6618 <_ZN7FatFile11lfnChecksumEPh>
   d6b08:	9b03      	ldr	r3, [sp, #12]
   d6b0a:	4298      	cmp	r0, r3
   d6b0c:	f47f aed5 	bne.w	d68ba <_ZN7FatFile4openEPS_P7fname_ti+0x1a>
   d6b10:	46b2      	mov	sl, r6
   d6b12:	e00f      	b.n	d6b34 <_ZN7FatFile4openEPS_P7fname_ti+0x294>
      if (!memcmp(dir->name, fname->sfn, sizeof(fname->sfn))) {
   d6b14:	ee18 1a10 	vmov	r1, s16
   d6b18:	220b      	movs	r2, #11
   d6b1a:	9307      	str	r3, [sp, #28]
   d6b1c:	f007 f872 	bl	ddc04 <memcmp>
   d6b20:	9b07      	ldr	r3, [sp, #28]
   d6b22:	2800      	cmp	r0, #0
   d6b24:	f47f aef2 	bne.w	d690c <_ZN7FatFile4openEPS_P7fname_ti+0x6c>
        if (!(fname->flags & FNAME_FLAG_LOST_CHARS)) {
   d6b28:	f898 a000 	ldrb.w	sl, [r8]
   d6b2c:	f01a 0a01 	ands.w	sl, sl, #1
   d6b30:	f47f af63 	bne.w	d69fa <_ZN7FatFile4openEPS_P7fname_ti+0x15a>
  if (oflag & O_EXCL) {
   d6b34:	9b05      	ldr	r3, [sp, #20]
   d6b36:	0519      	lsls	r1, r3, #20
   d6b38:	f53f aebf 	bmi.w	d68ba <_ZN7FatFile4openEPS_P7fname_ti+0x1a>
  if (!openCachedEntry(dirFile, curIndex, oflag, lfnOrd)) {
   d6b3c:	9b05      	ldr	r3, [sp, #20]
   d6b3e:	9806      	ldr	r0, [sp, #24]
   d6b40:	f8cd a000 	str.w	sl, [sp]
   d6b44:	464a      	mov	r2, r9
   d6b46:	4629      	mov	r1, r5
   d6b48:	f000 fa3a 	bl	d6fc0 <_ZN7FatFile15openCachedEntryEPS_tih>
   d6b4c:	e6b6      	b.n	d68bc <_ZN7FatFile4openEPS_P7fname_ti+0x1c>
    dir = dirFile->readDirCache();
   d6b4e:	2100      	movs	r1, #0
   d6b50:	4628      	mov	r0, r5
   d6b52:	f000 f9d3 	bl	d6efc <_ZN7FatFile12readDirCacheEb>
    if (!dir) {
   d6b56:	b998      	cbnz	r0, d6b80 <_ZN7FatFile4openEPS_P7fname_ti+0x2e0>
      if (dirFile->getError()) {
   d6b58:	786b      	ldrb	r3, [r5, #1]
   d6b5a:	2b00      	cmp	r3, #0
   d6b5c:	f47f aead 	bne.w	d68ba <_ZN7FatFile4openEPS_P7fname_ti+0x1a>
    if (!dirFile->addDirCluster()) {
   d6b60:	4628      	mov	r0, r5
   d6b62:	f000 f86f 	bl	d6c44 <_ZN7FatFile13addDirClusterEv>
   d6b66:	2800      	cmp	r0, #0
   d6b68:	f43f aea7 	beq.w	d68ba <_ZN7FatFile4openEPS_P7fname_ti+0x1a>
    if (dirFile->m_vol->blocksPerCluster() > 1) {
   d6b6c:	68ab      	ldr	r3, [r5, #8]
   d6b6e:	791b      	ldrb	r3, [r3, #4]
   d6b70:	2b01      	cmp	r3, #1
   d6b72:	f63f aee9 	bhi.w	d6948 <_ZN7FatFile4openEPS_P7fname_ti+0xa8>
    freeFound += 16;
   d6b76:	3410      	adds	r4, #16
   d6b78:	b2e4      	uxtb	r4, r4
  while (freeFound < freeNeed) {
   d6b7a:	42a7      	cmp	r7, r4
   d6b7c:	d8f0      	bhi.n	d6b60 <_ZN7FatFile4openEPS_P7fname_ti+0x2c0>
   d6b7e:	e6e3      	b.n	d6948 <_ZN7FatFile4openEPS_P7fname_ti+0xa8>
    freeFound++;
   d6b80:	3401      	adds	r4, #1
   d6b82:	b2e4      	uxtb	r4, r4
  while (freeFound < freeNeed) {
   d6b84:	e6dd      	b.n	d6942 <_ZN7FatFile4openEPS_P7fname_ti+0xa2>
    if (!dirFile->lfnUniqueSfn(fname)) {
   d6b86:	4641      	mov	r1, r8
   d6b88:	4628      	mov	r0, r5
   d6b8a:	f7ff fe35 	bl	d67f8 <_ZN7FatFile12lfnUniqueSfnEP7fname_t>
   d6b8e:	2800      	cmp	r0, #0
   d6b90:	f47f aede 	bne.w	d6950 <_ZN7FatFile4openEPS_P7fname_ti+0xb0>
   d6b94:	e691      	b.n	d68ba <_ZN7FatFile4openEPS_P7fname_ti+0x1a>
    uint16_t c = k < n ? name[k] : k == n ? 0 : 0XFFFF;
   d6b96:	bf14      	ite	ne
   d6b98:	f04f 31ff 	movne.w	r1, #4294967295
   d6b9c:	2100      	moveq	r1, #0
   d6b9e:	b289      	uxth	r1, r1
   d6ba0:	e718      	b.n	d69d4 <_ZN7FatFile4openEPS_P7fname_ti+0x134>
  } else if (i < (LDIR_NAME1_DIM + LDIR_NAME2_DIM)) {
   d6ba2:	f1be 0f0a 	cmp.w	lr, #10
    ldir->name2[i - LDIR_NAME1_DIM] = c;
   d6ba6:	bf94      	ite	ls
   d6ba8:	eb04 0343 	addls.w	r3, r4, r3, lsl #1
    ldir->name3[i - LDIR_NAME1_DIM - LDIR_NAME2_DIM] = c;
   d6bac:	eb04 0340 	addhi.w	r3, r4, r0, lsl #1
   d6bb0:	8099      	strh	r1, [r3, #4]
   d6bb2:	e71a      	b.n	d69ea <_ZN7FatFile4openEPS_P7fname_ti+0x14a>
  dir = dirFile->readDirCache();
   d6bb4:	4631      	mov	r1, r6
   d6bb6:	4628      	mov	r0, r5
  curIndex = dirFile->m_curPosition/32;
   d6bb8:	696f      	ldr	r7, [r5, #20]
  dir = dirFile->readDirCache();
   d6bba:	f000 f99f 	bl	d6efc <_ZN7FatFile12readDirCacheEb>
  if (!dir) {
   d6bbe:	4604      	mov	r4, r0
   d6bc0:	2800      	cmp	r0, #0
   d6bc2:	f43f ae7a 	beq.w	d68ba <_ZN7FatFile4openEPS_P7fname_ti+0x1a>
  memset(dir, 0, sizeof(dir_t));
   d6bc6:	2220      	movs	r2, #32
   d6bc8:	4631      	mov	r1, r6
   d6bca:	f007 f851 	bl	ddc70 <memset>
  memcpy(dir->name, fname->sfn, 11);
   d6bce:	4643      	mov	r3, r8
   d6bd0:	f853 2f0d 	ldr.w	r2, [r3, #13]!
   d6bd4:	6022      	str	r2, [r4, #0]
   d6bd6:	685a      	ldr	r2, [r3, #4]
   d6bd8:	6062      	str	r2, [r4, #4]
   d6bda:	891a      	ldrh	r2, [r3, #8]
   d6bdc:	8122      	strh	r2, [r4, #8]
   d6bde:	7a9b      	ldrb	r3, [r3, #10]
   d6be0:	72a3      	strb	r3, [r4, #10]
  dir->reservedNT =  (DIR_NT_LC_BASE | DIR_NT_LC_EXT) & fname->flags;
   d6be2:	f898 3000 	ldrb.w	r3, [r8]
   d6be6:	f003 0318 	and.w	r3, r3, #24
   d6bea:	7323      	strb	r3, [r4, #12]
  if (m_dateTime) {
   d6bec:	4b0f      	ldr	r3, [pc, #60]	; (d6c2c <_ZN7FatFile4openEPS_P7fname_ti+0x38c>)
   d6bee:	681b      	ldr	r3, [r3, #0]
   d6bf0:	b19b      	cbz	r3, d6c1a <_ZN7FatFile4openEPS_P7fname_ti+0x37a>
    m_dateTime(&dir->creationDate, &dir->creationTime);
   d6bf2:	f104 010e 	add.w	r1, r4, #14
   d6bf6:	f104 0010 	add.w	r0, r4, #16
   d6bfa:	4798      	blx	r3
  dir->lastAccessDate = dir->creationDate;
   d6bfc:	8a23      	ldrh	r3, [r4, #16]
   d6bfe:	8263      	strh	r3, [r4, #18]
  dir->lastWriteDate = dir->creationDate;
   d6c00:	8323      	strh	r3, [r4, #24]
  dir->lastWriteTime = dir->creationTime;
   d6c02:	89e3      	ldrh	r3, [r4, #14]
   d6c04:	82e3      	strh	r3, [r4, #22]
  dirFile->m_vol->cacheDirty();
   d6c06:	68aa      	ldr	r2, [r5, #8]
   d6c08:	f892 3024 	ldrb.w	r3, [r2, #36]	; 0x24
   d6c0c:	f043 0301 	orr.w	r3, r3, #1
  curIndex = dirFile->m_curPosition/32;
   d6c10:	f3c7 194f 	ubfx	r9, r7, #5, #16
   d6c14:	f882 3024 	strb.w	r3, [r2, #36]	; 0x24
  uint32_t cacheBlockNumber() {
    return m_cache.lbn();
  }
  void cacheDirty() {
    m_cache.dirty();
  }
   d6c18:	e790      	b.n	d6b3c <_ZN7FatFile4openEPS_P7fname_ti+0x29c>
    dir->creationDate = FAT_DEFAULT_DATE;
   d6c1a:	2321      	movs	r3, #33	; 0x21
   d6c1c:	7423      	strb	r3, [r4, #16]
   d6c1e:	2328      	movs	r3, #40	; 0x28
   d6c20:	7463      	strb	r3, [r4, #17]
    dir->creationTime = FAT_DEFAULT_TIME;
   d6c22:	2308      	movs	r3, #8
   d6c24:	73a6      	strb	r6, [r4, #14]
   d6c26:	73e3      	strb	r3, [r4, #15]
   d6c28:	e7e8      	b.n	d6bfc <_ZN7FatFile4openEPS_P7fname_ti+0x35c>
   d6c2a:	bf00      	nop
   d6c2c:	2003e5b4 	.word	0x2003e5b4

000d6c30 <_ZN7FatFile10addClusterEv>:
// Callback function for date/time.
void (*FatFile::m_dateTime)(uint16_t* date, uint16_t* time) = 0;
//------------------------------------------------------------------------------
// Add a cluster to a file.
bool FatFile::addCluster() {
  m_flags |= F_FILE_DIR_DIRTY;
   d6c30:	7883      	ldrb	r3, [r0, #2]
  return m_vol->allocateCluster(m_curCluster, &m_curCluster);
   d6c32:	6901      	ldr	r1, [r0, #16]
  m_flags |= F_FILE_DIR_DIRTY;
   d6c34:	f043 0304 	orr.w	r3, r3, #4
   d6c38:	7083      	strb	r3, [r0, #2]
  return m_vol->allocateCluster(m_curCluster, &m_curCluster);
   d6c3a:	f100 0210 	add.w	r2, r0, #16
   d6c3e:	6880      	ldr	r0, [r0, #8]
   d6c40:	f000 bc44 	b.w	d74cc <_ZN9FatVolume15allocateClusterEmPm>

000d6c44 <_ZN7FatFile13addDirClusterEv>:
}
//------------------------------------------------------------------------------
// Add a cluster to a directory file and zero the cluster.
// Return with first block of cluster in the cache.
bool FatFile::addDirCluster() {
   d6c44:	e92d 41f0 	stmdb	sp!, {r4, r5, r6, r7, r8, lr}
  uint32_t block;
  cache_t* pc;

  if (isRootFixed()) {
   d6c48:	7801      	ldrb	r1, [r0, #0]
   d6c4a:	f011 0520 	ands.w	r5, r1, #32
bool FatFile::addDirCluster() {
   d6c4e:	4604      	mov	r4, r0
  if (isRootFixed()) {
   d6c50:	d003      	beq.n	d6c5a <_ZN7FatFile13addDirClusterEv+0x16>
  // Set position to EOF to avoid inconsistent curCluster/curPosition.
  m_curPosition += 512UL*m_vol->blocksPerCluster();
  return true;

fail:
  return false;
   d6c52:	2600      	movs	r6, #0
}
   d6c54:	4630      	mov	r0, r6
   d6c56:	e8bd 81f0 	ldmia.w	sp!, {r4, r5, r6, r7, r8, pc}
  if (m_curPosition >= 512UL*4095) {
   d6c5a:	6942      	ldr	r2, [r0, #20]
   d6c5c:	4b17      	ldr	r3, [pc, #92]	; (d6cbc <_ZN7FatFile13addDirClusterEv+0x78>)
   d6c5e:	429a      	cmp	r2, r3
   d6c60:	d2f7      	bcs.n	d6c52 <_ZN7FatFile13addDirClusterEv+0xe>
  if (!addCluster()) {
   d6c62:	f7ff ffe5 	bl	d6c30 <_ZN7FatFile10addClusterEv>
   d6c66:	4606      	mov	r6, r0
   d6c68:	2800      	cmp	r0, #0
   d6c6a:	d0f2      	beq.n	d6c52 <_ZN7FatFile13addDirClusterEv+0xe>
  block = m_vol->clusterFirstBlock(m_curCluster);
   d6c6c:	6921      	ldr	r1, [r4, #16]
   d6c6e:	68a0      	ldr	r0, [r4, #8]
   d6c70:	f000 fbc1 	bl	d73f6 <_ZNK9FatVolume17clusterFirstBlockEm>
   d6c74:	4607      	mov	r7, r0
    return m_cache.read(blockNumber, options);
   d6c76:	68a0      	ldr	r0, [r4, #8]
   d6c78:	2205      	movs	r2, #5
   d6c7a:	4639      	mov	r1, r7
   d6c7c:	3024      	adds	r0, #36	; 0x24
   d6c7e:	f000 fb97 	bl	d73b0 <_ZN8FatCache4readEmh>
  if (!pc) {
   d6c82:	4680      	mov	r8, r0
   d6c84:	2800      	cmp	r0, #0
   d6c86:	d0e4      	beq.n	d6c52 <_ZN7FatFile13addDirClusterEv+0xe>
  memset(pc, 0, 512);
   d6c88:	4629      	mov	r1, r5
   d6c8a:	f44f 7200 	mov.w	r2, #512	; 0x200
   d6c8e:	f006 ffef 	bl	ddc70 <memset>
  for (uint8_t i = 1; i < m_vol->blocksPerCluster(); i++) {
   d6c92:	2501      	movs	r5, #1
   d6c94:	68a3      	ldr	r3, [r4, #8]
   d6c96:	791a      	ldrb	r2, [r3, #4]
   d6c98:	42aa      	cmp	r2, r5
   d6c9a:	d909      	bls.n	d6cb0 <_ZN7FatFile13addDirClusterEv+0x6c>
    return m_blockDev->writeBlock(block, src);
   d6c9c:	6818      	ldr	r0, [r3, #0]
   d6c9e:	4642      	mov	r2, r8
   d6ca0:	19e9      	adds	r1, r5, r7
   d6ca2:	f000 feee 	bl	d7a82 <_ZN9SdSpiCard10writeBlockEmPKh>
    if (!m_vol->writeBlock(block + i, pc->data)) {
   d6ca6:	2800      	cmp	r0, #0
   d6ca8:	d0d3      	beq.n	d6c52 <_ZN7FatFile13addDirClusterEv+0xe>
  for (uint8_t i = 1; i < m_vol->blocksPerCluster(); i++) {
   d6caa:	3501      	adds	r5, #1
   d6cac:	b2ed      	uxtb	r5, r5
   d6cae:	e7f1      	b.n	d6c94 <_ZN7FatFile13addDirClusterEv+0x50>
  m_curPosition += 512UL*m_vol->blocksPerCluster();
   d6cb0:	6963      	ldr	r3, [r4, #20]
   d6cb2:	eb03 2342 	add.w	r3, r3, r2, lsl #9
   d6cb6:	6163      	str	r3, [r4, #20]
  return true;
   d6cb8:	e7cc      	b.n	d6c54 <_ZN7FatFile13addDirClusterEv+0x10>
   d6cba:	bf00      	nop
   d6cbc:	001ffe00 	.word	0x001ffe00

000d6cc0 <_ZN7FatFile13cacheDirEntryEh>:
//------------------------------------------------------------------------------
// cache a file's directory entry
// return pointer to cached entry or null for failure
dir_t* FatFile::cacheDirEntry(uint8_t action) {
   d6cc0:	b510      	push	{r4, lr}
   d6cc2:	4604      	mov	r4, r0
    return m_cache.read(blockNumber, options);
   d6cc4:	6880      	ldr	r0, [r0, #8]
   d6cc6:	460a      	mov	r2, r1
   d6cc8:	3024      	adds	r0, #36	; 0x24
   d6cca:	69a1      	ldr	r1, [r4, #24]
   d6ccc:	f000 fb70 	bl	d73b0 <_ZN8FatCache4readEmh>
  cache_t* pc;
  pc = m_vol->cacheFetchData(m_dirBlock, action);
  if (!pc) {
   d6cd0:	b120      	cbz	r0, d6cdc <_ZN7FatFile13cacheDirEntryEh+0x1c>
    DBG_FAIL_MACRO;
    goto fail;
  }
  return pc->dir + (m_dirIndex & 0XF);
   d6cd2:	88a3      	ldrh	r3, [r4, #4]
   d6cd4:	f003 030f 	and.w	r3, r3, #15
   d6cd8:	eb00 1043 	add.w	r0, r0, r3, lsl #5

fail:
  return 0;
}
   d6cdc:	bd10      	pop	{r4, pc}

000d6cde <_ZN7FatFile8openRootEP9FatVolume>:
fail:
  return false;
}
#endif  // DOXYGEN_SHOULD_SKIP_THIS
//------------------------------------------------------------------------------
bool FatFile::openRoot(FatVolume* vol) {
   d6cde:	b570      	push	{r4, r5, r6, lr}
  // error if file is already open
  if (isOpen()) {
   d6ce0:	7804      	ldrb	r4, [r0, #0]
bool FatFile::openRoot(FatVolume* vol) {
   d6ce2:	4605      	mov	r5, r0
   d6ce4:	460e      	mov	r6, r1
  if (isOpen()) {
   d6ce6:	b94c      	cbnz	r4, d6cfc <_ZN7FatFile8openRootEP9FatVolume+0x1e>
    DBG_FAIL_MACRO;
    goto fail;
  }
  memset(this, 0, sizeof(FatFile));
   d6ce8:	2224      	movs	r2, #36	; 0x24
   d6cea:	4621      	mov	r1, r4
   d6cec:	f006 ffc0 	bl	ddc70 <memset>

  m_vol = vol;
   d6cf0:	60ae      	str	r6, [r5, #8]
  switch (vol->fatType()) {
   d6cf2:	79f3      	ldrb	r3, [r6, #7]
   d6cf4:	2b10      	cmp	r3, #16
   d6cf6:	d003      	beq.n	d6d00 <_ZN7FatFile8openRootEP9FatVolume+0x22>
   d6cf8:	2b20      	cmp	r3, #32
   d6cfa:	d007      	beq.n	d6d0c <_ZN7FatFile8openRootEP9FatVolume+0x2e>
  // read only
  m_flags = F_READ;
  return true;

fail:
  return false;
   d6cfc:	2000      	movs	r0, #0
   d6cfe:	e004      	b.n	d6d0a <_ZN7FatFile8openRootEP9FatVolume+0x2c>
    m_attr = FILE_ATTR_ROOT_FIXED;
   d6d00:	2320      	movs	r3, #32
  m_flags = F_READ;
   d6d02:	2401      	movs	r4, #1
    m_attr = FILE_ATTR_ROOT32;
   d6d04:	702b      	strb	r3, [r5, #0]
  m_flags = F_READ;
   d6d06:	70ac      	strb	r4, [r5, #2]
  return true;
   d6d08:	4620      	mov	r0, r4
}
   d6d0a:	bd70      	pop	{r4, r5, r6, pc}
    m_attr = FILE_ATTR_ROOT32;
   d6d0c:	2340      	movs	r3, #64	; 0x40
   d6d0e:	e7f8      	b.n	d6d02 <_ZN7FatFile8openRootEP9FatVolume+0x24>

000d6d10 <_ZN7FatFile4readEPvj>:
    setpos(&pos);
  }
  return c;
}
//------------------------------------------------------------------------------
int FatFile::read(void* buf, size_t nbyte) {
   d6d10:	e92d 4ff7 	stmdb	sp!, {r0, r1, r2, r4, r5, r6, r7, r8, r9, sl, fp, lr}
  size_t toRead;
  uint32_t block;  // raw device block number
  cache_t* pc;

  // error if not open for read
  if (!isOpen() || !(m_flags & F_READ)) {
   d6d14:	7803      	ldrb	r3, [r0, #0]
int FatFile::read(void* buf, size_t nbyte) {
   d6d16:	4604      	mov	r4, r0
   d6d18:	4688      	mov	r8, r1
   d6d1a:	4615      	mov	r5, r2
  if (!isOpen() || !(m_flags & F_READ)) {
   d6d1c:	2b00      	cmp	r3, #0
   d6d1e:	d05d      	beq.n	d6ddc <_ZN7FatFile4readEPvj+0xcc>
   d6d20:	7882      	ldrb	r2, [r0, #2]
   d6d22:	07d1      	lsls	r1, r2, #31
   d6d24:	d55a      	bpl.n	d6ddc <_ZN7FatFile4readEPvj+0xcc>
    DBG_FAIL_MACRO;
    goto fail;
  }

  if (isFile()) {
   d6d26:	071a      	lsls	r2, r3, #28
   d6d28:	d52d      	bpl.n	d6d86 <_ZN7FatFile4readEPvj+0x76>
    uint32_t tmp32 = m_fileSize - m_curPosition;
   d6d2a:	69c3      	ldr	r3, [r0, #28]
   d6d2c:	6942      	ldr	r2, [r0, #20]
   d6d2e:	1a9b      	subs	r3, r3, r2
   d6d30:	429d      	cmp	r5, r3
   d6d32:	bf28      	it	cs
   d6d34:	461d      	movcs	r5, r3
    uint16_t tmp16 = 32*m_vol->m_rootDirEntryCount - (uint16_t)m_curPosition;
    if (nbyte > tmp16) {
      nbyte = tmp16;
    }
  }
  toRead = nbyte;
   d6d36:	462e      	mov	r6, r5
  uint8_t blockOfCluster = 0;
   d6d38:	f04f 0900 	mov.w	r9, #0
        if (m_curPosition == 0) {
          // use first cluster in file
          m_curCluster = isRoot32() ? m_vol->rootDirStart() : m_firstCluster;
        } else {
          // get next cluster from FAT
          fg = m_vol->fatGet(m_curCluster, &m_curCluster);
   d6d3c:	f104 0b10 	add.w	fp, r4, #16
  while (toRead) {
   d6d40:	2e00      	cmp	r6, #0
   d6d42:	f000 808f 	beq.w	d6e64 <_ZN7FatFile4readEPvj+0x154>
    if (isRootFixed()) {
   d6d46:	7822      	ldrb	r2, [r4, #0]
    offset = m_curPosition & 0X1FF;  // offset in block
   d6d48:	6963      	ldr	r3, [r4, #20]
   d6d4a:	68a0      	ldr	r0, [r4, #8]
    if (isRootFixed()) {
   d6d4c:	0697      	lsls	r7, r2, #26
    offset = m_curPosition & 0X1FF;  // offset in block
   d6d4e:	f3c3 0a08 	ubfx	sl, r3, #0, #9
    return m_attr & FILE_ATTR_ROOT_FIXED;
   d6d52:	ea4f 2153 	mov.w	r1, r3, lsr #9
    if (isRootFixed()) {
   d6d56:	d51f      	bpl.n	d6d98 <_ZN7FatFile4readEPvj+0x88>
      block = m_vol->rootDirStart() + (m_curPosition >> 9);
   d6d58:	6a00      	ldr	r0, [r0, #32]
   d6d5a:	4401      	add	r1, r0
          }
        }
      }
      block = m_vol->clusterFirstBlock(m_curCluster) + blockOfCluster;
    }
    if (offset != 0 || toRead < 512 || block == m_vol->cacheBlockNumber()) {
   d6d5c:	68a0      	ldr	r0, [r4, #8]
   d6d5e:	f1ba 0f00 	cmp.w	sl, #0
   d6d62:	d142      	bne.n	d6dea <_ZN7FatFile4readEPvj+0xda>
   d6d64:	f5b6 7f00 	cmp.w	r6, #512	; 0x200
   d6d68:	d33f      	bcc.n	d6dea <_ZN7FatFile4readEPvj+0xda>
    return m_cache.lbn();
   d6d6a:	6ac3      	ldr	r3, [r0, #44]	; 0x2c
   d6d6c:	4299      	cmp	r1, r3
   d6d6e:	d03c      	beq.n	d6dea <_ZN7FatFile4readEPvj+0xda>
        goto fail;
      }
      uint8_t* src = pc->data + offset;
      memcpy(dst, src, n);
#if USE_MULTI_BLOCK_IO
    } else if (toRead >= 1024) {
   d6d70:	f5b6 6f80 	cmp.w	r6, #1024	; 0x400
   d6d74:	d252      	bcs.n	d6e1c <_ZN7FatFile4readEPvj+0x10c>
    return m_blockDev->readBlock(block, dst);
   d6d76:	6800      	ldr	r0, [r0, #0]
   d6d78:	4642      	mov	r2, r8
   d6d7a:	f000 fdf9 	bl	d7970 <_ZN9SdSpiCard9readBlockEmPh>
      }
#endif  // USE_MULTI_BLOCK_IO
    } else {
      // read single block
      n = 512;
      if (!m_vol->readBlock(block, dst)) {
   d6d7e:	b368      	cbz	r0, d6ddc <_ZN7FatFile4readEPvj+0xcc>
      n = 512;
   d6d80:	f44f 7700 	mov.w	r7, #512	; 0x200
   d6d84:	e044      	b.n	d6e10 <_ZN7FatFile4readEPvj+0x100>
  } else if (isRootFixed()) {
   d6d86:	069b      	lsls	r3, r3, #26
   d6d88:	d5d5      	bpl.n	d6d36 <_ZN7FatFile4readEPvj+0x26>
    uint16_t tmp16 = 32*m_vol->m_rootDirEntryCount - (uint16_t)m_curPosition;
   d6d8a:	6883      	ldr	r3, [r0, #8]
   d6d8c:	891a      	ldrh	r2, [r3, #8]
   d6d8e:	6943      	ldr	r3, [r0, #20]
   d6d90:	ebc3 1342 	rsb	r3, r3, r2, lsl #5
    if (nbyte > tmp16) {
   d6d94:	b29b      	uxth	r3, r3
   d6d96:	e7cb      	b.n	d6d30 <_ZN7FatFile4readEPvj+0x20>
//------------------------------------------------------------------------------
  bool allocateCluster(uint32_t current, uint32_t* next);
  bool allocContiguous(uint32_t count, uint32_t* firstCluster);
  uint8_t blockOfCluster(uint32_t position) const {
    return (position >> 9) & m_clusterBlockMask;
   d6d98:	f890 9005 	ldrb.w	r9, [r0, #5]
   d6d9c:	ea09 0901 	and.w	r9, r9, r1
      if (offset == 0 && blockOfCluster == 0) {
   d6da0:	f1ba 0f00 	cmp.w	sl, #0
   d6da4:	d108      	bne.n	d6db8 <_ZN7FatFile4readEPvj+0xa8>
   d6da6:	f1b9 0f00 	cmp.w	r9, #0
   d6daa:	d105      	bne.n	d6db8 <_ZN7FatFile4readEPvj+0xa8>
        if (m_curPosition == 0) {
   d6dac:	b95b      	cbnz	r3, d6dc6 <_ZN7FatFile4readEPvj+0xb6>
          m_curCluster = isRoot32() ? m_vol->rootDirStart() : m_firstCluster;
   d6dae:	0651      	lsls	r1, r2, #25
   d6db0:	bf4c      	ite	mi
   d6db2:	6a03      	ldrmi	r3, [r0, #32]
   d6db4:	6a23      	ldrpl	r3, [r4, #32]
   d6db6:	6123      	str	r3, [r4, #16]
      block = m_vol->clusterFirstBlock(m_curCluster) + blockOfCluster;
   d6db8:	6921      	ldr	r1, [r4, #16]
   d6dba:	68a0      	ldr	r0, [r4, #8]
   d6dbc:	f000 fb1b 	bl	d73f6 <_ZNK9FatVolume17clusterFirstBlockEm>
   d6dc0:	eb09 0100 	add.w	r1, r9, r0
   d6dc4:	e7ca      	b.n	d6d5c <_ZN7FatFile4readEPvj+0x4c>
          fg = m_vol->fatGet(m_curCluster, &m_curCluster);
   d6dc6:	6921      	ldr	r1, [r4, #16]
   d6dc8:	465a      	mov	r2, fp
   d6dca:	f000 fb1a 	bl	d7402 <_ZN9FatVolume6fatGetEmPm>
          if (fg < 0) {
   d6dce:	2800      	cmp	r0, #0
   d6dd0:	db04      	blt.n	d6ddc <_ZN7FatFile4readEPvj+0xcc>
          if (fg == 0) {
   d6dd2:	d1f1      	bne.n	d6db8 <_ZN7FatFile4readEPvj+0xa8>
            if (isDir()) {
   d6dd4:	7823      	ldrb	r3, [r4, #0]
   d6dd6:	f013 0f70 	tst.w	r3, #112	; 0x70
   d6dda:	d143      	bne.n	d6e64 <_ZN7FatFile4readEPvj+0x154>
    toRead -= n;
  }
  return nbyte - toRead;

fail:
  m_error |= READ_ERROR;
   d6ddc:	7863      	ldrb	r3, [r4, #1]
   d6dde:	f043 0302 	orr.w	r3, r3, #2
   d6de2:	7063      	strb	r3, [r4, #1]
  return -1;
   d6de4:	f04f 30ff 	mov.w	r0, #4294967295
   d6de8:	e03d      	b.n	d6e66 <_ZN7FatFile4readEPvj+0x156>
      n = 512 - offset;
   d6dea:	f5ca 7700 	rsb	r7, sl, #512	; 0x200
      if (n > toRead) {
   d6dee:	42b7      	cmp	r7, r6
    return m_cache.read(blockNumber, options);
   d6df0:	f04f 0200 	mov.w	r2, #0
   d6df4:	f100 0024 	add.w	r0, r0, #36	; 0x24
   d6df8:	bf28      	it	cs
   d6dfa:	4637      	movcs	r7, r6
   d6dfc:	f000 fad8 	bl	d73b0 <_ZN8FatCache4readEmh>
      if (!pc) {
   d6e00:	2800      	cmp	r0, #0
   d6e02:	d0eb      	beq.n	d6ddc <_ZN7FatFile4readEPvj+0xcc>
      memcpy(dst, src, n);
   d6e04:	eb00 010a 	add.w	r1, r0, sl
   d6e08:	463a      	mov	r2, r7
   d6e0a:	4640      	mov	r0, r8
   d6e0c:	f006 ff08 	bl	ddc20 <memcpy>
    m_curPosition += n;
   d6e10:	6963      	ldr	r3, [r4, #20]
   d6e12:	443b      	add	r3, r7
    dst += n;
   d6e14:	44b8      	add	r8, r7
    m_curPosition += n;
   d6e16:	6163      	str	r3, [r4, #20]
    toRead -= n;
   d6e18:	1bf6      	subs	r6, r6, r7
  while (toRead) {
   d6e1a:	e791      	b.n	d6d40 <_ZN7FatFile4readEPvj+0x30>
      if (!isRootFixed()) {
   d6e1c:	7822      	ldrb	r2, [r4, #0]
   d6e1e:	0692      	lsls	r2, r2, #26
      size_t nb = toRead >> 9;
   d6e20:	ea4f 2a56 	mov.w	sl, r6, lsr #9
      if (!isRootFixed()) {
   d6e24:	d406      	bmi.n	d6e34 <_ZN7FatFile4readEPvj+0x124>
        uint8_t mb = m_vol->blocksPerCluster() - blockOfCluster;
   d6e26:	7902      	ldrb	r2, [r0, #4]
   d6e28:	eba2 0209 	sub.w	r2, r2, r9
        if (mb < nb) {
   d6e2c:	b2d2      	uxtb	r2, r2
   d6e2e:	4592      	cmp	sl, r2
   d6e30:	bf28      	it	cs
   d6e32:	4692      	movcs	sl, r2
          && block < (m_vol->cacheBlockNumber() + nb)) {
   d6e34:	4299      	cmp	r1, r3
      n = 512*nb;
   d6e36:	ea4f 274a 	mov.w	r7, sl, lsl #9
          && block < (m_vol->cacheBlockNumber() + nb)) {
   d6e3a:	d208      	bcs.n	d6e4e <_ZN7FatFile4readEPvj+0x13e>
    return m_blockDev->readBlocks(block, dst, nb);
   d6e3c:	68a0      	ldr	r0, [r4, #8]
   d6e3e:	4653      	mov	r3, sl
   d6e40:	6800      	ldr	r0, [r0, #0]
   d6e42:	4642      	mov	r2, r8
   d6e44:	f000 fddc 	bl	d7a00 <_ZN9SdSpiCard10readBlocksEmPhj>
      if (!m_vol->readBlocks(block, dst, nb)) {
   d6e48:	2800      	cmp	r0, #0
   d6e4a:	d1e1      	bne.n	d6e10 <_ZN7FatFile4readEPvj+0x100>
   d6e4c:	e7c6      	b.n	d6ddc <_ZN7FatFile4readEPvj+0xcc>
          && block < (m_vol->cacheBlockNumber() + nb)) {
   d6e4e:	4453      	add	r3, sl
   d6e50:	428b      	cmp	r3, r1
   d6e52:	d9f3      	bls.n	d6e3c <_ZN7FatFile4readEPvj+0x12c>
    return m_cache.sync();
   d6e54:	3024      	adds	r0, #36	; 0x24
   d6e56:	9101      	str	r1, [sp, #4]
   d6e58:	f000 fa82 	bl	d7360 <_ZN8FatCache4syncEv>
        if (!m_vol->cacheSyncData()) {
   d6e5c:	9901      	ldr	r1, [sp, #4]
   d6e5e:	2800      	cmp	r0, #0
   d6e60:	d1ec      	bne.n	d6e3c <_ZN7FatFile4readEPvj+0x12c>
   d6e62:	e7bb      	b.n	d6ddc <_ZN7FatFile4readEPvj+0xcc>
  return nbyte - toRead;
   d6e64:	1ba8      	subs	r0, r5, r6
}
   d6e66:	b003      	add	sp, #12
   d6e68:	e8bd 8ff0 	ldmia.w	sp!, {r4, r5, r6, r7, r8, r9, sl, fp, pc}

000d6e6c <_ZN7FatFile5fgetsEPcsS0_>:
int16_t FatFile::fgets(char* str, int16_t num, char* delim) {
   d6e6c:	e92d 47f3 	stmdb	sp!, {r0, r1, r4, r5, r6, r7, r8, r9, sl, lr}
   d6e70:	4680      	mov	r8, r0
   d6e72:	460e      	mov	r6, r1
   d6e74:	4691      	mov	r9, r2
   d6e76:	461f      	mov	r7, r3
  int16_t r = -1;
   d6e78:	f04f 35ff 	mov.w	r5, #4294967295
  int16_t n = 0;
   d6e7c:	f04f 0a00 	mov.w	sl, #0
  while ((n + 1) < num && (r = read(&ch, 1)) == 1) {
   d6e80:	f10a 0401 	add.w	r4, sl, #1
   d6e84:	454c      	cmp	r4, r9
   d6e86:	da1f      	bge.n	d6ec8 <_ZN7FatFile5fgetsEPcsS0_+0x5c>
   d6e88:	2201      	movs	r2, #1
   d6e8a:	f10d 0107 	add.w	r1, sp, #7
   d6e8e:	4640      	mov	r0, r8
   d6e90:	f7ff ff3e 	bl	d6d10 <_ZN7FatFile4readEPvj>
   d6e94:	b205      	sxth	r5, r0
   d6e96:	2d01      	cmp	r5, #1
   d6e98:	d116      	bne.n	d6ec8 <_ZN7FatFile5fgetsEPcsS0_+0x5c>
    if (ch == '\r') {
   d6e9a:	f89d 1007 	ldrb.w	r1, [sp, #7]
   d6e9e:	290d      	cmp	r1, #13
   d6ea0:	d0f0      	beq.n	d6e84 <_ZN7FatFile5fgetsEPcsS0_+0x18>
    str[n++] = ch;
   d6ea2:	f806 100a 	strb.w	r1, [r6, sl]
   d6ea6:	b224      	sxth	r4, r4
    if (!delim) {
   d6ea8:	b93f      	cbnz	r7, d6eba <_ZN7FatFile5fgetsEPcsS0_+0x4e>
      if (ch == '\n') {
   d6eaa:	290a      	cmp	r1, #10
   d6eac:	d10a      	bne.n	d6ec4 <_ZN7FatFile5fgetsEPcsS0_+0x58>
  str[n] = '\0';
   d6eae:	2300      	movs	r3, #0
   d6eb0:	5533      	strb	r3, [r6, r4]
}
   d6eb2:	4620      	mov	r0, r4
   d6eb4:	b002      	add	sp, #8
   d6eb6:	e8bd 87f0 	ldmia.w	sp!, {r4, r5, r6, r7, r8, r9, sl, pc}
      if (strchr(delim, ch)) {
   d6eba:	4638      	mov	r0, r7
   d6ebc:	f006 ff04 	bl	ddcc8 <strchr>
   d6ec0:	2800      	cmp	r0, #0
   d6ec2:	d1f4      	bne.n	d6eae <_ZN7FatFile5fgetsEPcsS0_+0x42>
int16_t FatFile::fgets(char* str, int16_t num, char* delim) {
   d6ec4:	46a2      	mov	sl, r4
   d6ec6:	e7db      	b.n	d6e80 <_ZN7FatFile5fgetsEPcsS0_+0x14>
  if (r < 0) {
   d6ec8:	2d00      	cmp	r5, #0
   d6eca:	db01      	blt.n	d6ed0 <_ZN7FatFile5fgetsEPcsS0_+0x64>
   d6ecc:	4654      	mov	r4, sl
   d6ece:	e7ee      	b.n	d6eae <_ZN7FatFile5fgetsEPcsS0_+0x42>
    return -1;
   d6ed0:	f04f 34ff 	mov.w	r4, #4294967295
   d6ed4:	e7ed      	b.n	d6eb2 <_ZN7FatFile5fgetsEPcsS0_+0x46>

000d6ed6 <_ZN7FatFile4peekEv>:
int FatFile::peek() {
   d6ed6:	b573      	push	{r0, r1, r4, r5, r6, lr}
    return read(&b, 1) == 1 ? b : -1;
   d6ed8:	2201      	movs	r2, #1
   d6eda:	f10d 0107 	add.w	r1, sp, #7
  pos->cluster = m_curCluster;
   d6ede:	e9d0 5604 	ldrd	r5, r6, [r0, #16]
int FatFile::peek() {
   d6ee2:	4604      	mov	r4, r0
   d6ee4:	f7ff ff14 	bl	d6d10 <_ZN7FatFile4readEPvj>
   d6ee8:	2801      	cmp	r0, #1
   d6eea:	bf0a      	itet	eq
   d6eec:	f89d 0007 	ldrbeq.w	r0, [sp, #7]
   d6ef0:	f04f 30ff 	movne.w	r0, #4294967295
  return false;
}
//------------------------------------------------------------------------------
void FatFile::setpos(FatPos_t* pos) {
  m_curPosition = pos->position;
  m_curCluster = pos->cluster;
   d6ef4:	e9c4 5604 	strdeq	r5, r6, [r4, #16]
}
   d6ef8:	b002      	add	sp, #8
   d6efa:	bd70      	pop	{r4, r5, r6, pc}

000d6efc <_ZN7FatFile12readDirCacheEb>:
dir_t* FatFile::readDirCache(bool skipReadOk) {
   d6efc:	b537      	push	{r0, r1, r2, r4, r5, lr}
  uint8_t i = (m_curPosition >> 5) & 0XF;
   d6efe:	6943      	ldr	r3, [r0, #20]
  if (i == 0 || !skipReadOk) {
   d6f00:	f413 7ff0 	tst.w	r3, #480	; 0x1e0
dir_t* FatFile::readDirCache(bool skipReadOk) {
   d6f04:	4604      	mov	r4, r0
  uint8_t i = (m_curPosition >> 5) & 0XF;
   d6f06:	f3c3 1543 	ubfx	r5, r3, #5, #4
  if (i == 0 || !skipReadOk) {
   d6f0a:	d000      	beq.n	d6f0e <_ZN7FatFile12readDirCacheEb+0x12>
   d6f0c:	b999      	cbnz	r1, d6f36 <_ZN7FatFile12readDirCacheEb+0x3a>
    int8_t n = read(&n, 1);
   d6f0e:	2201      	movs	r2, #1
   d6f10:	f10d 0107 	add.w	r1, sp, #7
   d6f14:	4620      	mov	r0, r4
   d6f16:	f7ff fefb 	bl	d6d10 <_ZN7FatFile4readEPvj>
    if  (n != 1) {
   d6f1a:	b240      	sxtb	r0, r0
   d6f1c:	2801      	cmp	r0, #1
   d6f1e:	d002      	beq.n	d6f26 <_ZN7FatFile12readDirCacheEb+0x2a>
  return 0;
   d6f20:	2000      	movs	r0, #0
}
   d6f22:	b003      	add	sp, #12
   d6f24:	bd30      	pop	{r4, r5, pc}
    m_curPosition += 31;
   d6f26:	6963      	ldr	r3, [r4, #20]
   d6f28:	331f      	adds	r3, #31
  return m_vol->cacheAddress()->dir + i;
   d6f2a:	68a0      	ldr	r0, [r4, #8]
    m_curPosition += 32;
   d6f2c:	6163      	str	r3, [r4, #20]
  return m_vol->cacheAddress()->dir + i;
   d6f2e:	3030      	adds	r0, #48	; 0x30
   d6f30:	eb00 1045 	add.w	r0, r0, r5, lsl #5
   d6f34:	e7f5      	b.n	d6f22 <_ZN7FatFile12readDirCacheEb+0x26>
    m_curPosition += 32;
   d6f36:	3320      	adds	r3, #32
   d6f38:	e7f7      	b.n	d6f2a <_ZN7FatFile12readDirCacheEb+0x2e>

000d6f3a <_ZN7FatFile7seekSetEm>:
bool FatFile::seekSet(uint32_t pos) {
   d6f3a:	e92d 41f0 	stmdb	sp!, {r4, r5, r6, r7, r8, lr}
  if (!isOpen()) {
   d6f3e:	7802      	ldrb	r2, [r0, #0]
  uint32_t tmp = m_curCluster;
   d6f40:	6907      	ldr	r7, [r0, #16]
bool FatFile::seekSet(uint32_t pos) {
   d6f42:	4604      	mov	r4, r0
   d6f44:	460d      	mov	r5, r1
  if (!isOpen()) {
   d6f46:	b162      	cbz	r2, d6f62 <_ZN7FatFile7seekSetEm+0x28>
  if (pos == m_curPosition) {
   d6f48:	6940      	ldr	r0, [r0, #20]
   d6f4a:	4288      	cmp	r0, r1
   d6f4c:	d002      	beq.n	d6f54 <_ZN7FatFile7seekSetEm+0x1a>
  if (pos == 0) {
   d6f4e:	b919      	cbnz	r1, d6f58 <_ZN7FatFile7seekSetEm+0x1e>
    m_curCluster = 0;
   d6f50:	6121      	str	r1, [r4, #16]
  m_curPosition = pos;
   d6f52:	6165      	str	r5, [r4, #20]
    return true;
   d6f54:	2001      	movs	r0, #1
   d6f56:	e006      	b.n	d6f66 <_ZN7FatFile7seekSetEm+0x2c>
  if (isFile()) {
   d6f58:	0716      	lsls	r6, r2, #28
   d6f5a:	d506      	bpl.n	d6f6a <_ZN7FatFile7seekSetEm+0x30>
    if (pos > m_fileSize) {
   d6f5c:	69e3      	ldr	r3, [r4, #28]
   d6f5e:	428b      	cmp	r3, r1
   d6f60:	d20b      	bcs.n	d6f7a <_ZN7FatFile7seekSetEm+0x40>
  m_curCluster = tmp;
   d6f62:	6127      	str	r7, [r4, #16]
  return false;
   d6f64:	2000      	movs	r0, #0
}
   d6f66:	e8bd 81f0 	ldmia.w	sp!, {r4, r5, r6, r7, r8, pc}
  } else if (isRootFixed()) {
   d6f6a:	0691      	lsls	r1, r2, #26
   d6f6c:	d505      	bpl.n	d6f7a <_ZN7FatFile7seekSetEm+0x40>
    if (pos <= 32*m_vol->rootDirEntryCount()) {
   d6f6e:	68a3      	ldr	r3, [r4, #8]
   d6f70:	891b      	ldrh	r3, [r3, #8]
   d6f72:	ebb5 1f43 	cmp.w	r5, r3, lsl #5
   d6f76:	d9ec      	bls.n	d6f52 <_ZN7FatFile7seekSetEm+0x18>
   d6f78:	e7f3      	b.n	d6f62 <_ZN7FatFile7seekSetEm+0x28>
  nCur = (m_curPosition - 1) >> (m_vol->clusterSizeShift() + 9);
   d6f7a:	f8d4 c008 	ldr.w	ip, [r4, #8]
   d6f7e:	f89c 6006 	ldrb.w	r6, [ip, #6]
   d6f82:	1e43      	subs	r3, r0, #1
   d6f84:	f106 0109 	add.w	r1, r6, #9
  nNew = (pos - 1) >> (m_vol->clusterSizeShift() + 9);
   d6f88:	1e6e      	subs	r6, r5, #1
  nCur = (m_curPosition - 1) >> (m_vol->clusterSizeShift() + 9);
   d6f8a:	40cb      	lsrs	r3, r1
  nNew = (pos - 1) >> (m_vol->clusterSizeShift() + 9);
   d6f8c:	40ce      	lsrs	r6, r1
  if (nNew < nCur || m_curPosition == 0) {
   d6f8e:	42b3      	cmp	r3, r6
   d6f90:	d800      	bhi.n	d6f94 <_ZN7FatFile7seekSetEm+0x5a>
   d6f92:	b998      	cbnz	r0, d6fbc <_ZN7FatFile7seekSetEm+0x82>
    m_curCluster = isRoot32() ? m_vol->rootDirStart() : m_firstCluster;
   d6f94:	0653      	lsls	r3, r2, #25
   d6f96:	bf4c      	ite	mi
   d6f98:	f8dc 3020 	ldrmi.w	r3, [ip, #32]
   d6f9c:	6a23      	ldrpl	r3, [r4, #32]
   d6f9e:	6123      	str	r3, [r4, #16]
    if (m_vol->fatGet(m_curCluster, &m_curCluster) <= 0) {
   d6fa0:	f104 0810 	add.w	r8, r4, #16
  while (nNew--) {
   d6fa4:	2e00      	cmp	r6, #0
   d6fa6:	d0d4      	beq.n	d6f52 <_ZN7FatFile7seekSetEm+0x18>
    if (m_vol->fatGet(m_curCluster, &m_curCluster) <= 0) {
   d6fa8:	6921      	ldr	r1, [r4, #16]
   d6faa:	68a0      	ldr	r0, [r4, #8]
   d6fac:	4642      	mov	r2, r8
   d6fae:	f000 fa28 	bl	d7402 <_ZN9FatVolume6fatGetEmPm>
   d6fb2:	2800      	cmp	r0, #0
   d6fb4:	f106 36ff 	add.w	r6, r6, #4294967295
   d6fb8:	dcf4      	bgt.n	d6fa4 <_ZN7FatFile7seekSetEm+0x6a>
   d6fba:	e7d2      	b.n	d6f62 <_ZN7FatFile7seekSetEm+0x28>
    nNew -= nCur;
   d6fbc:	1af6      	subs	r6, r6, r3
   d6fbe:	e7ef      	b.n	d6fa0 <_ZN7FatFile7seekSetEm+0x66>

000d6fc0 <_ZN7FatFile15openCachedEntryEPS_tih>:
                              oflag_t oflag, uint8_t lfnOrd) {
   d6fc0:	b5f8      	push	{r3, r4, r5, r6, r7, lr}
   d6fc2:	460f      	mov	r7, r1
   d6fc4:	4616      	mov	r6, r2
  memset(this, 0, sizeof(FatFile));
   d6fc6:	2100      	movs	r1, #0
   d6fc8:	2224      	movs	r2, #36	; 0x24
                              oflag_t oflag, uint8_t lfnOrd) {
   d6fca:	4604      	mov	r4, r0
   d6fcc:	461d      	mov	r5, r3
  memset(this, 0, sizeof(FatFile));
   d6fce:	f006 fe4f 	bl	ddc70 <memset>
  m_vol = dirFile->m_vol;
   d6fd2:	68b8      	ldr	r0, [r7, #8]
   d6fd4:	60a0      	str	r0, [r4, #8]
  m_dirIndex = dirIndex;
   d6fd6:	80a6      	strh	r6, [r4, #4]
  dir_t* dir = &m_vol->cacheAddress()->dir[0XF & dirIndex];
   d6fd8:	f100 0230 	add.w	r2, r0, #48	; 0x30
   d6fdc:	f006 060f 	and.w	r6, r6, #15
  m_dirCluster = dirFile->m_firstCluster;
   d6fe0:	6a3b      	ldr	r3, [r7, #32]
   d6fe2:	60e3      	str	r3, [r4, #12]
  dir_t* dir = &m_vol->cacheAddress()->dir[0XF & dirIndex];
   d6fe4:	0171      	lsls	r1, r6, #5
   d6fe6:	eb02 1646 	add.w	r6, r2, r6, lsl #5
  if (!DIR_IS_FILE_OR_SUBDIR(dir)) {
   d6fea:	7af3      	ldrb	r3, [r6, #11]
   d6fec:	071f      	lsls	r7, r3, #28
   d6fee:	d446      	bmi.n	d707e <_ZN7FatFile15openCachedEntryEPS_tih+0xbe>
  m_attr = dir->attributes & FILE_ATTR_COPY;
   d6ff0:	1843      	adds	r3, r0, r1
   d6ff2:	f893 303b 	ldrb.w	r3, [r3, #59]	; 0x3b
   d6ff6:	f003 0317 	and.w	r3, r3, #23
   d6ffa:	7023      	strb	r3, [r4, #0]
  if (DIR_IS_FILE(dir)) {
   d6ffc:	7af2      	ldrb	r2, [r6, #11]
   d6ffe:	f012 0f18 	tst.w	r2, #24
    m_attr |= FILE_ATTR_FILE;
   d7002:	bf04      	itt	eq
   d7004:	f043 0308 	orreq.w	r3, r3, #8
   d7008:	7023      	strbeq	r3, [r4, #0]
  m_lfnOrd = lfnOrd;
   d700a:	f89d 3018 	ldrb.w	r3, [sp, #24]
   d700e:	70e3      	strb	r3, [r4, #3]
  switch (oflag & O_ACCMODE) {
   d7010:	f005 0303 	and.w	r3, r5, #3
   d7014:	2b01      	cmp	r3, #1
   d7016:	d02c      	beq.n	d7072 <_ZN7FatFile15openCachedEntryEPS_tih+0xb2>
   d7018:	2b02      	cmp	r3, #2
   d701a:	d028      	beq.n	d706e <_ZN7FatFile15openCachedEntryEPS_tih+0xae>
   d701c:	bb7b      	cbnz	r3, d707e <_ZN7FatFile15openCachedEntryEPS_tih+0xbe>
      if (oflag & O_TRUNC) {
   d701e:	056a      	lsls	r2, r5, #21
   d7020:	d42d      	bmi.n	d707e <_ZN7FatFile15openCachedEntryEPS_tih+0xbe>
      m_flags = F_READ;
   d7022:	2301      	movs	r3, #1
      m_flags = F_WRITE;
   d7024:	70a3      	strb	r3, [r4, #2]
  if (m_flags & F_WRITE) {
   d7026:	78a2      	ldrb	r2, [r4, #2]
   d7028:	0793      	lsls	r3, r2, #30
   d702a:	d504      	bpl.n	d7036 <_ZN7FatFile15openCachedEntryEPS_tih+0x76>
    if (isSubDir() || isReadOnly()) {
   d702c:	7823      	ldrb	r3, [r4, #0]
   d702e:	06df      	lsls	r7, r3, #27
   d7030:	d425      	bmi.n	d707e <_ZN7FatFile15openCachedEntryEPS_tih+0xbe>
   d7032:	07de      	lsls	r6, r3, #31
   d7034:	d423      	bmi.n	d707e <_ZN7FatFile15openCachedEntryEPS_tih+0xbe>
  m_flags |= (oflag & O_APPEND ? F_APPEND : 0) | (oflag & O_SYNC ? F_SYNC : 0);
   d7036:	11ab      	asrs	r3, r5, #6
   d7038:	f023 037f 	bic.w	r3, r3, #127	; 0x7f
   d703c:	f005 0608 	and.w	r6, r5, #8
   d7040:	4333      	orrs	r3, r6
   d7042:	4313      	orrs	r3, r2
   d7044:	70a3      	strb	r3, [r4, #2]
    return m_cache.lbn();
   d7046:	6ac3      	ldr	r3, [r0, #44]	; 0x2c
  m_dirBlock = m_vol->cacheBlockNumber();
   d7048:	61a3      	str	r3, [r4, #24]
  firstCluster = ((uint32_t)dir->firstClusterHigh << 16)
   d704a:	1843      	adds	r3, r0, r1
   d704c:	f8b3 2044 	ldrh.w	r2, [r3, #68]	; 0x44
                 | dir->firstClusterLow;
   d7050:	f8b3 104a 	ldrh.w	r1, [r3, #74]	; 0x4a
  firstCluster = ((uint32_t)dir->firstClusterHigh << 16)
   d7054:	ea41 4102 	orr.w	r1, r1, r2, lsl #16
  if (oflag & O_TRUNC) {
   d7058:	056a      	lsls	r2, r5, #21
   d705a:	d513      	bpl.n	d7084 <_ZN7FatFile15openCachedEntryEPS_tih+0xc4>
    if (firstCluster && !m_vol->freeChain(firstCluster)) {
   d705c:	b959      	cbnz	r1, d7076 <_ZN7FatFile15openCachedEntryEPS_tih+0xb6>
    m_flags |= F_FILE_DIR_DIRTY;
   d705e:	78a3      	ldrb	r3, [r4, #2]
   d7060:	f043 0304 	orr.w	r3, r3, #4
   d7064:	70a3      	strb	r3, [r4, #2]
  if ((oflag & O_AT_END) && !seekSet(m_fileSize)) {
   d7066:	046b      	lsls	r3, r5, #17
   d7068:	d410      	bmi.n	d708c <_ZN7FatFile15openCachedEntryEPS_tih+0xcc>
  return true;
   d706a:	2001      	movs	r0, #1
}
   d706c:	bdf8      	pop	{r3, r4, r5, r6, r7, pc}
      m_flags = F_READ | F_WRITE;
   d706e:	2303      	movs	r3, #3
   d7070:	e7d8      	b.n	d7024 <_ZN7FatFile15openCachedEntryEPS_tih+0x64>
      m_flags = F_WRITE;
   d7072:	2302      	movs	r3, #2
   d7074:	e7d6      	b.n	d7024 <_ZN7FatFile15openCachedEntryEPS_tih+0x64>
    if (firstCluster && !m_vol->freeChain(firstCluster)) {
   d7076:	f000 fa64 	bl	d7542 <_ZN9FatVolume9freeChainEm>
   d707a:	2800      	cmp	r0, #0
   d707c:	d1ef      	bne.n	d705e <_ZN7FatFile15openCachedEntryEPS_tih+0x9e>
  m_attr = FILE_ATTR_CLOSED;
   d707e:	2000      	movs	r0, #0
   d7080:	7020      	strb	r0, [r4, #0]
  return false;
   d7082:	e7f3      	b.n	d706c <_ZN7FatFile15openCachedEntryEPS_tih+0xac>
    m_firstCluster = firstCluster;
   d7084:	6221      	str	r1, [r4, #32]
    m_fileSize = dir->fileSize;
   d7086:	6cdb      	ldr	r3, [r3, #76]	; 0x4c
   d7088:	61e3      	str	r3, [r4, #28]
   d708a:	e7ec      	b.n	d7066 <_ZN7FatFile15openCachedEntryEPS_tih+0xa6>
  if ((oflag & O_AT_END) && !seekSet(m_fileSize)) {
   d708c:	69e1      	ldr	r1, [r4, #28]
   d708e:	4620      	mov	r0, r4
   d7090:	f7ff ff53 	bl	d6f3a <_ZN7FatFile7seekSetEm>
   d7094:	2800      	cmp	r0, #0
   d7096:	d1e8      	bne.n	d706a <_ZN7FatFile15openCachedEntryEPS_tih+0xaa>
   d7098:	e7f1      	b.n	d707e <_ZN7FatFile15openCachedEntryEPS_tih+0xbe>
	...

000d709c <_ZN7FatFile4syncEv>:
}
//------------------------------------------------------------------------------
bool FatFile::sync() {
   d709c:	b538      	push	{r3, r4, r5, lr}
  if (!isOpen()) {
   d709e:	7803      	ldrb	r3, [r0, #0]
bool FatFile::sync() {
   d70a0:	4604      	mov	r4, r0
  if (!isOpen()) {
   d70a2:	b90b      	cbnz	r3, d70a8 <_ZN7FatFile4syncEv+0xc>
    return true;
   d70a4:	2001      	movs	r0, #1
  DBG_FAIL_MACRO;

fail:
  m_error |= WRITE_ERROR;
  return false;
}
   d70a6:	bd38      	pop	{r3, r4, r5, pc}
  if (m_flags & F_FILE_DIR_DIRTY) {
   d70a8:	7883      	ldrb	r3, [r0, #2]
   d70aa:	075a      	lsls	r2, r3, #29
   d70ac:	d523      	bpl.n	d70f6 <_ZN7FatFile4syncEv+0x5a>
    dir_t* dir = cacheDirEntry(FatCache::CACHE_FOR_WRITE);
   d70ae:	2101      	movs	r1, #1
   d70b0:	f7ff fe06 	bl	d6cc0 <_ZN7FatFile13cacheDirEntryEh>
    if (!dir || dir->name[0] == DIR_NAME_DELETED) {
   d70b4:	4605      	mov	r5, r0
   d70b6:	b928      	cbnz	r0, d70c4 <_ZN7FatFile4syncEv+0x28>
  m_error |= WRITE_ERROR;
   d70b8:	7863      	ldrb	r3, [r4, #1]
   d70ba:	f043 0301 	orr.w	r3, r3, #1
   d70be:	7063      	strb	r3, [r4, #1]
  return false;
   d70c0:	2000      	movs	r0, #0
   d70c2:	e7f0      	b.n	d70a6 <_ZN7FatFile4syncEv+0xa>
    if (!dir || dir->name[0] == DIR_NAME_DELETED) {
   d70c4:	7803      	ldrb	r3, [r0, #0]
   d70c6:	2be5      	cmp	r3, #229	; 0xe5
   d70c8:	d0f6      	beq.n	d70b8 <_ZN7FatFile4syncEv+0x1c>
    if (isFile()) {
   d70ca:	7823      	ldrb	r3, [r4, #0]
   d70cc:	071b      	lsls	r3, r3, #28
      dir->fileSize = m_fileSize;
   d70ce:	bf44      	itt	mi
   d70d0:	69e3      	ldrmi	r3, [r4, #28]
   d70d2:	61c3      	strmi	r3, [r0, #28]
    dir->firstClusterLow = m_firstCluster & 0XFFFF;
   d70d4:	8c23      	ldrh	r3, [r4, #32]
   d70d6:	8343      	strh	r3, [r0, #26]
    dir->firstClusterHigh = m_firstCluster >> 16;
   d70d8:	8c63      	ldrh	r3, [r4, #34]	; 0x22
   d70da:	8283      	strh	r3, [r0, #20]
    if (m_dateTime) {
   d70dc:	4b09      	ldr	r3, [pc, #36]	; (d7104 <_ZN7FatFile4syncEv+0x68>)
   d70de:	681b      	ldr	r3, [r3, #0]
   d70e0:	b12b      	cbz	r3, d70ee <_ZN7FatFile4syncEv+0x52>
      m_dateTime(&dir->lastWriteDate, &dir->lastWriteTime);
   d70e2:	f100 0116 	add.w	r1, r0, #22
   d70e6:	3018      	adds	r0, #24
   d70e8:	4798      	blx	r3
      dir->lastAccessDate = dir->lastWriteDate;
   d70ea:	8b2b      	ldrh	r3, [r5, #24]
   d70ec:	826b      	strh	r3, [r5, #18]
    m_flags &= ~F_FILE_DIR_DIRTY;
   d70ee:	78a3      	ldrb	r3, [r4, #2]
   d70f0:	f023 0304 	bic.w	r3, r3, #4
   d70f4:	70a3      	strb	r3, [r4, #2]
  if (m_vol->cacheSync()) {
   d70f6:	68a0      	ldr	r0, [r4, #8]
   d70f8:	f7ff fa81 	bl	d65fe <_ZN9FatVolume9cacheSyncEv>
   d70fc:	2800      	cmp	r0, #0
   d70fe:	d0db      	beq.n	d70b8 <_ZN7FatFile4syncEv+0x1c>
   d7100:	e7d0      	b.n	d70a4 <_ZN7FatFile4syncEv+0x8>
   d7102:	bf00      	nop
   d7104:	2003e5b4 	.word	0x2003e5b4

000d7108 <_ZN7FatFile5closeEv>:
bool FatFile::close() {
   d7108:	b510      	push	{r4, lr}
   d710a:	4604      	mov	r4, r0
  bool rtn = sync();
   d710c:	f7ff ffc6 	bl	d709c <_ZN7FatFile4syncEv>
  m_attr = FILE_ATTR_CLOSED;
   d7110:	2300      	movs	r3, #0
   d7112:	7023      	strb	r3, [r4, #0]
}
   d7114:	bd10      	pop	{r4, pc}

000d7116 <_ZN7FatFile4openEPS_PKci>:
bool FatFile::open(FatFile* dirFile, const char* path, oflag_t oflag) {
   d7116:	b5f0      	push	{r4, r5, r6, r7, lr}
   d7118:	b093      	sub	sp, #76	; 0x4c
   d711a:	461f      	mov	r7, r3
  FatFile() : m_attr(FILE_ATTR_CLOSED), m_error(0) {}
   d711c:	2300      	movs	r3, #0
   d711e:	f8ad 3024 	strh.w	r3, [sp, #36]	; 0x24
  if (isOpen() || !dirFile->isDir()) {
   d7122:	7803      	ldrb	r3, [r0, #0]
bool FatFile::open(FatFile* dirFile, const char* path, oflag_t oflag) {
   d7124:	9201      	str	r2, [sp, #4]
   d7126:	4606      	mov	r6, r0
   d7128:	460c      	mov	r4, r1
  if (isOpen() || !dirFile->isDir()) {
   d712a:	b113      	cbz	r3, d7132 <_ZN7FatFile4openEPS_PKci+0x1c>
  return false;
   d712c:	2000      	movs	r0, #0
}
   d712e:	b013      	add	sp, #76	; 0x4c
   d7130:	bdf0      	pop	{r4, r5, r6, r7, pc}
  if (isOpen() || !dirFile->isDir()) {
   d7132:	780b      	ldrb	r3, [r1, #0]
   d7134:	f013 0f70 	tst.w	r3, #112	; 0x70
   d7138:	d0f8      	beq.n	d712c <_ZN7FatFile4openEPS_PKci+0x16>
  if (isDirSeparator(*path)) {
   d713a:	7813      	ldrb	r3, [r2, #0]
   d713c:	2b2f      	cmp	r3, #47	; 0x2f
   d713e:	d112      	bne.n	d7166 <_ZN7FatFile4openEPS_PKci+0x50>
    while (isDirSeparator(*path)) {
   d7140:	9a01      	ldr	r2, [sp, #4]
   d7142:	7813      	ldrb	r3, [r2, #0]
   d7144:	2b2f      	cmp	r3, #47	; 0x2f
   d7146:	d102      	bne.n	d714e <_ZN7FatFile4openEPS_PKci+0x38>
      path++;
   d7148:	3201      	adds	r2, #1
   d714a:	9201      	str	r2, [sp, #4]
    while (isDirSeparator(*path)) {
   d714c:	e7f8      	b.n	d7140 <_ZN7FatFile4openEPS_PKci+0x2a>
    if (*path == 0) {
   d714e:	68a1      	ldr	r1, [r4, #8]
   d7150:	b91b      	cbnz	r3, d715a <_ZN7FatFile4openEPS_PKci+0x44>
      return openRoot(dirFile->m_vol);
   d7152:	4630      	mov	r0, r6
   d7154:	f7ff fdc3 	bl	d6cde <_ZN7FatFile8openRootEP9FatVolume>
   d7158:	e7e9      	b.n	d712e <_ZN7FatFile4openEPS_PKci+0x18>
    if (!tmpDir.openRoot(dirFile->m_vol)) {
   d715a:	a809      	add	r0, sp, #36	; 0x24
   d715c:	f7ff fdbf 	bl	d6cde <_ZN7FatFile8openRootEP9FatVolume>
   d7160:	2800      	cmp	r0, #0
   d7162:	d0e3      	beq.n	d712c <_ZN7FatFile4openEPS_PKci+0x16>
    dirFile = &tmpDir;
   d7164:	ac09      	add	r4, sp, #36	; 0x24
    if (!parsePathName(path, &fname, &path)) {
   d7166:	9801      	ldr	r0, [sp, #4]
   d7168:	aa01      	add	r2, sp, #4
   d716a:	a903      	add	r1, sp, #12
   d716c:	f7ff fa64 	bl	d6638 <_ZN7FatFile13parsePathNameEPKcP7fname_tPS1_>
   d7170:	2800      	cmp	r0, #0
   d7172:	d0db      	beq.n	d712c <_ZN7FatFile4openEPS_PKci+0x16>
    if (*path == 0) {
   d7174:	9b01      	ldr	r3, [sp, #4]
   d7176:	781b      	ldrb	r3, [r3, #0]
   d7178:	b19b      	cbz	r3, d71a2 <_ZN7FatFile4openEPS_PKci+0x8c>
    if (!open(dirFile, &fname, O_RDONLY)) {
   d717a:	2300      	movs	r3, #0
   d717c:	aa03      	add	r2, sp, #12
   d717e:	4621      	mov	r1, r4
   d7180:	4630      	mov	r0, r6
   d7182:	f7ff fb8d 	bl	d68a0 <_ZN7FatFile4openEPS_P7fname_ti>
   d7186:	2800      	cmp	r0, #0
   d7188:	d0d0      	beq.n	d712c <_ZN7FatFile4openEPS_PKci+0x16>
    tmpDir = *this;
   d718a:	4635      	mov	r5, r6
   d718c:	cd0f      	ldmia	r5!, {r0, r1, r2, r3}
   d718e:	ac09      	add	r4, sp, #36	; 0x24
   d7190:	c40f      	stmia	r4!, {r0, r1, r2, r3}
   d7192:	cd0f      	ldmia	r5!, {r0, r1, r2, r3}
   d7194:	c40f      	stmia	r4!, {r0, r1, r2, r3}
   d7196:	682b      	ldr	r3, [r5, #0]
   d7198:	6023      	str	r3, [r4, #0]
    close();
   d719a:	4630      	mov	r0, r6
   d719c:	f7ff ffb4 	bl	d7108 <_ZN7FatFile5closeEv>
  while (1) {
   d71a0:	e7e0      	b.n	d7164 <_ZN7FatFile4openEPS_PKci+0x4e>
  return open(dirFile, &fname, oflag);
   d71a2:	463b      	mov	r3, r7
   d71a4:	aa03      	add	r2, sp, #12
   d71a6:	4621      	mov	r1, r4
   d71a8:	4630      	mov	r0, r6
   d71aa:	f7ff fb79 	bl	d68a0 <_ZN7FatFile4openEPS_P7fname_ti>
   d71ae:	e7be      	b.n	d712e <_ZN7FatFile4openEPS_PKci+0x18>

000d71b0 <_ZN7FatFile5writeEPKvj>:

fail:
  return false;
}
//------------------------------------------------------------------------------
int FatFile::write(const void* buf, size_t nbyte) {
   d71b0:	e92d 47f0 	stmdb	sp!, {r4, r5, r6, r7, r8, r9, sl, lr}
  uint8_t cacheOption;
  // number of bytes left to write  -  must be before goto statements
  size_t nToWrite = nbyte;
  size_t n;
  // error if not a normal file or is read-only
  if (!isFile() || !(m_flags & F_WRITE)) {
   d71b4:	7803      	ldrb	r3, [r0, #0]
int FatFile::write(const void* buf, size_t nbyte) {
   d71b6:	4689      	mov	r9, r1
  if (!isFile() || !(m_flags & F_WRITE)) {
   d71b8:	0719      	lsls	r1, r3, #28
int FatFile::write(const void* buf, size_t nbyte) {
   d71ba:	4604      	mov	r4, r0
   d71bc:	4617      	mov	r7, r2
  if (!isFile() || !(m_flags & F_WRITE)) {
   d71be:	d55b      	bpl.n	d7278 <_ZN7FatFile5writeEPKvj+0xc8>
   d71c0:	7883      	ldrb	r3, [r0, #2]
   d71c2:	079a      	lsls	r2, r3, #30
   d71c4:	d558      	bpl.n	d7278 <_ZN7FatFile5writeEPKvj+0xc8>
    DBG_FAIL_MACRO;
    goto fail;
  }
  // seek to end of file if append flag
  if ((m_flags & F_APPEND)) {
   d71c6:	071b      	lsls	r3, r3, #28
   d71c8:	d451      	bmi.n	d726e <_ZN7FatFile5writeEPKvj+0xbe>
      DBG_FAIL_MACRO;
      goto fail;
    }
  }
  // Don't exceed max fileSize.
  if (nbyte > (0XFFFFFFFF - m_curPosition)) {
   d71ca:	6963      	ldr	r3, [r4, #20]
   d71cc:	43db      	mvns	r3, r3
   d71ce:	42bb      	cmp	r3, r7
   d71d0:	d352      	bcc.n	d7278 <_ZN7FatFile5writeEPKvj+0xc8>
   d71d2:	46b8      	mov	r8, r7
    uint8_t blockOfCluster = m_vol->blockOfCluster(m_curPosition);
    uint16_t blockOffset = m_curPosition & 0X1FF;
    if (blockOfCluster == 0 && blockOffset == 0) {
      // start of new cluster
      if (m_curCluster != 0) {
        int8_t fg = m_vol->fatGet(m_curCluster, &m_curCluster);
   d71d4:	f104 0a10 	add.w	sl, r4, #16
  while (nToWrite) {
   d71d8:	6966      	ldr	r6, [r4, #20]
   d71da:	f1b8 0f00 	cmp.w	r8, #0
   d71de:	f000 8091 	beq.w	d7304 <_ZN7FatFile5writeEPKvj+0x154>
    uint8_t blockOfCluster = m_vol->blockOfCluster(m_curPosition);
   d71e2:	68a0      	ldr	r0, [r4, #8]
    return (position >> 9) & m_clusterBlockMask;
   d71e4:	7943      	ldrb	r3, [r0, #5]
    uint16_t blockOffset = m_curPosition & 0X1FF;
   d71e6:	f3c6 0508 	ubfx	r5, r6, #0, #9
    if (blockOfCluster == 0 && blockOffset == 0) {
   d71ea:	ea13 2656 	ands.w	r6, r3, r6, lsr #9
   d71ee:	d10e      	bne.n	d720e <_ZN7FatFile5writeEPKvj+0x5e>
   d71f0:	b96d      	cbnz	r5, d720e <_ZN7FatFile5writeEPKvj+0x5e>
   d71f2:	6921      	ldr	r1, [r4, #16]
      if (m_curCluster != 0) {
   d71f4:	2900      	cmp	r1, #0
   d71f6:	d046      	beq.n	d7286 <_ZN7FatFile5writeEPKvj+0xd6>
        int8_t fg = m_vol->fatGet(m_curCluster, &m_curCluster);
   d71f8:	4652      	mov	r2, sl
   d71fa:	f000 f902 	bl	d7402 <_ZN9FatVolume6fatGetEmPm>
        if (fg < 0) {
   d71fe:	2800      	cmp	r0, #0
   d7200:	db3a      	blt.n	d7278 <_ZN7FatFile5writeEPKvj+0xc8>
          DBG_FAIL_MACRO;
          goto fail;
        }
        if (fg == 0) {
   d7202:	d104      	bne.n	d720e <_ZN7FatFile5writeEPKvj+0x5e>
          // add cluster if at end of chain
          if (!addCluster()) {
   d7204:	4620      	mov	r0, r4
   d7206:	f7ff fd13 	bl	d6c30 <_ZN7FatFile10addClusterEv>
   d720a:	2800      	cmp	r0, #0
   d720c:	d034      	beq.n	d7278 <_ZN7FatFile5writeEPKvj+0xc8>
          m_curCluster = m_firstCluster;
        }
      }
    }
    // block for data write
    uint32_t block = m_vol->clusterFirstBlock(m_curCluster) + blockOfCluster;
   d720e:	6921      	ldr	r1, [r4, #16]
   d7210:	68a0      	ldr	r0, [r4, #8]
   d7212:	f000 f8f0 	bl	d73f6 <_ZNK9FatVolume17clusterFirstBlockEm>
   d7216:	1831      	adds	r1, r6, r0

    if (blockOffset != 0 || nToWrite < 512) {
   d7218:	68a0      	ldr	r0, [r4, #8]
   d721a:	b915      	cbnz	r5, d7222 <_ZN7FatFile5writeEPKvj+0x72>
   d721c:	f5b8 7f00 	cmp.w	r8, #512	; 0x200
   d7220:	d23f      	bcs.n	d72a2 <_ZN7FatFile5writeEPKvj+0xf2>
      // partial block - must use cache
      // max space in block
      n = 512 - blockOffset;
   d7222:	f5c5 7600 	rsb	r6, r5, #512	; 0x200
      // lesser of space and amount to write
      if (n > nToWrite) {
   d7226:	4546      	cmp	r6, r8
   d7228:	bf28      	it	cs
   d722a:	4646      	movcs	r6, r8
        n = nToWrite;
      }

      if (blockOffset == 0 && m_curPosition >= m_fileSize) {
   d722c:	2d00      	cmp	r5, #0
   d722e:	d136      	bne.n	d729e <_ZN7FatFile5writeEPKvj+0xee>
   d7230:	6962      	ldr	r2, [r4, #20]
   d7232:	69e3      	ldr	r3, [r4, #28]
        // start of new block don't need to read into cache
        cacheOption = FatCache::CACHE_RESERVE_FOR_WRITE;
   d7234:	429a      	cmp	r2, r3
   d7236:	bf34      	ite	cc
   d7238:	2201      	movcc	r2, #1
   d723a:	2205      	movcs	r2, #5
    return m_cache.read(blockNumber, options);
   d723c:	3024      	adds	r0, #36	; 0x24
   d723e:	f000 f8b7 	bl	d73b0 <_ZN8FatCache4readEmh>
      } else {
        // rewrite part of block
        cacheOption = FatCache::CACHE_FOR_WRITE;
      }
      pc = m_vol->cacheFetchData(block, cacheOption);
      if (!pc) {
   d7242:	b1c8      	cbz	r0, d7278 <_ZN7FatFile5writeEPKvj+0xc8>
        DBG_FAIL_MACRO;
        goto fail;
      }
      uint8_t* dst = pc->data + blockOffset;
      memcpy(dst, src, n);
   d7244:	4428      	add	r0, r5
   d7246:	4632      	mov	r2, r6
   d7248:	4649      	mov	r1, r9
      if (512 == (n + blockOffset)) {
   d724a:	4435      	add	r5, r6
      memcpy(dst, src, n);
   d724c:	f006 fce8 	bl	ddc20 <memcpy>
      if (512 == (n + blockOffset)) {
   d7250:	f5b5 7f00 	cmp.w	r5, #512	; 0x200
   d7254:	d104      	bne.n	d7260 <_ZN7FatFile5writeEPKvj+0xb0>
    return m_cache.sync();
   d7256:	68a0      	ldr	r0, [r4, #8]
   d7258:	3024      	adds	r0, #36	; 0x24
   d725a:	f000 f881 	bl	d7360 <_ZN8FatCache4syncEv>
      if (m_vol->cacheBlockNumber() <= block
          && block < (m_vol->cacheBlockNumber() + nb)) {
        // invalidate cache if block is in cache
        m_vol->cacheInvalidate();
      }
      if (!m_vol->writeBlocks(block, src, nb)) {
   d725e:	b158      	cbz	r0, d7278 <_ZN7FatFile5writeEPKvj+0xc8>
      if (!m_vol->writeBlock(block, src)) {
        DBG_FAIL_MACRO;
        goto fail;
      }
    }
    m_curPosition += n;
   d7260:	6963      	ldr	r3, [r4, #20]
   d7262:	4433      	add	r3, r6
   d7264:	6163      	str	r3, [r4, #20]
    src += n;
   d7266:	44b1      	add	r9, r6
    nToWrite -= n;
   d7268:	eba8 0806 	sub.w	r8, r8, r6
  while (nToWrite) {
   d726c:	e7b4      	b.n	d71d8 <_ZN7FatFile5writeEPKvj+0x28>
    if (!seekSet(m_fileSize)) {
   d726e:	69c1      	ldr	r1, [r0, #28]
   d7270:	f7ff fe63 	bl	d6f3a <_ZN7FatFile7seekSetEm>
   d7274:	2800      	cmp	r0, #0
   d7276:	d1a8      	bne.n	d71ca <_ZN7FatFile5writeEPKvj+0x1a>
  }
  return nbyte;

fail:
  // return for write error
  m_error |= WRITE_ERROR;
   d7278:	7863      	ldrb	r3, [r4, #1]
   d727a:	f043 0301 	orr.w	r3, r3, #1
   d727e:	7063      	strb	r3, [r4, #1]
  return -1;
   d7280:	f04f 30ff 	mov.w	r0, #4294967295
   d7284:	e050      	b.n	d7328 <_ZN7FatFile5writeEPKvj+0x178>
        if (m_firstCluster == 0) {
   d7286:	6a23      	ldr	r3, [r4, #32]
   d7288:	b93b      	cbnz	r3, d729a <_ZN7FatFile5writeEPKvj+0xea>
          if (!addCluster()) {
   d728a:	4620      	mov	r0, r4
   d728c:	f7ff fcd0 	bl	d6c30 <_ZN7FatFile10addClusterEv>
   d7290:	2800      	cmp	r0, #0
   d7292:	d0f1      	beq.n	d7278 <_ZN7FatFile5writeEPKvj+0xc8>
          m_firstCluster = m_curCluster;
   d7294:	6923      	ldr	r3, [r4, #16]
   d7296:	6223      	str	r3, [r4, #32]
   d7298:	e7b9      	b.n	d720e <_ZN7FatFile5writeEPKvj+0x5e>
          m_curCluster = m_firstCluster;
   d729a:	6123      	str	r3, [r4, #16]
   d729c:	e7b7      	b.n	d720e <_ZN7FatFile5writeEPKvj+0x5e>
        cacheOption = FatCache::CACHE_FOR_WRITE;
   d729e:	2201      	movs	r2, #1
   d72a0:	e7cc      	b.n	d723c <_ZN7FatFile5writeEPKvj+0x8c>
    } else if (nToWrite >= 1024) {
   d72a2:	f5b8 6f80 	cmp.w	r8, #1024	; 0x400
   d72a6:	6ac2      	ldr	r2, [r0, #44]	; 0x2c
   d72a8:	d31b      	bcc.n	d72e2 <_ZN7FatFile5writeEPKvj+0x132>
      uint8_t maxBlocks = m_vol->blocksPerCluster() - blockOfCluster;
   d72aa:	f890 c004 	ldrb.w	ip, [r0, #4]
   d72ae:	ebac 0606 	sub.w	r6, ip, r6
      if (nb > maxBlocks) {
   d72b2:	b2f3      	uxtb	r3, r6
      size_t nb = nToWrite >> 9;
   d72b4:	ea4f 2e58 	mov.w	lr, r8, lsr #9
      if (nb > maxBlocks) {
   d72b8:	4573      	cmp	r3, lr
   d72ba:	bf28      	it	cs
   d72bc:	4673      	movcs	r3, lr
          && block < (m_vol->cacheBlockNumber() + nb)) {
   d72be:	4291      	cmp	r1, r2
      n = 512*nb;
   d72c0:	ea4f 2643 	mov.w	r6, r3, lsl #9
          && block < (m_vol->cacheBlockNumber() + nb)) {
   d72c4:	d307      	bcc.n	d72d6 <_ZN7FatFile5writeEPKvj+0x126>
   d72c6:	441a      	add	r2, r3
   d72c8:	428a      	cmp	r2, r1
    m_lbn = 0XFFFFFFFF;
   d72ca:	bf82      	ittt	hi
   d72cc:	f04f 32ff 	movhi.w	r2, #4294967295
    m_status = 0;
   d72d0:	f880 5024 	strbhi.w	r5, [r0, #36]	; 0x24
    m_lbn = 0XFFFFFFFF;
   d72d4:	62c2      	strhi	r2, [r0, #44]	; 0x2c
      if (!m_vol->writeBlocks(block, src, nb)) {
   d72d6:	68a5      	ldr	r5, [r4, #8]
    return m_blockDev->writeBlocks(block, src, nb);
   d72d8:	464a      	mov	r2, r9
   d72da:	6828      	ldr	r0, [r5, #0]
   d72dc:	f000 fc47 	bl	d7b6e <_ZN9SdSpiCard11writeBlocksEmPKhj>
   d72e0:	e7bd      	b.n	d725e <_ZN7FatFile5writeEPKvj+0xae>
      if (m_vol->cacheBlockNumber() == block) {
   d72e2:	4291      	cmp	r1, r2
    m_lbn = 0XFFFFFFFF;
   d72e4:	bf02      	ittt	eq
   d72e6:	f04f 33ff 	moveq.w	r3, #4294967295
    m_status = 0;
   d72ea:	f880 5024 	strbeq.w	r5, [r0, #36]	; 0x24
    m_lbn = 0XFFFFFFFF;
   d72ee:	62c3      	streq	r3, [r0, #44]	; 0x2c
      if (!m_vol->writeBlock(block, src)) {
   d72f0:	68a3      	ldr	r3, [r4, #8]
    return m_blockDev->writeBlock(block, src);
   d72f2:	464a      	mov	r2, r9
   d72f4:	6818      	ldr	r0, [r3, #0]
   d72f6:	f000 fbc4 	bl	d7a82 <_ZN9SdSpiCard10writeBlockEmPKh>
   d72fa:	2800      	cmp	r0, #0
   d72fc:	d0bc      	beq.n	d7278 <_ZN7FatFile5writeEPKvj+0xc8>
      n = 512;
   d72fe:	f44f 7600 	mov.w	r6, #512	; 0x200
   d7302:	e7ad      	b.n	d7260 <_ZN7FatFile5writeEPKvj+0xb0>
  if (m_curPosition > m_fileSize) {
   d7304:	69e2      	ldr	r2, [r4, #28]
   d7306:	78a3      	ldrb	r3, [r4, #2]
   d7308:	42b2      	cmp	r2, r6
   d730a:	d204      	bcs.n	d7316 <_ZN7FatFile5writeEPKvj+0x166>
    m_fileSize = m_curPosition;
   d730c:	61e6      	str	r6, [r4, #28]
    m_flags |= F_FILE_DIR_DIRTY;
   d730e:	f043 0304 	orr.w	r3, r3, #4
   d7312:	70a3      	strb	r3, [r4, #2]
   d7314:	e003      	b.n	d731e <_ZN7FatFile5writeEPKvj+0x16e>
  } else if (m_dateTime) {
   d7316:	4a08      	ldr	r2, [pc, #32]	; (d7338 <_ZN7FatFile5writeEPKvj+0x188>)
   d7318:	6812      	ldr	r2, [r2, #0]
   d731a:	2a00      	cmp	r2, #0
   d731c:	d1f7      	bne.n	d730e <_ZN7FatFile5writeEPKvj+0x15e>
  if (m_flags & F_SYNC) {
   d731e:	f994 3002 	ldrsb.w	r3, [r4, #2]
   d7322:	2b00      	cmp	r3, #0
   d7324:	db02      	blt.n	d732c <_ZN7FatFile5writeEPKvj+0x17c>
  return nbyte;
   d7326:	4638      	mov	r0, r7
}
   d7328:	e8bd 87f0 	ldmia.w	sp!, {r4, r5, r6, r7, r8, r9, sl, pc}
    if (!sync()) {
   d732c:	4620      	mov	r0, r4
   d732e:	f7ff feb5 	bl	d709c <_ZN7FatFile4syncEv>
   d7332:	2800      	cmp	r0, #0
   d7334:	d1f7      	bne.n	d7326 <_ZN7FatFile5writeEPKvj+0x176>
   d7336:	e79f      	b.n	d7278 <_ZN7FatFile5writeEPKvj+0xc8>
   d7338:	2003e5b4 	.word	0x2003e5b4

000d733c <_ZN5Print5writeEPKc>:
    size_t write(const char *str) {
   d733c:	b513      	push	{r0, r1, r4, lr}
   d733e:	4604      	mov	r4, r0
    }
   d7340:	4608      	mov	r0, r1
      if (str == NULL) return 0;
   d7342:	b159      	cbz	r1, d735c <_ZN5Print5writeEPKc+0x20>
      return write((const uint8_t *)str, strlen(str));
   d7344:	9101      	str	r1, [sp, #4]
   d7346:	f006 fcde 	bl	ddd06 <strlen>
   d734a:	6823      	ldr	r3, [r4, #0]
   d734c:	9901      	ldr	r1, [sp, #4]
   d734e:	68db      	ldr	r3, [r3, #12]
   d7350:	4602      	mov	r2, r0
   d7352:	4620      	mov	r0, r4
    }
   d7354:	b002      	add	sp, #8
   d7356:	e8bd 4010 	ldmia.w	sp!, {r4, lr}
      return write((const uint8_t *)str, strlen(str));
   d735a:	4718      	bx	r3
    }
   d735c:	b002      	add	sp, #8
   d735e:	bd10      	pop	{r4, pc}

000d7360 <_ZN8FatCache4syncEv>:
fail:

  return 0;
}
//------------------------------------------------------------------------------
bool FatCache::sync() {
   d7360:	b537      	push	{r0, r1, r2, r4, r5, lr}
  if (m_status & CACHE_STATUS_DIRTY) {
   d7362:	7803      	ldrb	r3, [r0, #0]
   d7364:	07da      	lsls	r2, r3, #31
bool FatCache::sync() {
   d7366:	4604      	mov	r4, r0
  if (m_status & CACHE_STATUS_DIRTY) {
   d7368:	d520      	bpl.n	d73ac <_ZN8FatCache4syncEv+0x4c>
    if (!m_vol->writeBlock(m_lbn, m_block.data)) {
   d736a:	6843      	ldr	r3, [r0, #4]
   d736c:	6881      	ldr	r1, [r0, #8]
   d736e:	f100 020c 	add.w	r2, r0, #12
   d7372:	6818      	ldr	r0, [r3, #0]
   d7374:	9201      	str	r2, [sp, #4]
   d7376:	f000 fb84 	bl	d7a82 <_ZN9SdSpiCard10writeBlockEmPKh>
   d737a:	9a01      	ldr	r2, [sp, #4]
   d737c:	4605      	mov	r5, r0
   d737e:	b918      	cbnz	r0, d7388 <_ZN8FatCache4syncEv+0x28>
    m_status &= ~CACHE_STATUS_DIRTY;
  }
  return true;

fail:
  return false;
   d7380:	2500      	movs	r5, #0
}
   d7382:	4628      	mov	r0, r5
   d7384:	b003      	add	sp, #12
   d7386:	bd30      	pop	{r4, r5, pc}
    if (m_status & CACHE_STATUS_MIRROR_FAT) {
   d7388:	7823      	ldrb	r3, [r4, #0]
   d738a:	079b      	lsls	r3, r3, #30
   d738c:	d404      	bmi.n	d7398 <_ZN8FatCache4syncEv+0x38>
    m_status &= ~CACHE_STATUS_DIRTY;
   d738e:	7823      	ldrb	r3, [r4, #0]
   d7390:	f023 0301 	bic.w	r3, r3, #1
   d7394:	7023      	strb	r3, [r4, #0]
   d7396:	e7f4      	b.n	d7382 <_ZN8FatCache4syncEv+0x22>
      uint32_t lbn = m_lbn + m_vol->blocksPerFat();
   d7398:	e9d4 3001 	ldrd	r3, r0, [r4, #4]
   d739c:	6919      	ldr	r1, [r3, #16]
   d739e:	4401      	add	r1, r0
   d73a0:	6818      	ldr	r0, [r3, #0]
   d73a2:	f000 fb6e 	bl	d7a82 <_ZN9SdSpiCard10writeBlockEmPKh>
      if (!m_vol->writeBlock(lbn, m_block.data)) {
   d73a6:	2800      	cmp	r0, #0
   d73a8:	d1f1      	bne.n	d738e <_ZN8FatCache4syncEv+0x2e>
   d73aa:	e7e9      	b.n	d7380 <_ZN8FatCache4syncEv+0x20>
  return true;
   d73ac:	2501      	movs	r5, #1
   d73ae:	e7e8      	b.n	d7382 <_ZN8FatCache4syncEv+0x22>

000d73b0 <_ZN8FatCache4readEmh>:
cache_t* FatCache::read(uint32_t lbn, uint8_t option) {
   d73b0:	b570      	push	{r4, r5, r6, lr}
  if (m_lbn != lbn) {
   d73b2:	6883      	ldr	r3, [r0, #8]
   d73b4:	428b      	cmp	r3, r1
cache_t* FatCache::read(uint32_t lbn, uint8_t option) {
   d73b6:	4604      	mov	r4, r0
   d73b8:	460e      	mov	r6, r1
   d73ba:	4615      	mov	r5, r2
  if (m_lbn != lbn) {
   d73bc:	d009      	beq.n	d73d2 <_ZN8FatCache4readEmh+0x22>
    if (!sync()) {
   d73be:	f7ff ffcf 	bl	d7360 <_ZN8FatCache4syncEv>
   d73c2:	b908      	cbnz	r0, d73c8 <_ZN8FatCache4readEmh+0x18>
  return 0;
   d73c4:	2000      	movs	r0, #0
}
   d73c6:	bd70      	pop	{r4, r5, r6, pc}
    if (!(option & CACHE_OPTION_NO_READ)) {
   d73c8:	076b      	lsls	r3, r5, #29
   d73ca:	d50a      	bpl.n	d73e2 <_ZN8FatCache4readEmh+0x32>
    m_status = 0;
   d73cc:	2300      	movs	r3, #0
   d73ce:	7023      	strb	r3, [r4, #0]
    m_lbn = lbn;
   d73d0:	60a6      	str	r6, [r4, #8]
  m_status |= option & CACHE_STATUS_MASK;
   d73d2:	7822      	ldrb	r2, [r4, #0]
   d73d4:	f005 0503 	and.w	r5, r5, #3
   d73d8:	4620      	mov	r0, r4
   d73da:	4315      	orrs	r5, r2
   d73dc:	f800 5b0c 	strb.w	r5, [r0], #12
  return &m_block;
   d73e0:	e7f1      	b.n	d73c6 <_ZN8FatCache4readEmh+0x16>
      if (!m_vol->readBlock(lbn, m_block.data)) {
   d73e2:	6863      	ldr	r3, [r4, #4]
    return m_blockDev->readBlock(block, dst);
   d73e4:	f104 020c 	add.w	r2, r4, #12
   d73e8:	6818      	ldr	r0, [r3, #0]
   d73ea:	4631      	mov	r1, r6
   d73ec:	f000 fac0 	bl	d7970 <_ZN9SdSpiCard9readBlockEmPh>
   d73f0:	2800      	cmp	r0, #0
   d73f2:	d1eb      	bne.n	d73cc <_ZN8FatCache4readEmh+0x1c>
   d73f4:	e7e6      	b.n	d73c4 <_ZN8FatCache4readEmh+0x14>

000d73f6 <_ZNK9FatVolume17clusterFirstBlockEm>:
fail:
  return false;
}
//------------------------------------------------------------------------------
uint32_t FatVolume::clusterFirstBlock(uint32_t cluster) const {
  return m_dataStartBlock + ((cluster - 2) << m_clusterSizeShift);
   d73f6:	7983      	ldrb	r3, [r0, #6]
   d73f8:	6940      	ldr	r0, [r0, #20]
   d73fa:	3902      	subs	r1, #2
   d73fc:	4099      	lsls	r1, r3
}
   d73fe:	4408      	add	r0, r1
   d7400:	4770      	bx	lr

000d7402 <_ZN9FatVolume6fatGetEmPm>:
  uint32_t lba;
  uint32_t next;
  cache_t* pc;

  // error if reserved cluster of beyond FAT
  if (cluster < 2 || cluster > m_lastCluster) {
   d7402:	2901      	cmp	r1, #1
int8_t FatVolume::fatGet(uint32_t cluster, uint32_t* value) {
   d7404:	b570      	push	{r4, r5, r6, lr}
   d7406:	4605      	mov	r5, r0
   d7408:	460c      	mov	r4, r1
   d740a:	4616      	mov	r6, r2
  if (cluster < 2 || cluster > m_lastCluster) {
   d740c:	d802      	bhi.n	d7414 <_ZN9FatVolume6fatGetEmPm+0x12>
  }
  *value = next;
  return 1;

fail:
  return -1;
   d740e:	f04f 30ff 	mov.w	r0, #4294967295
}
   d7412:	bd70      	pop	{r4, r5, r6, pc}
  if (cluster < 2 || cluster > m_lastCluster) {
   d7414:	69c3      	ldr	r3, [r0, #28]
   d7416:	428b      	cmp	r3, r1
   d7418:	d3f9      	bcc.n	d740e <_ZN9FatVolume6fatGetEmPm+0xc>
  if (fatType() == 32) {
   d741a:	79c3      	ldrb	r3, [r0, #7]
   d741c:	2b20      	cmp	r3, #32
   d741e:	d116      	bne.n	d744e <_ZN9FatVolume6fatGetEmPm+0x4c>
    lba = m_fatStartBlock + (cluster >> 7);
   d7420:	6981      	ldr	r1, [r0, #24]
    return m_fatCache.read(blockNumber,
   d7422:	2202      	movs	r2, #2
   d7424:	eb01 11d4 	add.w	r1, r1, r4, lsr #7
   d7428:	f500 700c 	add.w	r0, r0, #560	; 0x230
   d742c:	f7ff ffc0 	bl	d73b0 <_ZN8FatCache4readEmh>
    if (!pc) {
   d7430:	2800      	cmp	r0, #0
   d7432:	d0ec      	beq.n	d740e <_ZN9FatVolume6fatGetEmPm+0xc>
    next = pc->fat32[cluster & 0X7F] & FAT32MASK;
   d7434:	f004 047f 	and.w	r4, r4, #127	; 0x7f
   d7438:	f850 3024 	ldr.w	r3, [r0, r4, lsl #2]
   d743c:	f023 4370 	bic.w	r3, r3, #4026531840	; 0xf0000000
  if (isEOC(next)) {
   d7440:	69ea      	ldr	r2, [r5, #28]
   d7442:	429a      	cmp	r2, r3
  *value = next;
   d7444:	bf26      	itte	cs
   d7446:	6033      	strcs	r3, [r6, #0]
  return 1;
   d7448:	2001      	movcs	r0, #1
    return 0;
   d744a:	2000      	movcc	r0, #0
   d744c:	e7e1      	b.n	d7412 <_ZN9FatVolume6fatGetEmPm+0x10>
  if (fatType() == 16) {
   d744e:	2b10      	cmp	r3, #16
   d7450:	d1dd      	bne.n	d740e <_ZN9FatVolume6fatGetEmPm+0xc>
    lba = m_fatStartBlock + ((cluster >> 8) & 0XFF);
   d7452:	6983      	ldr	r3, [r0, #24]
   d7454:	f3c1 2107 	ubfx	r1, r1, #8, #8
   d7458:	2202      	movs	r2, #2
   d745a:	4419      	add	r1, r3
   d745c:	f500 700c 	add.w	r0, r0, #560	; 0x230
   d7460:	f7ff ffa6 	bl	d73b0 <_ZN8FatCache4readEmh>
    if (!pc) {
   d7464:	2800      	cmp	r0, #0
   d7466:	d0d2      	beq.n	d740e <_ZN9FatVolume6fatGetEmPm+0xc>
    next = pc->fat16[cluster & 0XFF];
   d7468:	b2e4      	uxtb	r4, r4
   d746a:	f830 3014 	ldrh.w	r3, [r0, r4, lsl #1]
    goto done;
   d746e:	e7e7      	b.n	d7440 <_ZN9FatVolume6fatGetEmPm+0x3e>

000d7470 <_ZN9FatVolume6fatPutEmm>:
bool FatVolume::fatPut(uint32_t cluster, uint32_t value) {
  uint32_t lba;
  cache_t* pc;

  // error if reserved cluster of beyond FAT
  if (cluster < 2 || cluster > m_lastCluster) {
   d7470:	2901      	cmp	r1, #1
bool FatVolume::fatPut(uint32_t cluster, uint32_t value) {
   d7472:	b538      	push	{r3, r4, r5, lr}
   d7474:	460c      	mov	r4, r1
   d7476:	4615      	mov	r5, r2
  if (cluster < 2 || cluster > m_lastCluster) {
   d7478:	d801      	bhi.n	d747e <_ZN9FatVolume6fatPutEmm+0xe>
    DBG_FAIL_MACRO;
    goto fail;
  }

fail:
  return false;
   d747a:	2000      	movs	r0, #0
}
   d747c:	bd38      	pop	{r3, r4, r5, pc}
  if (cluster < 2 || cluster > m_lastCluster) {
   d747e:	69c3      	ldr	r3, [r0, #28]
   d7480:	428b      	cmp	r3, r1
   d7482:	d3fa      	bcc.n	d747a <_ZN9FatVolume6fatPutEmm+0xa>
  if (fatType() == 32) {
   d7484:	79c3      	ldrb	r3, [r0, #7]
   d7486:	2b20      	cmp	r3, #32
   d7488:	d10f      	bne.n	d74aa <_ZN9FatVolume6fatPutEmm+0x3a>
    lba = m_fatStartBlock + (cluster >> 7);
   d748a:	6981      	ldr	r1, [r0, #24]
   d748c:	2203      	movs	r2, #3
   d748e:	eb01 11d4 	add.w	r1, r1, r4, lsr #7
   d7492:	f500 700c 	add.w	r0, r0, #560	; 0x230
   d7496:	f7ff ff8b 	bl	d73b0 <_ZN8FatCache4readEmh>
    if (!pc) {
   d749a:	2800      	cmp	r0, #0
   d749c:	d0ed      	beq.n	d747a <_ZN9FatVolume6fatPutEmm+0xa>
    pc->fat32[cluster & 0X7F] = value;
   d749e:	f004 047f 	and.w	r4, r4, #127	; 0x7f
   d74a2:	f840 5024 	str.w	r5, [r0, r4, lsl #2]
    return true;
   d74a6:	2001      	movs	r0, #1
   d74a8:	e7e8      	b.n	d747c <_ZN9FatVolume6fatPutEmm+0xc>
  if (fatType() == 16) {
   d74aa:	2b10      	cmp	r3, #16
   d74ac:	d1e5      	bne.n	d747a <_ZN9FatVolume6fatPutEmm+0xa>
    lba = m_fatStartBlock + ((cluster >> 8) & 0XFF);
   d74ae:	6983      	ldr	r3, [r0, #24]
   d74b0:	f3c1 2107 	ubfx	r1, r1, #8, #8
   d74b4:	2203      	movs	r2, #3
   d74b6:	4419      	add	r1, r3
   d74b8:	f500 700c 	add.w	r0, r0, #560	; 0x230
   d74bc:	f7ff ff78 	bl	d73b0 <_ZN8FatCache4readEmh>
    if (!pc) {
   d74c0:	2800      	cmp	r0, #0
   d74c2:	d0da      	beq.n	d747a <_ZN9FatVolume6fatPutEmm+0xa>
    pc->fat16[cluster & 0XFF] = value;
   d74c4:	b2e4      	uxtb	r4, r4
   d74c6:	f820 5014 	strh.w	r5, [r0, r4, lsl #1]
   d74ca:	e7ec      	b.n	d74a6 <_ZN9FatVolume6fatPutEmm+0x36>

000d74cc <_ZN9FatVolume15allocateClusterEmPm>:
bool FatVolume::allocateCluster(uint32_t current, uint32_t* next) {
   d74cc:	e92d 41f3 	stmdb	sp!, {r0, r1, r4, r5, r6, r7, r8, lr}
  if (m_allocSearchStart < current) {
   d74d0:	68c4      	ldr	r4, [r0, #12]
   d74d2:	428c      	cmp	r4, r1
bool FatVolume::allocateCluster(uint32_t current, uint32_t* next) {
   d74d4:	4605      	mov	r5, r0
   d74d6:	460e      	mov	r6, r1
   d74d8:	4690      	mov	r8, r2
  if (m_allocSearchStart < current) {
   d74da:	d301      	bcc.n	d74e0 <_ZN9FatVolume15allocateClusterEmPm+0x14>
      setStart = true;
   d74dc:	2701      	movs	r7, #1
   d74de:	e001      	b.n	d74e4 <_ZN9FatVolume15allocateClusterEmPm+0x18>
   d74e0:	460c      	mov	r4, r1
    setStart = false;
   d74e2:	2700      	movs	r7, #0
    if (find > m_lastCluster) {
   d74e4:	69eb      	ldr	r3, [r5, #28]
    find++;
   d74e6:	3401      	adds	r4, #1
    if (find > m_lastCluster) {
   d74e8:	42a3      	cmp	r3, r4
   d74ea:	d202      	bcs.n	d74f2 <_ZN9FatVolume15allocateClusterEmPm+0x26>
      if (setStart) {
   d74ec:	b9c7      	cbnz	r7, d7520 <_ZN9FatVolume15allocateClusterEmPm+0x54>
      find = m_allocSearchStart;
   d74ee:	68ec      	ldr	r4, [r5, #12]
   d74f0:	e7f4      	b.n	d74dc <_ZN9FatVolume15allocateClusterEmPm+0x10>
    if (find == current) {
   d74f2:	42a6      	cmp	r6, r4
   d74f4:	d014      	beq.n	d7520 <_ZN9FatVolume15allocateClusterEmPm+0x54>
    int8_t fg = fatGet(find, &f);
   d74f6:	aa01      	add	r2, sp, #4
   d74f8:	4621      	mov	r1, r4
   d74fa:	4628      	mov	r0, r5
   d74fc:	f7ff ff81 	bl	d7402 <_ZN9FatVolume6fatGetEmPm>
    if (fg < 0) {
   d7500:	2800      	cmp	r0, #0
   d7502:	db0d      	blt.n	d7520 <_ZN9FatVolume15allocateClusterEmPm+0x54>
    if (fg && f == 0) {
   d7504:	d0ee      	beq.n	d74e4 <_ZN9FatVolume15allocateClusterEmPm+0x18>
   d7506:	9b01      	ldr	r3, [sp, #4]
   d7508:	2b00      	cmp	r3, #0
   d750a:	d1eb      	bne.n	d74e4 <_ZN9FatVolume15allocateClusterEmPm+0x18>
  if (setStart) {
   d750c:	b107      	cbz	r7, d7510 <_ZN9FatVolume15allocateClusterEmPm+0x44>
    m_allocSearchStart = find;
   d750e:	60ec      	str	r4, [r5, #12]
  }
  uint32_t clusterFirstBlock(uint32_t cluster) const;
  int8_t fatGet(uint32_t cluster, uint32_t* value);
  bool fatPut(uint32_t cluster, uint32_t value);
  bool fatPutEOC(uint32_t cluster) {
    return fatPut(cluster, 0x0FFFFFFF);
   d7510:	f06f 4270 	mvn.w	r2, #4026531840	; 0xf0000000
   d7514:	4621      	mov	r1, r4
   d7516:	4628      	mov	r0, r5
   d7518:	f7ff ffaa 	bl	d7470 <_ZN9FatVolume6fatPutEmm>
  if (!fatPutEOC(find)) {
   d751c:	4607      	mov	r7, r0
   d751e:	b920      	cbnz	r0, d752a <_ZN9FatVolume15allocateClusterEmPm+0x5e>
  return false;
   d7520:	2700      	movs	r7, #0
}
   d7522:	4638      	mov	r0, r7
   d7524:	b002      	add	sp, #8
   d7526:	e8bd 81f0 	ldmia.w	sp!, {r4, r5, r6, r7, r8, pc}
  if (current) {
   d752a:	b916      	cbnz	r6, d7532 <_ZN9FatVolume15allocateClusterEmPm+0x66>
  *next = find;
   d752c:	f8c8 4000 	str.w	r4, [r8]
  return true;
   d7530:	e7f7      	b.n	d7522 <_ZN9FatVolume15allocateClusterEmPm+0x56>
    if (!fatPut(current, find)) {
   d7532:	4622      	mov	r2, r4
   d7534:	4631      	mov	r1, r6
   d7536:	4628      	mov	r0, r5
   d7538:	f7ff ff9a 	bl	d7470 <_ZN9FatVolume6fatPutEmm>
   d753c:	2800      	cmp	r0, #0
   d753e:	d1f5      	bne.n	d752c <_ZN9FatVolume15allocateClusterEmPm+0x60>
   d7540:	e7ee      	b.n	d7520 <_ZN9FatVolume15allocateClusterEmPm+0x54>

000d7542 <_ZN9FatVolume9freeChainEm>:
//------------------------------------------------------------------------------
// free a cluster chain
bool FatVolume::freeChain(uint32_t cluster) {
   d7542:	b573      	push	{r0, r1, r4, r5, r6, lr}
   d7544:	4605      	mov	r5, r0
   d7546:	460c      	mov	r4, r1
  uint32_t next;
  int8_t fg;
  do {
    fg = fatGet(cluster, &next);
   d7548:	aa01      	add	r2, sp, #4
   d754a:	4621      	mov	r1, r4
   d754c:	4628      	mov	r0, r5
   d754e:	f7ff ff58 	bl	d7402 <_ZN9FatVolume6fatGetEmPm>
    if (fg < 0) {
   d7552:	1e06      	subs	r6, r0, #0
   d7554:	db10      	blt.n	d7578 <_ZN9FatVolume9freeChainEm+0x36>
      DBG_FAIL_MACRO;
      goto fail;
    }
    // free cluster
    if (!fatPut(cluster, 0)) {
   d7556:	2200      	movs	r2, #0
   d7558:	4621      	mov	r1, r4
   d755a:	4628      	mov	r0, r5
   d755c:	f7ff ff88 	bl	d7470 <_ZN9FatVolume6fatPutEmm>
   d7560:	b150      	cbz	r0, d7578 <_ZN9FatVolume9freeChainEm+0x36>
      goto fail;
    }
    // Add one to count of free clusters.
    updateFreeClusterCount(1);

    if (cluster <= m_allocSearchStart) {
   d7562:	68eb      	ldr	r3, [r5, #12]
   d7564:	42a3      	cmp	r3, r4
      m_allocSearchStart = cluster - 1;
   d7566:	bf24      	itt	cs
   d7568:	f104 34ff 	addcs.w	r4, r4, #4294967295
   d756c:	60ec      	strcs	r4, [r5, #12]
    }
    cluster = next;
   d756e:	9c01      	ldr	r4, [sp, #4]
  } while (fg);
   d7570:	2e00      	cmp	r6, #0
   d7572:	d1e9      	bne.n	d7548 <_ZN9FatVolume9freeChainEm+0x6>

  return true;

fail:
  return false;
}
   d7574:	b002      	add	sp, #8
   d7576:	bd70      	pop	{r4, r5, r6, pc}
  return false;
   d7578:	2000      	movs	r0, #0
   d757a:	e7fb      	b.n	d7574 <_ZN9FatVolume9freeChainEm+0x32>

000d757c <_ZN9FatVolume4initEh>:
  uint32_t volumeStartBlock = 0;
  fat32_boot_t* fbs;
  cache_t* pc;
  uint8_t tmp;
  m_fatType = 0;
  m_allocSearchStart = 1;
   d757c:	2301      	movs	r3, #1
bool FatVolume::init(uint8_t part) {
   d757e:	b570      	push	{r4, r5, r6, lr}
  m_fatType = 0;
   d7580:	2200      	movs	r2, #0
  m_allocSearchStart = 1;
   d7582:	60c3      	str	r3, [r0, #12]
    m_lbn = 0XFFFFFFFF;
   d7584:	f04f 33ff 	mov.w	r3, #4294967295
bool FatVolume::init(uint8_t part) {
   d7588:	4604      	mov	r4, r0
  m_fatType = 0;
   d758a:	71c2      	strb	r2, [r0, #7]
  m_cache.init(this);
   d758c:	f100 0624 	add.w	r6, r0, #36	; 0x24
    m_vol = vol;
   d7590:	6280      	str	r0, [r0, #40]	; 0x28
    m_status = 0;
   d7592:	f880 2024 	strb.w	r2, [r0, #36]	; 0x24
    m_lbn = 0XFFFFFFFF;
   d7596:	62c3      	str	r3, [r0, #44]	; 0x2c
    m_vol = vol;
   d7598:	f8c0 0234 	str.w	r0, [r0, #564]	; 0x234
    m_status = 0;
   d759c:	f880 2230 	strb.w	r2, [r0, #560]	; 0x230
    m_lbn = 0XFFFFFFFF;
   d75a0:	f8c0 3238 	str.w	r3, [r0, #568]	; 0x238
#if USE_SEPARATE_FAT_CACHE
  m_fatCache.init(this);
#endif  // USE_SEPARATE_FAT_CACHE
  // if part == 0 assume super floppy with FAT boot sector in block zero
  // if part > 0 assume mbr volume with partition table
  if (part) {
   d75a4:	460d      	mov	r5, r1
   d75a6:	b1b9      	cbz	r1, d75d8 <_ZN9FatVolume4initEh+0x5c>
    if (part > 4) {
   d75a8:	2904      	cmp	r1, #4
   d75aa:	d901      	bls.n	d75b0 <_ZN9FatVolume4initEh+0x34>
    m_fatType = 32;
  }
  return true;

fail:
  return false;
   d75ac:	2000      	movs	r0, #0
}
   d75ae:	bd70      	pop	{r4, r5, r6, pc}
    return m_cache.read(blockNumber, options);
   d75b0:	4611      	mov	r1, r2
   d75b2:	4630      	mov	r0, r6
   d75b4:	f7ff fefc 	bl	d73b0 <_ZN8FatCache4readEmh>
    if (!pc) {
   d75b8:	2800      	cmp	r0, #0
   d75ba:	d0f7      	beq.n	d75ac <_ZN9FatVolume4initEh+0x30>
    if ((p->boot & 0X7F) != 0 || p->firstSector == 0) {
   d75bc:	eb00 1305 	add.w	r3, r0, r5, lsl #4
   d75c0:	f893 31ae 	ldrb.w	r3, [r3, #430]	; 0x1ae
   d75c4:	065b      	lsls	r3, r3, #25
   d75c6:	d1f1      	bne.n	d75ac <_ZN9FatVolume4initEh+0x30>
   d75c8:	f105 011b 	add.w	r1, r5, #27
   d75cc:	eb00 1101 	add.w	r1, r0, r1, lsl #4
   d75d0:	f8d1 5006 	ldr.w	r5, [r1, #6]
   d75d4:	2d00      	cmp	r5, #0
   d75d6:	d0e9      	beq.n	d75ac <_ZN9FatVolume4initEh+0x30>
   d75d8:	2200      	movs	r2, #0
   d75da:	4629      	mov	r1, r5
   d75dc:	4630      	mov	r0, r6
   d75de:	f7ff fee7 	bl	d73b0 <_ZN8FatCache4readEmh>
  if (!pc) {
   d75e2:	2800      	cmp	r0, #0
   d75e4:	d0e2      	beq.n	d75ac <_ZN9FatVolume4initEh+0x30>
  if (fbs->bytesPerSector != 512 ||
   d75e6:	f8b0 300b 	ldrh.w	r3, [r0, #11]
   d75ea:	f5b3 7f00 	cmp.w	r3, #512	; 0x200
   d75ee:	d1dd      	bne.n	d75ac <_ZN9FatVolume4initEh+0x30>
   d75f0:	7c03      	ldrb	r3, [r0, #16]
   d75f2:	2b02      	cmp	r3, #2
   d75f4:	d1da      	bne.n	d75ac <_ZN9FatVolume4initEh+0x30>
      fbs->fatCount != 2 ||
   d75f6:	89c3      	ldrh	r3, [r0, #14]
   d75f8:	2b00      	cmp	r3, #0
   d75fa:	d0d7      	beq.n	d75ac <_ZN9FatVolume4initEh+0x30>
  m_blocksPerCluster = fbs->sectorsPerCluster;
   d75fc:	7b41      	ldrb	r1, [r0, #13]
   d75fe:	7121      	strb	r1, [r4, #4]
  m_clusterBlockMask = m_blocksPerCluster - 1;
   d7600:	1e4b      	subs	r3, r1, #1
   d7602:	7163      	strb	r3, [r4, #5]
  m_clusterSizeShift = 0;
   d7604:	2300      	movs	r3, #0
   d7606:	71a3      	strb	r3, [r4, #6]
   d7608:	2609      	movs	r6, #9
  for (tmp = 1; m_blocksPerCluster != tmp; tmp <<= 1, m_clusterSizeShift++) {
   d760a:	2301      	movs	r3, #1
   d760c:	4299      	cmp	r1, r3
   d760e:	d007      	beq.n	d7620 <_ZN9FatVolume4initEh+0xa4>
    if (tmp == 0) {
   d7610:	3e01      	subs	r6, #1
   d7612:	d0cb      	beq.n	d75ac <_ZN9FatVolume4initEh+0x30>
  for (tmp = 1; m_blocksPerCluster != tmp; tmp <<= 1, m_clusterSizeShift++) {
   d7614:	79a2      	ldrb	r2, [r4, #6]
   d7616:	005b      	lsls	r3, r3, #1
   d7618:	3201      	adds	r2, #1
   d761a:	b2db      	uxtb	r3, r3
   d761c:	71a2      	strb	r2, [r4, #6]
   d761e:	e7f5      	b.n	d760c <_ZN9FatVolume4initEh+0x90>
  m_blocksPerFat = fbs->sectorsPerFat16 ?
   d7620:	8ac1      	ldrh	r1, [r0, #22]
   d7622:	b901      	cbnz	r1, d7626 <_ZN9FatVolume4initEh+0xaa>
   d7624:	6a41      	ldr	r1, [r0, #36]	; 0x24
   d7626:	6121      	str	r1, [r4, #16]
  m_fatStartBlock = volumeStartBlock + fbs->reservedSectorCount;
   d7628:	89c3      	ldrh	r3, [r0, #14]
   d762a:	442b      	add	r3, r5
   d762c:	61a3      	str	r3, [r4, #24]
  m_rootDirEntryCount = fbs->rootDirEntryCount;
   d762e:	f8b0 2011 	ldrh.w	r2, [r0, #17]
   d7632:	8122      	strh	r2, [r4, #8]
  m_rootDirStart = m_fatStartBlock + 2 * m_blocksPerFat;
   d7634:	eb03 0341 	add.w	r3, r3, r1, lsl #1
   d7638:	6223      	str	r3, [r4, #32]
  m_dataStartBlock = m_rootDirStart + ((32 * fbs->rootDirEntryCount + 511)/512);
   d763a:	f8b0 1011 	ldrh.w	r1, [r0, #17]
   d763e:	0149      	lsls	r1, r1, #5
   d7640:	f201 11ff 	addw	r1, r1, #511	; 0x1ff
   d7644:	eb03 2351 	add.w	r3, r3, r1, lsr #9
   d7648:	6163      	str	r3, [r4, #20]
  totalBlocks = fbs->totalSectors16 ?
   d764a:	f8b0 2013 	ldrh.w	r2, [r0, #19]
   d764e:	b902      	cbnz	r2, d7652 <_ZN9FatVolume4initEh+0xd6>
   d7650:	6a02      	ldr	r2, [r0, #32]
  clusterCount = totalBlocks - (m_dataStartBlock - volumeStartBlock);
   d7652:	1ae9      	subs	r1, r5, r3
  clusterCount >>= m_clusterSizeShift;
   d7654:	79a3      	ldrb	r3, [r4, #6]
  clusterCount = totalBlocks - (m_dataStartBlock - volumeStartBlock);
   d7656:	4411      	add	r1, r2
  clusterCount >>= m_clusterSizeShift;
   d7658:	40d9      	lsrs	r1, r3
  m_lastCluster = clusterCount + 1;
   d765a:	1c4b      	adds	r3, r1, #1
   d765c:	61e3      	str	r3, [r4, #28]
  if (clusterCount < 4085) {
   d765e:	f640 73f4 	movw	r3, #4084	; 0xff4
   d7662:	4299      	cmp	r1, r3
   d7664:	d802      	bhi.n	d766c <_ZN9FatVolume4initEh+0xf0>
    m_fatType = 12;
   d7666:	230c      	movs	r3, #12
   d7668:	71e3      	strb	r3, [r4, #7]
   d766a:	e79f      	b.n	d75ac <_ZN9FatVolume4initEh+0x30>
  } else if (clusterCount < 65525) {
   d766c:	f64f 73f4 	movw	r3, #65524	; 0xfff4
   d7670:	4299      	cmp	r1, r3
    m_rootDirStart = fbs->fat32RootCluster;
   d7672:	bf85      	ittet	hi
   d7674:	6ac3      	ldrhi	r3, [r0, #44]	; 0x2c
   d7676:	6223      	strhi	r3, [r4, #32]
    m_fatType = 16;
   d7678:	2310      	movls	r3, #16
    m_fatType = 32;
   d767a:	2320      	movhi	r3, #32
   d767c:	71e3      	strb	r3, [r4, #7]
  return true;
   d767e:	2001      	movs	r0, #1
   d7680:	e795      	b.n	d75ae <_ZN9FatVolume4initEh+0x32>
	...

000d7684 <_ZN9SdSpiCard10isTimedOutEtt>:
    spiStop();
  }
  return rtn;
}
//------------------------------------------------------------------------------
bool SdSpiCard::isTimedOut(uint16_t startMS, uint16_t timeoutMS) {
   d7684:	b570      	push	{r4, r5, r6, lr}
#if WDT_YIELD_TIME_MICROS
  static uint32_t last;
  if ((micros() - last) > WDT_YIELD_TIME_MICROS) {
   d7686:	4e0e      	ldr	r6, [pc, #56]	; (d76c0 <_ZN9SdSpiCard10isTimedOutEtt+0x3c>)
bool SdSpiCard::isTimedOut(uint16_t startMS, uint16_t timeoutMS) {
   d7688:	460d      	mov	r5, r1
   d768a:	4614      	mov	r4, r2
inline unsigned long micros(void) { return HAL_Timer_Get_Micro_Seconds(); }
   d768c:	f001 f91a 	bl	d88c4 <HAL_Timer_Get_Micro_Seconds>
  if ((micros() - last) > WDT_YIELD_TIME_MICROS) {
   d7690:	6833      	ldr	r3, [r6, #0]
   d7692:	1ac0      	subs	r0, r0, r3
   d7694:	4b0b      	ldr	r3, [pc, #44]	; (d76c4 <_ZN9SdSpiCard10isTimedOutEtt+0x40>)
   d7696:	4298      	cmp	r0, r3
   d7698:	d908      	bls.n	d76ac <_ZN9SdSpiCard10isTimedOutEtt+0x28>
		return !timeout_fn;
	}

	static inline system_tick_t current_time()
	{
		return HAL_Timer_Get_Milli_Seconds();
   d769a:	f001 f91b 	bl	d88d4 <HAL_Timer_Get_Milli_Seconds>
	/**
	 * Lifesign that the application is still working normally.
	 */
	static void checkin()
	{
		last_checkin = current_time();
   d769e:	4b0a      	ldr	r3, [pc, #40]	; (d76c8 <_ZN9SdSpiCard10isTimedOutEtt+0x44>)
   d76a0:	6018      	str	r0, [r3, #0]
    		spark_process();
   d76a2:	f001 fc03 	bl	d8eac <spark_process>
   d76a6:	f001 f90d 	bl	d88c4 <HAL_Timer_Get_Micro_Seconds>
    SysCall::yield();
    last = micros();
   d76aa:	6030      	str	r0, [r6, #0]
inline system_tick_t millis(void) { return HAL_Timer_Get_Milli_Seconds(); }
   d76ac:	f001 f912 	bl	d88d4 <HAL_Timer_Get_Milli_Seconds>
  }
#endif  // WDT_YIELD_TIME_MICROS
  return (curTimeMS() - startMS) > timeoutMS;
   d76b0:	b280      	uxth	r0, r0
   d76b2:	1b40      	subs	r0, r0, r5
}
   d76b4:	42a0      	cmp	r0, r4
   d76b6:	bfd4      	ite	le
   d76b8:	2000      	movle	r0, #0
   d76ba:	2001      	movgt	r0, #1
   d76bc:	bd70      	pop	{r4, r5, r6, pc}
   d76be:	bf00      	nop
   d76c0:	2003e5bc 	.word	0x2003e5bc
   d76c4:	000186a0 	.word	0x000186a0
   d76c8:	2003e7b8 	.word	0x2003e7b8

000d76cc <_ZN9SdSpiCard8spiStartEv>:
fail:
  spiStop();
  return false;
}
//-----------------------------------------------------------------------------
void SdSpiCard::spiStart() {
   d76cc:	b538      	push	{r3, r4, r5, lr}
  if (!m_spiActive) {
   d76ce:	7a05      	ldrb	r5, [r0, #8]
void SdSpiCard::spiStart() {
   d76d0:	4604      	mov	r4, r0
  if (!m_spiActive) {
   d76d2:	b94d      	cbnz	r5, d76e8 <_ZN9SdSpiCard8spiStartEv+0x1c>
  bool writeData(uint8_t token, const uint8_t* src);

  //---------------------------------------------------------------------------
  // functions defined in SdSpiDriver.h
  void spiActivate() {
    m_spiDriver->activate();
   d76d4:	6840      	ldr	r0, [r0, #4]
   d76d6:	f000 fa6b 	bl	d7bb0 <_ZN14SdSpiAltDriver8activateEv>
  }
  void spiSend(const uint8_t* buf, size_t n) {
    m_spiDriver->send(buf, n);
  }
  void spiSelect() {
    m_spiDriver->select();
   d76da:	6863      	ldr	r3, [r4, #4]
     digitalWrite(m_csPin, LOW);
   d76dc:	4629      	mov	r1, r5
   d76de:	7d18      	ldrb	r0, [r3, #20]
   d76e0:	f003 ff39 	bl	db556 <digitalWrite>
    spiActivate();
    spiSelect();
    m_spiActive = true;
   d76e4:	2301      	movs	r3, #1
   d76e6:	7223      	strb	r3, [r4, #8]
  }
}
   d76e8:	bd38      	pop	{r3, r4, r5, pc}

000d76ea <_ZN9SdSpiCard7spiStopEv>:
//-----------------------------------------------------------------------------
void SdSpiCard::spiStop() {
   d76ea:	b510      	push	{r4, lr}
  if (m_spiActive) {
   d76ec:	7a03      	ldrb	r3, [r0, #8]
void SdSpiCard::spiStop() {
   d76ee:	4604      	mov	r4, r0
  if (m_spiActive) {
   d76f0:	b16b      	cbz	r3, d770e <_ZN9SdSpiCard7spiStopEv+0x24>
  }
  void spiUnselect() {
    m_spiDriver->unselect();
   d76f2:	6843      	ldr	r3, [r0, #4]
    digitalWrite(m_csPin, HIGH);
   d76f4:	2101      	movs	r1, #1
   d76f6:	7d18      	ldrb	r0, [r3, #20]
   d76f8:	f003 ff2d 	bl	db556 <digitalWrite>
     m_spiDriver->send(data);
   d76fc:	6860      	ldr	r0, [r4, #4]
   d76fe:	21ff      	movs	r1, #255	; 0xff
   d7700:	f000 fa88 	bl	d7c14 <_ZN14SdSpiAltDriver4sendEh>
    m_spiDriver->deactivate();
   d7704:	6860      	ldr	r0, [r4, #4]
   d7706:	f000 fa67 	bl	d7bd8 <_ZN14SdSpiAltDriver10deactivateEv>
    spiUnselect();
    spiSend(0XFF);
    spiDeactivate();
    m_spiActive = false;
   d770a:	2300      	movs	r3, #0
   d770c:	7223      	strb	r3, [r4, #8]
  }
}
   d770e:	bd10      	pop	{r4, pc}

000d7710 <_ZN9SdSpiCard8readDataEPhj>:
bool SdSpiCard::readData(uint8_t* dst, size_t count) {
   d7710:	b5f8      	push	{r3, r4, r5, r6, r7, lr}
   d7712:	4604      	mov	r4, r0
   d7714:	460d      	mov	r5, r1
   d7716:	4616      	mov	r6, r2
   d7718:	f001 f8dc 	bl	d88d4 <HAL_Timer_Get_Milli_Seconds>
#define F(str) (str)
#endif  // F
//------------------------------------------------------------------------------
/** \return the time in milliseconds. */
inline uint16_t curTimeMS() {
  return millis();
   d771c:	b287      	uxth	r7, r0
    return m_spiDriver->receive();
   d771e:	6860      	ldr	r0, [r4, #4]
   d7720:	f000 fa5d 	bl	d7bde <_ZN14SdSpiAltDriver7receiveEv>
  while ((m_status = spiReceive()) == 0XFF) {
   d7724:	28ff      	cmp	r0, #255	; 0xff
   d7726:	7260      	strb	r0, [r4, #9]
   d7728:	d10e      	bne.n	d7748 <_ZN9SdSpiCard8readDataEPhj+0x38>
    if (isTimedOut(t0, SD_READ_TIMEOUT)) {
   d772a:	f44f 727a 	mov.w	r2, #1000	; 0x3e8
   d772e:	4639      	mov	r1, r7
   d7730:	4620      	mov	r0, r4
   d7732:	f7ff ffa7 	bl	d7684 <_ZN9SdSpiCard10isTimedOutEtt>
   d7736:	2800      	cmp	r0, #0
   d7738:	d0f1      	beq.n	d771e <_ZN9SdSpiCard8readDataEPhj+0xe>
    m_errorCode = code;
   d773a:	2355      	movs	r3, #85	; 0x55
  spiStop();
   d773c:	4620      	mov	r0, r4
   d773e:	7023      	strb	r3, [r4, #0]
   d7740:	f7ff ffd3 	bl	d76ea <_ZN9SdSpiCard7spiStopEv>
  return false;
   d7744:	2000      	movs	r0, #0
}
   d7746:	bdf8      	pop	{r3, r4, r5, r6, r7, pc}
  if (m_status != DATA_START_BLOCK) {
   d7748:	28fe      	cmp	r0, #254	; 0xfe
   d774a:	d001      	beq.n	d7750 <_ZN9SdSpiCard8readDataEPhj+0x40>
   d774c:	2350      	movs	r3, #80	; 0x50
   d774e:	e7f5      	b.n	d773c <_ZN9SdSpiCard8readDataEPhj+0x2c>
    return  m_spiDriver->receive(buf, n);
   d7750:	6860      	ldr	r0, [r4, #4]
   d7752:	4632      	mov	r2, r6
   d7754:	4629      	mov	r1, r5
   d7756:	f000 fa47 	bl	d7be8 <_ZN14SdSpiAltDriver7receiveEPhj>
  if ((m_status = spiReceive(dst, count))) {
   d775a:	7260      	strb	r0, [r4, #9]
   d775c:	b108      	cbz	r0, d7762 <_ZN9SdSpiCard8readDataEPhj+0x52>
    m_errorCode = code;
   d775e:	2360      	movs	r3, #96	; 0x60
   d7760:	e7ec      	b.n	d773c <_ZN9SdSpiCard8readDataEPhj+0x2c>
    return m_spiDriver->receive();
   d7762:	6860      	ldr	r0, [r4, #4]
   d7764:	f000 fa3b 	bl	d7bde <_ZN14SdSpiAltDriver7receiveEv>
   d7768:	6860      	ldr	r0, [r4, #4]
   d776a:	f000 fa38 	bl	d7bde <_ZN14SdSpiAltDriver7receiveEv>
   d776e:	2001      	movs	r0, #1
   d7770:	e7e9      	b.n	d7746 <_ZN9SdSpiCard8readDataEPhj+0x36>

000d7772 <_ZN9SdSpiCard11waitNotBusyEt>:
  spiStop();
  return false;
}
//------------------------------------------------------------------------------
// wait for card to go not busy
bool SdSpiCard::waitNotBusy(uint16_t timeoutMS) {
   d7772:	b570      	push	{r4, r5, r6, lr}
   d7774:	4604      	mov	r4, r0
   d7776:	460e      	mov	r6, r1
   d7778:	f001 f8ac 	bl	d88d4 <HAL_Timer_Get_Milli_Seconds>
   d777c:	b285      	uxth	r5, r0
  uint16_t t0 = curTimeMS();
#if WDT_YIELD_TIME_MICROS
  // Call isTimedOut first to insure yield is called.
  while (!isTimedOut(t0, timeoutMS)) {
   d777e:	4632      	mov	r2, r6
   d7780:	4629      	mov	r1, r5
   d7782:	4620      	mov	r0, r4
   d7784:	f7ff ff7e 	bl	d7684 <_ZN9SdSpiCard10isTimedOutEtt>
   d7788:	b930      	cbnz	r0, d7798 <_ZN9SdSpiCard11waitNotBusyEt+0x26>
   d778a:	6860      	ldr	r0, [r4, #4]
   d778c:	f000 fa27 	bl	d7bde <_ZN14SdSpiAltDriver7receiveEv>
    if (spiReceive() == 0XFF) {
   d7790:	28ff      	cmp	r0, #255	; 0xff
   d7792:	d1f4      	bne.n	d777e <_ZN9SdSpiCard11waitNotBusyEt+0xc>
      return true;
   d7794:	2001      	movs	r0, #1
      return false;
    }
  }
  return true;
#endif  // WDT_YIELD_TIME_MICROS
}
   d7796:	bd70      	pop	{r4, r5, r6, pc}
  return false;
   d7798:	2000      	movs	r0, #0
   d779a:	e7fc      	b.n	d7796 <_ZN9SdSpiCard11waitNotBusyEt+0x24>

000d779c <_ZN9SdSpiCard11cardCommandEhm>:
uint8_t SdSpiCard::cardCommand(uint8_t cmd, uint32_t arg) {
   d779c:	b5f7      	push	{r0, r1, r2, r4, r5, r6, r7, lr}
  if (!m_spiActive) {
   d779e:	7a03      	ldrb	r3, [r0, #8]
uint8_t SdSpiCard::cardCommand(uint8_t cmd, uint32_t arg) {
   d77a0:	9201      	str	r2, [sp, #4]
   d77a2:	4604      	mov	r4, r0
   d77a4:	460d      	mov	r5, r1
  if (!m_spiActive) {
   d77a6:	b90b      	cbnz	r3, d77ac <_ZN9SdSpiCard11cardCommandEhm+0x10>
    spiStart();
   d77a8:	f7ff ff90 	bl	d76cc <_ZN9SdSpiCard8spiStartEv>
  if (cmd != CMD0) {
   d77ac:	b125      	cbz	r5, d77b8 <_ZN9SdSpiCard11cardCommandEhm+0x1c>
    waitNotBusy(SD_CMD_TIMEOUT);
   d77ae:	f44f 7196 	mov.w	r1, #300	; 0x12c
   d77b2:	4620      	mov	r0, r4
   d77b4:	f7ff ffdd 	bl	d7772 <_ZN9SdSpiCard11waitNotBusyEt>
     m_spiDriver->send(data);
   d77b8:	6860      	ldr	r0, [r4, #4]
   d77ba:	f045 0140 	orr.w	r1, r5, #64	; 0x40
   d77be:	f000 fa29 	bl	d7c14 <_ZN14SdSpiAltDriver4sendEh>
   d77c2:	2603      	movs	r6, #3
    spiSend(pa[i]);
   d77c4:	af01      	add	r7, sp, #4
   d77c6:	5db9      	ldrb	r1, [r7, r6]
   d77c8:	6860      	ldr	r0, [r4, #4]
   d77ca:	f000 fa23 	bl	d7c14 <_ZN14SdSpiAltDriver4sendEh>
  for (int8_t i = 3; i >= 0; i--) {
   d77ce:	3e01      	subs	r6, #1
   d77d0:	d2f9      	bcs.n	d77c6 <_ZN9SdSpiCard11cardCommandEhm+0x2a>
  spiSend(cmd == CMD0 ? 0X95 : 0X87);
   d77d2:	2d00      	cmp	r5, #0
   d77d4:	6860      	ldr	r0, [r4, #4]
   d77d6:	bf0c      	ite	eq
   d77d8:	2195      	moveq	r1, #149	; 0x95
   d77da:	2187      	movne	r1, #135	; 0x87
   d77dc:	f000 fa1a 	bl	d7c14 <_ZN14SdSpiAltDriver4sendEh>
    return m_spiDriver->receive();
   d77e0:	6860      	ldr	r0, [r4, #4]
   d77e2:	f000 f9fc 	bl	d7bde <_ZN14SdSpiAltDriver7receiveEv>
   d77e6:	250b      	movs	r5, #11
   d77e8:	6860      	ldr	r0, [r4, #4]
   d77ea:	f000 f9f8 	bl	d7bde <_ZN14SdSpiAltDriver7receiveEv>
  for (uint8_t i = 0; ((m_status = spiReceive()) & 0X80) && i < 10; i++) {
   d77ee:	0603      	lsls	r3, r0, #24
   d77f0:	7260      	strb	r0, [r4, #9]
   d77f2:	d503      	bpl.n	d77fc <_ZN9SdSpiCard11cardCommandEhm+0x60>
   d77f4:	3d01      	subs	r5, #1
   d77f6:	f015 05ff 	ands.w	r5, r5, #255	; 0xff
   d77fa:	d1f5      	bne.n	d77e8 <_ZN9SdSpiCard11cardCommandEhm+0x4c>
}
   d77fc:	b003      	add	sp, #12
   d77fe:	bdf0      	pop	{r4, r5, r6, r7, pc}

000d7800 <_ZN9SdSpiCard8cardAcmdEhm>:
  uint8_t cardAcmd(uint8_t cmd, uint32_t arg) {
   d7800:	b570      	push	{r4, r5, r6, lr}
   d7802:	4604      	mov	r4, r0
   d7804:	460d      	mov	r5, r1
   d7806:	4616      	mov	r6, r2
    cardCommand(CMD55, 0);
   d7808:	2137      	movs	r1, #55	; 0x37
   d780a:	2200      	movs	r2, #0
   d780c:	f7ff ffc6 	bl	d779c <_ZN9SdSpiCard11cardCommandEhm>
    return cardCommand(cmd, arg);
   d7810:	4632      	mov	r2, r6
   d7812:	4629      	mov	r1, r5
   d7814:	4620      	mov	r0, r4
  }
   d7816:	e8bd 4070 	ldmia.w	sp!, {r4, r5, r6, lr}
    return cardCommand(cmd, arg);
   d781a:	f7ff bfbf 	b.w	d779c <_ZN9SdSpiCard11cardCommandEhm>
	...

000d7820 <_ZN9SdSpiCard5beginEP14SdSpiAltDriverhN8particle11SPISettingsE>:
bool SdSpiCard::begin(SdSpiDriver* spi, uint8_t csPin, SPISettings settings) {
   d7820:	e92d 41f0 	stmdb	sp!, {r4, r5, r6, r7, r8, lr}
  m_spiActive = false;
   d7824:	2500      	movs	r5, #0
   d7826:	7205      	strb	r5, [r0, #8]
  m_errorCode = SD_CARD_ERROR_NONE;
   d7828:	7005      	strb	r5, [r0, #0]
  m_type = 0;
   d782a:	7285      	strb	r5, [r0, #10]
  m_spiDriver = spi;
   d782c:	6041      	str	r1, [r0, #4]
bool SdSpiCard::begin(SdSpiDriver* spi, uint8_t csPin, SPISettings settings) {
   d782e:	4604      	mov	r4, r0
   d7830:	4690      	mov	r8, r2
   d7832:	461e      	mov	r6, r3
   d7834:	f001 f84e 	bl	d88d4 <HAL_Timer_Get_Milli_Seconds>
  m_spiDriver->begin(csPin);
   d7838:	4641      	mov	r1, r8
   d783a:	4607      	mov	r7, r0
   d783c:	6860      	ldr	r0, [r4, #4]
   d783e:	f000 f9bb 	bl	d7bb8 <_ZN14SdSpiAltDriver5beginEh>
  m_spiDriver->setSpiSettings(SD_SCK_HZ(250000));
   d7842:	6863      	ldr	r3, [r4, #4]
class SPISettings : public Printable {
   d7844:	4a49      	ldr	r2, [pc, #292]	; (d796c <_ZN9SdSpiCard5beginEP14SdSpiAltDriverhN8particle11SPISettingsE+0x14c>)
   d7846:	721d      	strb	r5, [r3, #8]
   d7848:	2501      	movs	r5, #1
   d784a:	60da      	str	r2, [r3, #12]
   d784c:	821d      	strh	r5, [r3, #16]
  spiStart();
   d784e:	4620      	mov	r0, r4
   d7850:	f7ff ff3c 	bl	d76cc <_ZN9SdSpiCard8spiStartEv>
    m_spiDriver->unselect();
   d7854:	6863      	ldr	r3, [r4, #4]
   d7856:	4629      	mov	r1, r5
   d7858:	7d18      	ldrb	r0, [r3, #20]
   d785a:	f003 fe7c 	bl	db556 <digitalWrite>
   d785e:	250a      	movs	r5, #10
     m_spiDriver->send(data);
   d7860:	6860      	ldr	r0, [r4, #4]
   d7862:	21ff      	movs	r1, #255	; 0xff
   d7864:	3d01      	subs	r5, #1
   d7866:	f000 f9d5 	bl	d7c14 <_ZN14SdSpiAltDriver4sendEh>
  for (uint8_t i = 0; i < 10; i++) {
   d786a:	f015 05ff 	ands.w	r5, r5, #255	; 0xff
   d786e:	d1f7      	bne.n	d7860 <_ZN9SdSpiCard5beginEP14SdSpiAltDriverhN8particle11SPISettingsE+0x40>
    m_spiDriver->select();
   d7870:	6863      	ldr	r3, [r4, #4]
     digitalWrite(m_csPin, LOW);
   d7872:	4629      	mov	r1, r5
   d7874:	7d18      	ldrb	r0, [r3, #20]
   d7876:	f003 fe6e 	bl	db556 <digitalWrite>
  }
   d787a:	250a      	movs	r5, #10
    if (cardCommand(CMD0, 0) == R1_IDLE_STATE) {
   d787c:	2200      	movs	r2, #0
   d787e:	4611      	mov	r1, r2
   d7880:	4620      	mov	r0, r4
   d7882:	f7ff ff8b 	bl	d779c <_ZN9SdSpiCard11cardCommandEhm>
   d7886:	2801      	cmp	r0, #1
   d7888:	4680      	mov	r8, r0
   d788a:	d018      	beq.n	d78be <_ZN9SdSpiCard5beginEP14SdSpiAltDriverhN8particle11SPISettingsE+0x9e>
    if (i == SD_CMD0_RETRY) {
   d788c:	3d01      	subs	r5, #1
   d788e:	f015 05ff 	ands.w	r5, r5, #255	; 0xff
   d7892:	d107      	bne.n	d78a4 <_ZN9SdSpiCard5beginEP14SdSpiAltDriverhN8particle11SPISettingsE+0x84>
    m_errorCode = code;
   d7894:	2320      	movs	r3, #32
  spiStop();
   d7896:	4620      	mov	r0, r4
   d7898:	7023      	strb	r3, [r4, #0]
   d789a:	f7ff ff26 	bl	d76ea <_ZN9SdSpiCard7spiStopEv>
  return false;
   d789e:	2000      	movs	r0, #0
}
   d78a0:	e8bd 81f0 	ldmia.w	sp!, {r4, r5, r6, r7, r8, pc}
     m_spiDriver->send(data);
   d78a4:	6860      	ldr	r0, [r4, #4]
   d78a6:	21fd      	movs	r1, #253	; 0xfd
   d78a8:	f000 f9b4 	bl	d7c14 <_ZN14SdSpiAltDriver4sendEh>
   d78ac:	f44f 7802 	mov.w	r8, #520	; 0x208
    return m_spiDriver->receive();
   d78b0:	6860      	ldr	r0, [r4, #4]
   d78b2:	f000 f994 	bl	d7bde <_ZN14SdSpiAltDriver7receiveEv>
    for (int i = 0; i < 520; i++) {
   d78b6:	f1b8 0801 	subs.w	r8, r8, #1
   d78ba:	d1f9      	bne.n	d78b0 <_ZN9SdSpiCard5beginEP14SdSpiAltDriverhN8particle11SPISettingsE+0x90>
   d78bc:	e7de      	b.n	d787c <_ZN9SdSpiCard5beginEP14SdSpiAltDriverhN8particle11SPISettingsE+0x5c>
  if (cardCommand(CMD8, 0x1AA) == (R1_ILLEGAL_COMMAND | R1_IDLE_STATE)) {
   d78be:	f44f 72d5 	mov.w	r2, #426	; 0x1aa
   d78c2:	2108      	movs	r1, #8
   d78c4:	4620      	mov	r0, r4
   d78c6:	f7ff ff69 	bl	d779c <_ZN9SdSpiCard11cardCommandEhm>
   d78ca:	2805      	cmp	r0, #5
   d78cc:	d114      	bne.n	d78f8 <_ZN9SdSpiCard5beginEP14SdSpiAltDriverhN8particle11SPISettingsE+0xd8>
    m_type = value;
   d78ce:	f884 800a 	strb.w	r8, [r4, #10]
  arg = type() == SD_CARD_TYPE_SD2 ? 0X40000000 : 0;
   d78d2:	2500      	movs	r5, #0
   d78d4:	b2bf      	uxth	r7, r7
  while (cardAcmd(ACMD41, arg) != R1_READY_STATE) {
   d78d6:	462a      	mov	r2, r5
   d78d8:	2129      	movs	r1, #41	; 0x29
   d78da:	4620      	mov	r0, r4
   d78dc:	f7ff ff90 	bl	d7800 <_ZN9SdSpiCard8cardAcmdEhm>
   d78e0:	4602      	mov	r2, r0
   d78e2:	b1d8      	cbz	r0, d791c <_ZN9SdSpiCard5beginEP14SdSpiAltDriverhN8particle11SPISettingsE+0xfc>
    if (isTimedOut(t0, SD_INIT_TIMEOUT)) {
   d78e4:	f44f 62fa 	mov.w	r2, #2000	; 0x7d0
   d78e8:	4639      	mov	r1, r7
   d78ea:	4620      	mov	r0, r4
   d78ec:	f7ff feca 	bl	d7684 <_ZN9SdSpiCard10isTimedOutEtt>
   d78f0:	2800      	cmp	r0, #0
   d78f2:	d0f0      	beq.n	d78d6 <_ZN9SdSpiCard5beginEP14SdSpiAltDriverhN8particle11SPISettingsE+0xb6>
    m_errorCode = code;
   d78f4:	2343      	movs	r3, #67	; 0x43
   d78f6:	e7ce      	b.n	d7896 <_ZN9SdSpiCard5beginEP14SdSpiAltDriverhN8particle11SPISettingsE+0x76>
   d78f8:	2504      	movs	r5, #4
    return m_spiDriver->receive();
   d78fa:	6860      	ldr	r0, [r4, #4]
   d78fc:	f000 f96f 	bl	d7bde <_ZN14SdSpiAltDriver7receiveEv>
   d7900:	3d01      	subs	r5, #1
    for (uint8_t i = 0; i < 4; i++) {
   d7902:	f015 05ff 	ands.w	r5, r5, #255	; 0xff
      m_status = spiReceive();
   d7906:	7260      	strb	r0, [r4, #9]
    for (uint8_t i = 0; i < 4; i++) {
   d7908:	d1f7      	bne.n	d78fa <_ZN9SdSpiCard5beginEP14SdSpiAltDriverhN8particle11SPISettingsE+0xda>
    if (m_status == 0XAA) {
   d790a:	28aa      	cmp	r0, #170	; 0xaa
   d790c:	d104      	bne.n	d7918 <_ZN9SdSpiCard5beginEP14SdSpiAltDriverhN8particle11SPISettingsE+0xf8>
    m_type = value;
   d790e:	2302      	movs	r3, #2
   d7910:	72a3      	strb	r3, [r4, #10]
  arg = type() == SD_CARD_TYPE_SD2 ? 0X40000000 : 0;
   d7912:	f04f 4580 	mov.w	r5, #1073741824	; 0x40000000
   d7916:	e7dd      	b.n	d78d4 <_ZN9SdSpiCard5beginEP14SdSpiAltDriverhN8particle11SPISettingsE+0xb4>
    m_errorCode = code;
   d7918:	2325      	movs	r3, #37	; 0x25
   d791a:	e7bc      	b.n	d7896 <_ZN9SdSpiCard5beginEP14SdSpiAltDriverhN8particle11SPISettingsE+0x76>
  if (type() == SD_CARD_TYPE_SD2) {
   d791c:	7aa3      	ldrb	r3, [r4, #10]
   d791e:	2b02      	cmp	r3, #2
   d7920:	d118      	bne.n	d7954 <_ZN9SdSpiCard5beginEP14SdSpiAltDriverhN8particle11SPISettingsE+0x134>
    if (cardCommand(CMD58, 0)) {
   d7922:	213a      	movs	r1, #58	; 0x3a
   d7924:	4620      	mov	r0, r4
   d7926:	f7ff ff39 	bl	d779c <_ZN9SdSpiCard11cardCommandEhm>
   d792a:	b108      	cbz	r0, d7930 <_ZN9SdSpiCard5beginEP14SdSpiAltDriverhN8particle11SPISettingsE+0x110>
   d792c:	2337      	movs	r3, #55	; 0x37
   d792e:	e7b2      	b.n	d7896 <_ZN9SdSpiCard5beginEP14SdSpiAltDriverhN8particle11SPISettingsE+0x76>
    return m_spiDriver->receive();
   d7930:	6860      	ldr	r0, [r4, #4]
   d7932:	f000 f954 	bl	d7bde <_ZN14SdSpiAltDriver7receiveEv>
    if ((spiReceive() & 0XC0) == 0XC0) {
   d7936:	f000 00c0 	and.w	r0, r0, #192	; 0xc0
   d793a:	28c0      	cmp	r0, #192	; 0xc0
    m_type = value;
   d793c:	bf04      	itt	eq
   d793e:	2303      	moveq	r3, #3
   d7940:	72a3      	strbeq	r3, [r4, #10]
    return m_spiDriver->receive();
   d7942:	6860      	ldr	r0, [r4, #4]
   d7944:	f000 f94b 	bl	d7bde <_ZN14SdSpiAltDriver7receiveEv>
   d7948:	6860      	ldr	r0, [r4, #4]
   d794a:	f000 f948 	bl	d7bde <_ZN14SdSpiAltDriver7receiveEv>
   d794e:	6860      	ldr	r0, [r4, #4]
   d7950:	f000 f945 	bl	d7bde <_ZN14SdSpiAltDriver7receiveEv>
  spiStop();
   d7954:	4620      	mov	r0, r4
   d7956:	f7ff fec8 	bl	d76ea <_ZN9SdSpiCard7spiStopEv>
  m_spiDriver->setSpiSettings(settings);
   d795a:	6863      	ldr	r3, [r4, #4]
   d795c:	7930      	ldrb	r0, [r6, #4]
   d795e:	68b1      	ldr	r1, [r6, #8]
   d7960:	89b2      	ldrh	r2, [r6, #12]
   d7962:	821a      	strh	r2, [r3, #16]
   d7964:	7218      	strb	r0, [r3, #8]
   d7966:	60d9      	str	r1, [r3, #12]
  return true;
   d7968:	2001      	movs	r0, #1
   d796a:	e799      	b.n	d78a0 <_ZN9SdSpiCard5beginEP14SdSpiAltDriverhN8particle11SPISettingsE+0x80>
   d796c:	0003d090 	.word	0x0003d090

000d7970 <_ZN9SdSpiCard9readBlockEmPh>:
bool SdSpiCard::readBlock(uint32_t blockNumber, uint8_t* dst) {
   d7970:	b538      	push	{r3, r4, r5, lr}
  if (type() != SD_CARD_TYPE_SDHC) {
   d7972:	7a83      	ldrb	r3, [r0, #10]
   d7974:	2b03      	cmp	r3, #3
    blockNumber <<= 9;
   d7976:	bf18      	it	ne
   d7978:	0249      	lslne	r1, r1, #9
bool SdSpiCard::readBlock(uint32_t blockNumber, uint8_t* dst) {
   d797a:	4615      	mov	r5, r2
  if (cardCommand(CMD17, blockNumber)) {
   d797c:	460a      	mov	r2, r1
   d797e:	2111      	movs	r1, #17
bool SdSpiCard::readBlock(uint32_t blockNumber, uint8_t* dst) {
   d7980:	4604      	mov	r4, r0
  if (cardCommand(CMD17, blockNumber)) {
   d7982:	f7ff ff0b 	bl	d779c <_ZN9SdSpiCard11cardCommandEhm>
   d7986:	b130      	cbz	r0, d7996 <_ZN9SdSpiCard9readBlockEmPh+0x26>
    m_errorCode = code;
   d7988:	2330      	movs	r3, #48	; 0x30
   d798a:	7023      	strb	r3, [r4, #0]
  spiStop();
   d798c:	4620      	mov	r0, r4
   d798e:	f7ff feac 	bl	d76ea <_ZN9SdSpiCard7spiStopEv>
  return false;
   d7992:	2500      	movs	r5, #0
   d7994:	e00b      	b.n	d79ae <_ZN9SdSpiCard9readBlockEmPh+0x3e>
  if (!readData(dst, 512)) {
   d7996:	4629      	mov	r1, r5
   d7998:	f44f 7200 	mov.w	r2, #512	; 0x200
   d799c:	4620      	mov	r0, r4
   d799e:	f7ff feb7 	bl	d7710 <_ZN9SdSpiCard8readDataEPhj>
   d79a2:	4605      	mov	r5, r0
   d79a4:	2800      	cmp	r0, #0
   d79a6:	d0f1      	beq.n	d798c <_ZN9SdSpiCard9readBlockEmPh+0x1c>
  spiStop();
   d79a8:	4620      	mov	r0, r4
   d79aa:	f7ff fe9e 	bl	d76ea <_ZN9SdSpiCard7spiStopEv>
}
   d79ae:	4628      	mov	r0, r5
   d79b0:	bd38      	pop	{r3, r4, r5, pc}

000d79b2 <_ZN9SdSpiCard9readStartEm>:
bool SdSpiCard::readStart(uint32_t blockNumber) {
   d79b2:	b510      	push	{r4, lr}
  if (type() != SD_CARD_TYPE_SDHC) {
   d79b4:	7a83      	ldrb	r3, [r0, #10]
   d79b6:	2b03      	cmp	r3, #3
bool SdSpiCard::readStart(uint32_t blockNumber) {
   d79b8:	460a      	mov	r2, r1
    blockNumber <<= 9;
   d79ba:	bf18      	it	ne
   d79bc:	024a      	lslne	r2, r1, #9
  if (cardCommand(CMD18, blockNumber)) {
   d79be:	2112      	movs	r1, #18
bool SdSpiCard::readStart(uint32_t blockNumber) {
   d79c0:	4604      	mov	r4, r0
  if (cardCommand(CMD18, blockNumber)) {
   d79c2:	f7ff feeb 	bl	d779c <_ZN9SdSpiCard11cardCommandEhm>
   d79c6:	b130      	cbz	r0, d79d6 <_ZN9SdSpiCard9readStartEm+0x24>
   d79c8:	2331      	movs	r3, #49	; 0x31
  spiStop();
   d79ca:	4620      	mov	r0, r4
   d79cc:	7023      	strb	r3, [r4, #0]
   d79ce:	f7ff fe8c 	bl	d76ea <_ZN9SdSpiCard7spiStopEv>
  return false;
   d79d2:	2000      	movs	r0, #0
}
   d79d4:	bd10      	pop	{r4, pc}
  return true;
   d79d6:	2001      	movs	r0, #1
   d79d8:	e7fc      	b.n	d79d4 <_ZN9SdSpiCard9readStartEm+0x22>

000d79da <_ZN9SdSpiCard8readStopEv>:
bool SdSpiCard::readStop() {
   d79da:	b510      	push	{r4, lr}
  if (cardCommand(CMD12, 0)) {
   d79dc:	2200      	movs	r2, #0
   d79de:	210c      	movs	r1, #12
bool SdSpiCard::readStop() {
   d79e0:	4604      	mov	r4, r0
  if (cardCommand(CMD12, 0)) {
   d79e2:	f7ff fedb 	bl	d779c <_ZN9SdSpiCard11cardCommandEhm>
   d79e6:	b130      	cbz	r0, d79f6 <_ZN9SdSpiCard8readStopEv+0x1c>
   d79e8:	2328      	movs	r3, #40	; 0x28
  spiStop();
   d79ea:	4620      	mov	r0, r4
   d79ec:	7023      	strb	r3, [r4, #0]
   d79ee:	f7ff fe7c 	bl	d76ea <_ZN9SdSpiCard7spiStopEv>
  return false;
   d79f2:	2000      	movs	r0, #0
}
   d79f4:	bd10      	pop	{r4, pc}
  spiStop();
   d79f6:	4620      	mov	r0, r4
   d79f8:	f7ff fe77 	bl	d76ea <_ZN9SdSpiCard7spiStopEv>
  return true;
   d79fc:	2001      	movs	r0, #1
   d79fe:	e7f9      	b.n	d79f4 <_ZN9SdSpiCard8readStopEv+0x1a>

000d7a00 <_ZN9SdSpiCard10readBlocksEmPhj>:
bool SdSpiCard::readBlocks(uint32_t block, uint8_t* dst, size_t count) {
   d7a00:	b5f8      	push	{r3, r4, r5, r6, r7, lr}
   d7a02:	4604      	mov	r4, r0
   d7a04:	4616      	mov	r6, r2
   d7a06:	461f      	mov	r7, r3
  if (!readStart(block)) {
   d7a08:	f7ff ffd3 	bl	d79b2 <_ZN9SdSpiCard9readStartEm>
   d7a0c:	b168      	cbz	r0, d7a2a <_ZN9SdSpiCard10readBlocksEmPhj+0x2a>
   d7a0e:	2500      	movs	r5, #0
  for (uint16_t b = 0; b < count; b++, dst += 512) {
   d7a10:	b2ab      	uxth	r3, r5
   d7a12:	429f      	cmp	r7, r3
   d7a14:	eb06 2145 	add.w	r1, r6, r5, lsl #9
   d7a18:	d909      	bls.n	d7a2e <_ZN9SdSpiCard10readBlocksEmPhj+0x2e>
    if (!readData(dst, 512)) {
   d7a1a:	f44f 7200 	mov.w	r2, #512	; 0x200
   d7a1e:	4620      	mov	r0, r4
   d7a20:	f7ff fe76 	bl	d7710 <_ZN9SdSpiCard8readDataEPhj>
   d7a24:	3501      	adds	r5, #1
   d7a26:	2800      	cmp	r0, #0
   d7a28:	d1f2      	bne.n	d7a10 <_ZN9SdSpiCard10readBlocksEmPhj+0x10>
}
   d7a2a:	2000      	movs	r0, #0
   d7a2c:	bdf8      	pop	{r3, r4, r5, r6, r7, pc}
  return readStop();
   d7a2e:	4620      	mov	r0, r4
}
   d7a30:	e8bd 40f8 	ldmia.w	sp!, {r3, r4, r5, r6, r7, lr}
  return readStop();
   d7a34:	f7ff bfd1 	b.w	d79da <_ZN9SdSpiCard8readStopEv>

000d7a38 <_ZN9SdSpiCard9writeDataEhPKh>:
  spiStop();
  return false;
}
//------------------------------------------------------------------------------
// send one block of data for write block or write multiple blocks
bool SdSpiCard::writeData(uint8_t token, const uint8_t* src) {
   d7a38:	b538      	push	{r3, r4, r5, lr}
   d7a3a:	4604      	mov	r4, r0
   d7a3c:	4615      	mov	r5, r2
     m_spiDriver->send(data);
   d7a3e:	6840      	ldr	r0, [r0, #4]
   d7a40:	f000 f8e8 	bl	d7c14 <_ZN14SdSpiAltDriver4sendEh>
    m_spiDriver->send(buf, n);
   d7a44:	f44f 7200 	mov.w	r2, #512	; 0x200
   d7a48:	6860      	ldr	r0, [r4, #4]
   d7a4a:	4629      	mov	r1, r5
   d7a4c:	f000 f8e6 	bl	d7c1c <_ZN14SdSpiAltDriver4sendEPKhj>
     m_spiDriver->send(data);
   d7a50:	6860      	ldr	r0, [r4, #4]
   d7a52:	21ff      	movs	r1, #255	; 0xff
   d7a54:	f000 f8de 	bl	d7c14 <_ZN14SdSpiAltDriver4sendEh>
   d7a58:	6860      	ldr	r0, [r4, #4]
   d7a5a:	21ff      	movs	r1, #255	; 0xff
   d7a5c:	f000 f8da 	bl	d7c14 <_ZN14SdSpiAltDriver4sendEh>
    return m_spiDriver->receive();
   d7a60:	6860      	ldr	r0, [r4, #4]
   d7a62:	f000 f8bc 	bl	d7bde <_ZN14SdSpiAltDriver7receiveEv>
  spiSend(token);
  spiSend(src, 512);
  spiSend(crc >> 8);
  spiSend(crc & 0XFF);

  m_status = spiReceive();
   d7a66:	7260      	strb	r0, [r4, #9]
  if ((m_status & DATA_RES_MASK) != DATA_RES_ACCEPTED) {
   d7a68:	f000 001f 	and.w	r0, r0, #31
   d7a6c:	2805      	cmp	r0, #5
   d7a6e:	d006      	beq.n	d7a7e <_ZN9SdSpiCard9writeDataEhPKh+0x46>
    m_errorCode = code;
   d7a70:	2357      	movs	r3, #87	; 0x57
    goto fail;
  }
  return true;

fail:
  spiStop();
   d7a72:	4620      	mov	r0, r4
   d7a74:	7023      	strb	r3, [r4, #0]
   d7a76:	f7ff fe38 	bl	d76ea <_ZN9SdSpiCard7spiStopEv>
  return false;
   d7a7a:	2000      	movs	r0, #0
}
   d7a7c:	bd38      	pop	{r3, r4, r5, pc}
  return true;
   d7a7e:	2001      	movs	r0, #1
   d7a80:	e7fc      	b.n	d7a7c <_ZN9SdSpiCard9writeDataEhPKh+0x44>

000d7a82 <_ZN9SdSpiCard10writeBlockEmPKh>:
bool SdSpiCard::writeBlock(uint32_t blockNumber, const uint8_t* src) {
   d7a82:	b570      	push	{r4, r5, r6, lr}
  if (type() != SD_CARD_TYPE_SDHC) {
   d7a84:	7a83      	ldrb	r3, [r0, #10]
   d7a86:	2b03      	cmp	r3, #3
    blockNumber <<= 9;
   d7a88:	bf18      	it	ne
   d7a8a:	0249      	lslne	r1, r1, #9
bool SdSpiCard::writeBlock(uint32_t blockNumber, const uint8_t* src) {
   d7a8c:	4615      	mov	r5, r2
  if (cardCommand(CMD24, blockNumber)) {
   d7a8e:	460a      	mov	r2, r1
   d7a90:	2118      	movs	r1, #24
bool SdSpiCard::writeBlock(uint32_t blockNumber, const uint8_t* src) {
   d7a92:	4604      	mov	r4, r0
  if (cardCommand(CMD24, blockNumber)) {
   d7a94:	f7ff fe82 	bl	d779c <_ZN9SdSpiCard11cardCommandEhm>
   d7a98:	4606      	mov	r6, r0
   d7a9a:	b130      	cbz	r0, d7aaa <_ZN9SdSpiCard10writeBlockEmPKh+0x28>
   d7a9c:	2332      	movs	r3, #50	; 0x32
   d7a9e:	7023      	strb	r3, [r4, #0]
  spiStop();
   d7aa0:	4620      	mov	r0, r4
   d7aa2:	f7ff fe22 	bl	d76ea <_ZN9SdSpiCard7spiStopEv>
  return false;
   d7aa6:	2500      	movs	r5, #0
   d7aa8:	e01f      	b.n	d7aea <_ZN9SdSpiCard10writeBlockEmPKh+0x68>
  if (!writeData(DATA_START_BLOCK, src)) {
   d7aaa:	462a      	mov	r2, r5
   d7aac:	21fe      	movs	r1, #254	; 0xfe
   d7aae:	4620      	mov	r0, r4
   d7ab0:	f7ff ffc2 	bl	d7a38 <_ZN9SdSpiCard9writeDataEhPKh>
   d7ab4:	2800      	cmp	r0, #0
   d7ab6:	d0f3      	beq.n	d7aa0 <_ZN9SdSpiCard10writeBlockEmPKh+0x1e>
  if (!waitNotBusy(SD_WRITE_TIMEOUT)) {
   d7ab8:	f44f 61fa 	mov.w	r1, #2000	; 0x7d0
   d7abc:	4620      	mov	r0, r4
   d7abe:	f7ff fe58 	bl	d7772 <_ZN9SdSpiCard11waitNotBusyEt>
   d7ac2:	4605      	mov	r5, r0
   d7ac4:	b908      	cbnz	r0, d7aca <_ZN9SdSpiCard10writeBlockEmPKh+0x48>
   d7ac6:	235a      	movs	r3, #90	; 0x5a
   d7ac8:	e7e9      	b.n	d7a9e <_ZN9SdSpiCard10writeBlockEmPKh+0x1c>
  if (cardCommand(CMD13, 0) || spiReceive()) {
   d7aca:	4632      	mov	r2, r6
   d7acc:	210d      	movs	r1, #13
   d7ace:	4620      	mov	r0, r4
   d7ad0:	f7ff fe64 	bl	d779c <_ZN9SdSpiCard11cardCommandEhm>
   d7ad4:	b108      	cbz	r0, d7ada <_ZN9SdSpiCard10writeBlockEmPKh+0x58>
   d7ad6:	2329      	movs	r3, #41	; 0x29
   d7ad8:	e7e1      	b.n	d7a9e <_ZN9SdSpiCard10writeBlockEmPKh+0x1c>
    return m_spiDriver->receive();
   d7ada:	6860      	ldr	r0, [r4, #4]
   d7adc:	f000 f87f 	bl	d7bde <_ZN14SdSpiAltDriver7receiveEv>
   d7ae0:	2800      	cmp	r0, #0
   d7ae2:	d1f8      	bne.n	d7ad6 <_ZN9SdSpiCard10writeBlockEmPKh+0x54>
  spiStop();
   d7ae4:	4620      	mov	r0, r4
   d7ae6:	f7ff fe00 	bl	d76ea <_ZN9SdSpiCard7spiStopEv>
}
   d7aea:	4628      	mov	r0, r5
   d7aec:	bd70      	pop	{r4, r5, r6, pc}

000d7aee <_ZN9SdSpiCard9writeDataEPKh>:
bool SdSpiCard::writeData(const uint8_t* src) {
   d7aee:	b513      	push	{r0, r1, r4, lr}
   d7af0:	9101      	str	r1, [sp, #4]
  if (!waitNotBusy(SD_WRITE_TIMEOUT)) {
   d7af2:	f44f 61fa 	mov.w	r1, #2000	; 0x7d0
bool SdSpiCard::writeData(const uint8_t* src) {
   d7af6:	4604      	mov	r4, r0
  if (!waitNotBusy(SD_WRITE_TIMEOUT)) {
   d7af8:	f7ff fe3b 	bl	d7772 <_ZN9SdSpiCard11waitNotBusyEt>
   d7afc:	9a01      	ldr	r2, [sp, #4]
   d7afe:	b930      	cbnz	r0, d7b0e <_ZN9SdSpiCard9writeDataEPKh+0x20>
    m_errorCode = code;
   d7b00:	235b      	movs	r3, #91	; 0x5b
   d7b02:	7023      	strb	r3, [r4, #0]
  spiStop();
   d7b04:	4620      	mov	r0, r4
   d7b06:	f7ff fdf0 	bl	d76ea <_ZN9SdSpiCard7spiStopEv>
  return false;
   d7b0a:	2000      	movs	r0, #0
   d7b0c:	e005      	b.n	d7b1a <_ZN9SdSpiCard9writeDataEPKh+0x2c>
  if (!writeData(WRITE_MULTIPLE_TOKEN, src)) {
   d7b0e:	21fc      	movs	r1, #252	; 0xfc
   d7b10:	4620      	mov	r0, r4
   d7b12:	f7ff ff91 	bl	d7a38 <_ZN9SdSpiCard9writeDataEhPKh>
   d7b16:	2800      	cmp	r0, #0
   d7b18:	d0f4      	beq.n	d7b04 <_ZN9SdSpiCard9writeDataEPKh+0x16>
}
   d7b1a:	b002      	add	sp, #8
   d7b1c:	bd10      	pop	{r4, pc}

000d7b1e <_ZN9SdSpiCard10writeStartEm>:
//------------------------------------------------------------------------------
bool SdSpiCard::writeStart(uint32_t blockNumber) {
   d7b1e:	b510      	push	{r4, lr}
  // use address if not SDHC card
  if (type() != SD_CARD_TYPE_SDHC) {
   d7b20:	7a83      	ldrb	r3, [r0, #10]
   d7b22:	2b03      	cmp	r3, #3
bool SdSpiCard::writeStart(uint32_t blockNumber) {
   d7b24:	460a      	mov	r2, r1
    blockNumber <<= 9;
   d7b26:	bf18      	it	ne
   d7b28:	024a      	lslne	r2, r1, #9
  }
  if (cardCommand(CMD25, blockNumber)) {
   d7b2a:	2119      	movs	r1, #25
bool SdSpiCard::writeStart(uint32_t blockNumber) {
   d7b2c:	4604      	mov	r4, r0
  if (cardCommand(CMD25, blockNumber)) {
   d7b2e:	f7ff fe35 	bl	d779c <_ZN9SdSpiCard11cardCommandEhm>
   d7b32:	b130      	cbz	r0, d7b42 <_ZN9SdSpiCard10writeStartEm+0x24>
   d7b34:	2333      	movs	r3, #51	; 0x33
    goto fail;
  }
  return true;

fail:
  spiStop();
   d7b36:	4620      	mov	r0, r4
   d7b38:	7023      	strb	r3, [r4, #0]
   d7b3a:	f7ff fdd6 	bl	d76ea <_ZN9SdSpiCard7spiStopEv>
  return false;
   d7b3e:	2000      	movs	r0, #0
}
   d7b40:	bd10      	pop	{r4, pc}
  return true;
   d7b42:	2001      	movs	r0, #1
   d7b44:	e7fc      	b.n	d7b40 <_ZN9SdSpiCard10writeStartEm+0x22>

000d7b46 <_ZN9SdSpiCard9writeStopEv>:
fail:
  spiStop();
  return false;
}
//------------------------------------------------------------------------------
bool SdSpiCard::writeStop() {
   d7b46:	b538      	push	{r3, r4, r5, lr}
  DBG_BEGIN_TIME(DBG_WRITE_STOP);
  if (!waitNotBusy(SD_WRITE_TIMEOUT)) {
   d7b48:	f44f 61fa 	mov.w	r1, #2000	; 0x7d0
bool SdSpiCard::writeStop() {
   d7b4c:	4604      	mov	r4, r0
  if (!waitNotBusy(SD_WRITE_TIMEOUT)) {
   d7b4e:	f7ff fe10 	bl	d7772 <_ZN9SdSpiCard11waitNotBusyEt>
   d7b52:	4605      	mov	r5, r0
   d7b54:	b930      	cbnz	r0, d7b64 <_ZN9SdSpiCard9writeStopEv+0x1e>
   d7b56:	2356      	movs	r3, #86	; 0x56
   d7b58:	7023      	strb	r3, [r4, #0]
    goto fail;
  }
  DBG_END_TIME(DBG_WRITE_STOP);
  spiSend(STOP_TRAN_TOKEN);
  spiStop();
   d7b5a:	4620      	mov	r0, r4
   d7b5c:	f7ff fdc5 	bl	d76ea <_ZN9SdSpiCard7spiStopEv>

fail:
  error(SD_CARD_ERROR_STOP_TRAN);
  spiStop();
  return false;
}
   d7b60:	4628      	mov	r0, r5
   d7b62:	bd38      	pop	{r3, r4, r5, pc}
     m_spiDriver->send(data);
   d7b64:	6860      	ldr	r0, [r4, #4]
   d7b66:	21fd      	movs	r1, #253	; 0xfd
   d7b68:	f000 f854 	bl	d7c14 <_ZN14SdSpiAltDriver4sendEh>
   d7b6c:	e7f5      	b.n	d7b5a <_ZN9SdSpiCard9writeStopEv+0x14>

000d7b6e <_ZN9SdSpiCard11writeBlocksEmPKhj>:
bool SdSpiCard::writeBlocks(uint32_t block, const uint8_t* src, size_t count) {
   d7b6e:	b5f8      	push	{r3, r4, r5, r6, r7, lr}
   d7b70:	4604      	mov	r4, r0
   d7b72:	4616      	mov	r6, r2
   d7b74:	461f      	mov	r7, r3
  if (!writeStart(block)) {
   d7b76:	f7ff ffd2 	bl	d7b1e <_ZN9SdSpiCard10writeStartEm>
   d7b7a:	b170      	cbz	r0, d7b9a <_ZN9SdSpiCard11writeBlocksEmPKhj+0x2c>
  for (size_t b = 0; b < count; b++, src += 512) {
   d7b7c:	2500      	movs	r5, #0
   d7b7e:	42bd      	cmp	r5, r7
   d7b80:	eb06 2145 	add.w	r1, r6, r5, lsl #9
  return writeStop();
   d7b84:	4620      	mov	r0, r4
  for (size_t b = 0; b < count; b++, src += 512) {
   d7b86:	d004      	beq.n	d7b92 <_ZN9SdSpiCard11writeBlocksEmPKhj+0x24>
    if (!writeData(src)) {
   d7b88:	f7ff ffb1 	bl	d7aee <_ZN9SdSpiCard9writeDataEPKh>
   d7b8c:	b128      	cbz	r0, d7b9a <_ZN9SdSpiCard11writeBlocksEmPKhj+0x2c>
  for (size_t b = 0; b < count; b++, src += 512) {
   d7b8e:	3501      	adds	r5, #1
   d7b90:	e7f5      	b.n	d7b7e <_ZN9SdSpiCard11writeBlocksEmPKhj+0x10>
}
   d7b92:	e8bd 40f8 	ldmia.w	sp!, {r3, r4, r5, r6, r7, lr}
  return writeStop();
   d7b96:	f7ff bfd6 	b.w	d7b46 <_ZN9SdSpiCard9writeStopEv>
  spiStop();
   d7b9a:	4620      	mov	r0, r4
   d7b9c:	f7ff fda5 	bl	d76ea <_ZN9SdSpiCard7spiStopEv>
}
   d7ba0:	2000      	movs	r0, #0
   d7ba2:	bdf8      	pop	{r3, r4, r5, r6, r7, pc}

000d7ba4 <_ZL36SD_SPI_DMA_TransferComplete_Callbackv>:
#if defined(PLATFORM_ID)
#include "SdSpiDriver.h"
static volatile bool SPI_DMA_TransferCompleted = false;
//-----------------------------------------------------------------------------
static void SD_SPI_DMA_TransferComplete_Callback(void) {
    SPI_DMA_TransferCompleted = true;
   d7ba4:	4b01      	ldr	r3, [pc, #4]	; (d7bac <_ZL36SD_SPI_DMA_TransferComplete_Callbackv+0x8>)
   d7ba6:	2201      	movs	r2, #1
   d7ba8:	701a      	strb	r2, [r3, #0]
}
   d7baa:	4770      	bx	lr
   d7bac:	2003e5c0 	.word	0x2003e5c0

000d7bb0 <_ZN14SdSpiAltDriver8activateEv>:
/** Set SPI options for access to SD/SDHC cards.
 *
 * \param[in] divisor SCK clock divider relative to the APB1 or APB2 clock.
 */
void SdSpiAltDriver::activate() {
  m_spi->beginTransaction(m_spiSettings);
   d7bb0:	1d01      	adds	r1, r0, #4
   d7bb2:	6800      	ldr	r0, [r0, #0]
   d7bb4:	f001 ba6a 	b.w	d908c <_ZN8SPIClass16beginTransactionERKN8particle11SPISettingsE>

000d7bb8 <_ZN14SdSpiAltDriver5beginEh>:
//------------------------------------------------------------------------------
/** Initialize the SPI bus.
 *
 * \param[in] chipSelectPin SD card chip select pin.
 */
void SdSpiAltDriver::begin(uint8_t csPin) {
   d7bb8:	b510      	push	{r4, lr}
   d7bba:	4604      	mov	r4, r0
  m_csPin = csPin;
   d7bbc:	7501      	strb	r1, [r0, #20]
  m_spi->begin();
   d7bbe:	6800      	ldr	r0, [r0, #0]
   d7bc0:	f001 fa3a 	bl	d9038 <_ZN8SPIClass5beginEv>
  pinMode(m_csPin, OUTPUT);
   d7bc4:	7d20      	ldrb	r0, [r4, #20]
   d7bc6:	2101      	movs	r1, #1
   d7bc8:	f003 fcb4 	bl	db534 <pinMode>
  digitalWrite(m_csPin, HIGH);
   d7bcc:	7d20      	ldrb	r0, [r4, #20]
   d7bce:	2101      	movs	r1, #1
}
   d7bd0:	e8bd 4010 	ldmia.w	sp!, {r4, lr}
  digitalWrite(m_csPin, HIGH);
   d7bd4:	f003 bcbf 	b.w	db556 <digitalWrite>

000d7bd8 <_ZN14SdSpiAltDriver10deactivateEv>:
//------------------------------------------------------------------------------
/**
 * End SPI transaction.
 */
void SdSpiAltDriver::deactivate() {
  m_spi->endTransaction();
   d7bd8:	6800      	ldr	r0, [r0, #0]
   d7bda:	f001 ba3e 	b.w	d905a <_ZN8SPIClass14endTransactionEv>

000d7bde <_ZN14SdSpiAltDriver7receiveEv>:
/** Receive a byte.
 *
 * \return The byte.
 */
uint8_t SdSpiAltDriver::receive() {
  return m_spi->transfer(0XFF);
   d7bde:	6800      	ldr	r0, [r0, #0]
   d7be0:	21ff      	movs	r1, #255	; 0xff
   d7be2:	f001 bac1 	b.w	d9168 <_ZN8SPIClass8transferEh>
	...

000d7be8 <_ZN14SdSpiAltDriver7receiveEPhj>:
 * \param[out] buf Buffer to receive the data.
 * \param[in] n Number of bytes to receive.
 *
 * \return Zero for no error or nonzero error code.
 */
uint8_t SdSpiAltDriver::receive(uint8_t* buf, size_t n) {
   d7be8:	b537      	push	{r0, r1, r2, r4, r5, lr}
   d7bea:	4613      	mov	r3, r2
  SPI_DMA_TransferCompleted = false;
  m_spi->transfer(nullptr, buf, n, SD_SPI_DMA_TransferComplete_Callback);
   d7bec:	4a07      	ldr	r2, [pc, #28]	; (d7c0c <_ZN14SdSpiAltDriver7receiveEPhj+0x24>)
   d7bee:	9200      	str	r2, [sp, #0]
  SPI_DMA_TransferCompleted = false;
   d7bf0:	2500      	movs	r5, #0
   d7bf2:	4c07      	ldr	r4, [pc, #28]	; (d7c10 <_ZN14SdSpiAltDriver7receiveEPhj+0x28>)
  m_spi->transfer(nullptr, buf, n, SD_SPI_DMA_TransferComplete_Callback);
   d7bf4:	6800      	ldr	r0, [r0, #0]
  SPI_DMA_TransferCompleted = false;
   d7bf6:	7025      	strb	r5, [r4, #0]
  m_spi->transfer(nullptr, buf, n, SD_SPI_DMA_TransferComplete_Callback);
   d7bf8:	460a      	mov	r2, r1
   d7bfa:	4629      	mov	r1, r5
   d7bfc:	f001 faba 	bl	d9174 <_ZN8SPIClass8transferEPKvPvjPFvvE>
  while (!SPI_DMA_TransferCompleted) {}
   d7c00:	7823      	ldrb	r3, [r4, #0]
   d7c02:	2b00      	cmp	r3, #0
   d7c04:	d0fc      	beq.n	d7c00 <_ZN14SdSpiAltDriver7receiveEPhj+0x18>
  return 0;
}
   d7c06:	2000      	movs	r0, #0
   d7c08:	b003      	add	sp, #12
   d7c0a:	bd30      	pop	{r4, r5, pc}
   d7c0c:	000d7ba5 	.word	0x000d7ba5
   d7c10:	2003e5c0 	.word	0x2003e5c0

000d7c14 <_ZN14SdSpiAltDriver4sendEh>:
/** Send a byte.
 *
 * \param[in] b Byte to send
 */
void SdSpiAltDriver::send(uint8_t b) {
  m_spi->transfer(b);
   d7c14:	6800      	ldr	r0, [r0, #0]
   d7c16:	f001 baa7 	b.w	d9168 <_ZN8SPIClass8transferEh>
	...

000d7c1c <_ZN14SdSpiAltDriver4sendEPKhj>:
/** Send multiple bytes.
 *
 * \param[in] buf Buffer for data to be sent.
 * \param[in] n Number of bytes to send.
 */
void SdSpiAltDriver::send(const uint8_t* buf , size_t n) {
   d7c1c:	b537      	push	{r0, r1, r2, r4, r5, lr}
   d7c1e:	4613      	mov	r3, r2
  SPI_DMA_TransferCompleted = false;

  m_spi->transfer(const_cast<uint8_t*>(buf), nullptr, n,
   d7c20:	4a06      	ldr	r2, [pc, #24]	; (d7c3c <_ZN14SdSpiAltDriver4sendEPKhj+0x20>)
   d7c22:	9200      	str	r2, [sp, #0]
  SPI_DMA_TransferCompleted = false;
   d7c24:	2500      	movs	r5, #0
   d7c26:	4c06      	ldr	r4, [pc, #24]	; (d7c40 <_ZN14SdSpiAltDriver4sendEPKhj+0x24>)
  m_spi->transfer(const_cast<uint8_t*>(buf), nullptr, n,
   d7c28:	6800      	ldr	r0, [r0, #0]
  SPI_DMA_TransferCompleted = false;
   d7c2a:	7025      	strb	r5, [r4, #0]
  m_spi->transfer(const_cast<uint8_t*>(buf), nullptr, n,
   d7c2c:	462a      	mov	r2, r5
   d7c2e:	f001 faa1 	bl	d9174 <_ZN8SPIClass8transferEPKvPvjPFvvE>
                            SD_SPI_DMA_TransferComplete_Callback);

  while (!SPI_DMA_TransferCompleted) {}
   d7c32:	7823      	ldrb	r3, [r4, #0]
   d7c34:	2b00      	cmp	r3, #0
   d7c36:	d0fc      	beq.n	d7c32 <_ZN14SdSpiAltDriver4sendEPKhj+0x16>
}
   d7c38:	b003      	add	sp, #12
   d7c3a:	bd30      	pop	{r4, r5, pc}
   d7c3c:	000d7ba5 	.word	0x000d7ba5
   d7c40:	2003e5c0 	.word	0x2003e5c0

000d7c44 <_ZN15Adafruit_IL037313setRAMAddressEtt>:
    @param y Y address counter value
*/
/**************************************************************************/
void Adafruit_IL0373::setRAMAddress(uint16_t x, uint16_t y) {
  // on this chip we do nothing
}
   d7c44:	4770      	bx	lr

000d7c46 <_ZN15Adafruit_IL03739powerDownEv>:
void Adafruit_IL0373::powerDown() {
   d7c46:	b513      	push	{r0, r1, r4, lr}
  buf[0] = 0x17;
   d7c48:	2317      	movs	r3, #23
void Adafruit_IL0373::powerDown() {
   d7c4a:	4604      	mov	r4, r0
  buf[0] = 0x17;
   d7c4c:	f88d 3004 	strb.w	r3, [sp, #4]
  EPD_command(IL0373_CDI, buf, 1);
   d7c50:	aa01      	add	r2, sp, #4
   d7c52:	2301      	movs	r3, #1
   d7c54:	2150      	movs	r1, #80	; 0x50
   d7c56:	f000 fde6 	bl	d8826 <_ZN12Adafruit_EPD11EPD_commandEhPKht>
  buf[0] = 0x00;
   d7c5a:	2300      	movs	r3, #0
  EPD_command(IL0373_VCM_DC_SETTING, buf, 0);
   d7c5c:	aa01      	add	r2, sp, #4
   d7c5e:	4620      	mov	r0, r4
   d7c60:	2182      	movs	r1, #130	; 0x82
  buf[0] = 0x00;
   d7c62:	f88d 3004 	strb.w	r3, [sp, #4]
  EPD_command(IL0373_VCM_DC_SETTING, buf, 0);
   d7c66:	f000 fdde 	bl	d8826 <_ZN12Adafruit_EPD11EPD_commandEhPKht>
  EPD_command(IL0373_POWER_OFF);
   d7c6a:	2201      	movs	r2, #1
   d7c6c:	2102      	movs	r1, #2
   d7c6e:	4620      	mov	r0, r4
   d7c70:	f000 fdc1 	bl	d87f6 <_ZN12Adafruit_EPD11EPD_commandEhb>
}
   d7c74:	b002      	add	sp, #8
   d7c76:	bd10      	pop	{r4, pc}

000d7c78 <_ZN15Adafruit_IL037315writeRAMCommandEh>:
  if (index == 0) {
   d7c78:	460a      	mov	r2, r1
   d7c7a:	b911      	cbnz	r1, d7c82 <_ZN15Adafruit_IL037315writeRAMCommandEh+0xa>
    return EPD_command(EPD_RAM_BW, false);
   d7c7c:	2110      	movs	r1, #16
    return EPD_command(EPD_RAM_RED, false);
   d7c7e:	f000 bdba 	b.w	d87f6 <_ZN12Adafruit_EPD11EPD_commandEhb>
  if (index == 1) {
   d7c82:	2901      	cmp	r1, #1
   d7c84:	d102      	bne.n	d7c8c <_ZN15Adafruit_IL037315writeRAMCommandEh+0x14>
    return EPD_command(EPD_RAM_RED, false);
   d7c86:	2200      	movs	r2, #0
   d7c88:	2113      	movs	r1, #19
   d7c8a:	e7f8      	b.n	d7c7e <_ZN15Adafruit_IL037315writeRAMCommandEh+0x6>
}
   d7c8c:	2000      	movs	r0, #0
   d7c8e:	4770      	bx	lr

000d7c90 <_ZN15Adafruit_IL0373C1Eiiaaaaa>:
Adafruit_IL0373::Adafruit_IL0373(int width, int height, int8_t DC, int8_t RST, int8_t CS, int8_t SRCS, int8_t BUSY) : Adafruit_EPD(width, height, DC, RST, CS, SRCS, BUSY) {
   d7c90:	b5f0      	push	{r4, r5, r6, r7, lr}
   d7c92:	b085      	sub	sp, #20
   d7c94:	460e      	mov	r6, r1
   d7c96:	f99d 7030 	ldrsb.w	r7, [sp, #48]	; 0x30
   d7c9a:	f99d c034 	ldrsb.w	ip, [sp, #52]	; 0x34
   d7c9e:	e9cd 7c02 	strd	r7, ip, [sp, #8]
   d7ca2:	f99d c02c 	ldrsb.w	ip, [sp, #44]	; 0x2c
   d7ca6:	f8cd c004 	str.w	ip, [sp, #4]
   d7caa:	f99d c028 	ldrsb.w	ip, [sp, #40]	; 0x28
   d7cae:	f8cd c000 	str.w	ip, [sp]
   d7cb2:	4615      	mov	r5, r2
   d7cb4:	4604      	mov	r4, r0
   d7cb6:	f000 fb3b 	bl	d8330 <_ZN12Adafruit_EPDC1Eiiaaaaa>
  buffer1_size = ((uint32_t)width * (uint32_t)height) / 8;
   d7cba:	fb05 f206 	mul.w	r2, r5, r6
Adafruit_IL0373::Adafruit_IL0373(int width, int height, int8_t DC, int8_t RST, int8_t CS, int8_t SRCS, int8_t BUSY) : Adafruit_EPD(width, height, DC, RST, CS, SRCS, BUSY) {
   d7cbe:	4b0f      	ldr	r3, [pc, #60]	; (d7cfc <_ZN15Adafruit_IL0373C1Eiiaaaaa+0x6c>)
   d7cc0:	6023      	str	r3, [r4, #0]
  buffer1_size = ((uint32_t)width * (uint32_t)height) / 8;
   d7cc2:	08d0      	lsrs	r0, r2, #3
  if (SRCS >= 0) {
   d7cc4:	2f00      	cmp	r7, #0
  buffer1_size = ((uint32_t)width * (uint32_t)height) / 8;
   d7cc6:	f3c2 02cf 	ubfx	r2, r2, #3, #16
   d7cca:	85e2      	strh	r2, [r4, #46]	; 0x2e
  buffer2_size = buffer1_size;
   d7ccc:	8622      	strh	r2, [r4, #48]	; 0x30
  if (SRCS >= 0) {
   d7cce:	db0c      	blt.n	d7cea <_ZN15Adafruit_IL0373C1Eiiaaaaa+0x5a>
    use_sram = true;
   d7cd0:	2301      	movs	r3, #1
   d7cd2:	f884 304c 	strb.w	r3, [r4, #76]	; 0x4c
    buffer1_addr = 0;
   d7cd6:	2300      	movs	r3, #0
    buffer1 = buffer2 = NULL;
   d7cd8:	e9c4 330d 	strd	r3, r3, [r4, #52]	; 0x34
    buffer1_addr = 0;
   d7cdc:	f8a4 3044 	strh.w	r3, [r4, #68]	; 0x44
    buffer2_addr = buffer1_size;
   d7ce0:	f8a4 2046 	strh.w	r2, [r4, #70]	; 0x46
}
   d7ce4:	4620      	mov	r0, r4
   d7ce6:	b005      	add	sp, #20
   d7ce8:	bdf0      	pop	{r4, r5, r6, r7, pc}
    buffer1 = (uint8_t *)malloc(buffer1_size);
   d7cea:	b280      	uxth	r0, r0
   d7cec:	f001 f916 	bl	d8f1c <malloc>
   d7cf0:	6360      	str	r0, [r4, #52]	; 0x34
    buffer2 = (uint8_t *)malloc(buffer2_size);
   d7cf2:	8e20      	ldrh	r0, [r4, #48]	; 0x30
   d7cf4:	f001 f912 	bl	d8f1c <malloc>
   d7cf8:	63a0      	str	r0, [r4, #56]	; 0x38
   d7cfa:	e7f3      	b.n	d7ce4 <_ZN15Adafruit_IL0373C1Eiiaaaaa+0x54>
   d7cfc:	000de85c 	.word	0x000de85c

000d7d00 <_ZN15Adafruit_IL03739busy_waitEv>:
{
   d7d00:	b510      	push	{r4, lr}
  if (_busy_pin >= 0) {
   d7d02:	f990 3025 	ldrsb.w	r3, [r0, #37]	; 0x25
   d7d06:	2b00      	cmp	r3, #0
{
   d7d08:	4604      	mov	r4, r0
  if (_busy_pin >= 0) {
   d7d0a:	db09      	blt.n	d7d20 <_ZN15Adafruit_IL03739busy_waitEv+0x20>
    while(!digitalRead(_busy_pin)) {
   d7d0c:	f994 0025 	ldrsb.w	r0, [r4, #37]	; 0x25
   d7d10:	b280      	uxth	r0, r0
   d7d12:	f003 fc39 	bl	db588 <digitalRead>
   d7d16:	b948      	cbnz	r0, d7d2c <_ZN15Adafruit_IL03739busy_waitEv+0x2c>
      delay(10); //wait for busy high
   d7d18:	200a      	movs	r0, #10
   d7d1a:	f002 ff01 	bl	dab20 <delay>
    while(!digitalRead(_busy_pin)) {
   d7d1e:	e7f5      	b.n	d7d0c <_ZN15Adafruit_IL03739busy_waitEv+0xc>
}
   d7d20:	e8bd 4010 	ldmia.w	sp!, {r4, lr}
    delay(BUSY_WAIT);
   d7d24:	f44f 70fa 	mov.w	r0, #500	; 0x1f4
   d7d28:	f002 befa 	b.w	dab20 <delay>
}
   d7d2c:	bd10      	pop	{r4, pc}

000d7d2e <_ZN15Adafruit_IL03736updateEv>:
{
   d7d2e:	b510      	push	{r4, lr}
  EPD_command(IL0373_DISPLAY_REFRESH);
   d7d30:	2201      	movs	r2, #1
   d7d32:	2112      	movs	r1, #18
{
   d7d34:	4604      	mov	r4, r0
  EPD_command(IL0373_DISPLAY_REFRESH);
   d7d36:	f000 fd5e 	bl	d87f6 <_ZN12Adafruit_EPD11EPD_commandEhb>
  delay(100);
   d7d3a:	2064      	movs	r0, #100	; 0x64
   d7d3c:	f002 fef0 	bl	dab20 <delay>
  busy_wait();
   d7d40:	4620      	mov	r0, r4
   d7d42:	f7ff ffdd 	bl	d7d00 <_ZN15Adafruit_IL03739busy_waitEv>
  if (_busy_pin <= -1) {
   d7d46:	f994 3025 	ldrsb.w	r3, [r4, #37]	; 0x25
   d7d4a:	2b00      	cmp	r3, #0
   d7d4c:	da05      	bge.n	d7d5a <_ZN15Adafruit_IL03736updateEv+0x2c>
}
   d7d4e:	e8bd 4010 	ldmia.w	sp!, {r4, lr}
    delay(15000);
   d7d52:	f643 2098 	movw	r0, #15000	; 0x3a98
   d7d56:	f002 bee3 	b.w	dab20 <delay>
}
   d7d5a:	bd10      	pop	{r4, pc}

000d7d5c <_ZN15Adafruit_IL03737powerUpEv>:
{
   d7d5c:	b513      	push	{r0, r1, r4, lr}
   d7d5e:	4604      	mov	r4, r0
  hardwareReset();
   d7d60:	f000 fb2c 	bl	d83bc <_ZN12Adafruit_EPD13hardwareResetEv>
  buf[0] = 0x03;
   d7d64:	4b2e      	ldr	r3, [pc, #184]	; (d7e20 <_ZN15Adafruit_IL03737powerUpEv+0xc4>)
   d7d66:	9300      	str	r3, [sp, #0]
  buf[4] = 0x09;
   d7d68:	2309      	movs	r3, #9
   d7d6a:	f88d 3004 	strb.w	r3, [sp, #4]
  EPD_command(IL0373_POWER_SETTING, buf, 5);
   d7d6e:	466a      	mov	r2, sp
   d7d70:	4620      	mov	r0, r4
   d7d72:	2305      	movs	r3, #5
   d7d74:	2101      	movs	r1, #1
   d7d76:	f000 fd56 	bl	d8826 <_ZN12Adafruit_EPD11EPD_commandEhPKht>
  buf[0] = 0x17;
   d7d7a:	f241 7317 	movw	r3, #5911	; 0x1717
   d7d7e:	f8ad 3000 	strh.w	r3, [sp]
  buf[2] = 0x17;
   d7d82:	2317      	movs	r3, #23
   d7d84:	f88d 3002 	strb.w	r3, [sp, #2]
  EPD_command(IL0373_BOOSTER_SOFT_START, buf, 3); 
   d7d88:	466a      	mov	r2, sp
   d7d8a:	2303      	movs	r3, #3
   d7d8c:	4620      	mov	r0, r4
   d7d8e:	2106      	movs	r1, #6
   d7d90:	f000 fd49 	bl	d8826 <_ZN12Adafruit_EPD11EPD_commandEhPKht>
  EPD_command(IL0373_POWER_ON);
   d7d94:	2201      	movs	r2, #1
   d7d96:	2104      	movs	r1, #4
   d7d98:	4620      	mov	r0, r4
   d7d9a:	f000 fd2c 	bl	d87f6 <_ZN12Adafruit_EPD11EPD_commandEhb>
  busy_wait();
   d7d9e:	4620      	mov	r0, r4
   d7da0:	f7ff ffae 	bl	d7d00 <_ZN15Adafruit_IL03739busy_waitEv>
  delay(200);
   d7da4:	20c8      	movs	r0, #200	; 0xc8
   d7da6:	f002 febb 	bl	dab20 <delay>
  buf[0] = 0xCF;
   d7daa:	23cf      	movs	r3, #207	; 0xcf
   d7dac:	f88d 3000 	strb.w	r3, [sp]
  EPD_command(IL0373_PANEL_SETTING, buf, 1);
   d7db0:	466a      	mov	r2, sp
   d7db2:	4620      	mov	r0, r4
   d7db4:	2301      	movs	r3, #1
   d7db6:	2100      	movs	r1, #0
   d7db8:	f000 fd35 	bl	d8826 <_ZN12Adafruit_EPD11EPD_commandEhPKht>
  buf[0] = 0x37;
   d7dbc:	2337      	movs	r3, #55	; 0x37
   d7dbe:	f88d 3000 	strb.w	r3, [sp]
  EPD_command(IL0373_CDI, buf, 1);
   d7dc2:	466a      	mov	r2, sp
   d7dc4:	4620      	mov	r0, r4
   d7dc6:	2301      	movs	r3, #1
   d7dc8:	2150      	movs	r1, #80	; 0x50
   d7dca:	f000 fd2c 	bl	d8826 <_ZN12Adafruit_EPD11EPD_commandEhPKht>
  buf[0] = 0x29;
   d7dce:	2329      	movs	r3, #41	; 0x29
   d7dd0:	f88d 3000 	strb.w	r3, [sp]
  EPD_command(IL0373_PLL, buf, 1);
   d7dd4:	466a      	mov	r2, sp
   d7dd6:	4620      	mov	r0, r4
   d7dd8:	2301      	movs	r3, #1
   d7dda:	2130      	movs	r1, #48	; 0x30
   d7ddc:	f000 fd23 	bl	d8826 <_ZN12Adafruit_EPD11EPD_commandEhPKht>
  buf[0] = HEIGHT & 0xFF;
   d7de0:	8963      	ldrh	r3, [r4, #10]
  buf[1] = (WIDTH >> 8) & 0xFF;
   d7de2:	f994 2009 	ldrsb.w	r2, [r4, #9]
  buf[0] = HEIGHT & 0xFF;
   d7de6:	f88d 3000 	strb.w	r3, [sp]
  buf[1] = (WIDTH >> 8) & 0xFF;
   d7dea:	f9b4 3008 	ldrsh.w	r3, [r4, #8]
   d7dee:	f88d 2001 	strb.w	r2, [sp, #1]
  buf[2] = WIDTH & 0xFF;
   d7df2:	f88d 3002 	strb.w	r3, [sp, #2]
  EPD_command(IL0373_RESOLUTION, buf, 3);
   d7df6:	466a      	mov	r2, sp
   d7df8:	4620      	mov	r0, r4
   d7dfa:	2303      	movs	r3, #3
   d7dfc:	2161      	movs	r1, #97	; 0x61
   d7dfe:	f000 fd12 	bl	d8826 <_ZN12Adafruit_EPD11EPD_commandEhPKht>
  buf[0] = 0x0A;
   d7e02:	230a      	movs	r3, #10
   d7e04:	f88d 3000 	strb.w	r3, [sp]
  EPD_command(IL0373_VCM_DC_SETTING, buf, 1);
   d7e08:	466a      	mov	r2, sp
   d7e0a:	2301      	movs	r3, #1
   d7e0c:	2182      	movs	r1, #130	; 0x82
   d7e0e:	4620      	mov	r0, r4
   d7e10:	f000 fd09 	bl	d8826 <_ZN12Adafruit_EPD11EPD_commandEhPKht>
  delay(20);
   d7e14:	2014      	movs	r0, #20
   d7e16:	f002 fe83 	bl	dab20 <delay>
}
   d7e1a:	b002      	add	sp, #8
   d7e1c:	bd10      	pop	{r4, pc}
   d7e1e:	bf00      	nop
   d7e20:	2b2b0003 	.word	0x2b2b0003

000d7e24 <_ZN15Adafruit_IL03735beginEb>:
{
   d7e24:	b510      	push	{r4, lr}
   d7e26:	4604      	mov	r4, r0
  Adafruit_EPD::begin(reset);
   d7e28:	f000 fb74 	bl	d8514 <_ZN12Adafruit_EPD5beginEb>
  setBlackBuffer(0, true);  // black defaults to inverted
   d7e2c:	4620      	mov	r0, r4
   d7e2e:	2201      	movs	r2, #1
   d7e30:	2100      	movs	r1, #0
   d7e32:	f000 faeb 	bl	d840c <_ZN12Adafruit_EPD14setBlackBufferEab>
  setColorBuffer(1, true);  // red defaults to inverted
   d7e36:	2201      	movs	r2, #1
   d7e38:	4620      	mov	r0, r4
   d7e3a:	4611      	mov	r1, r2
   d7e3c:	f000 fafe 	bl	d843c <_ZN12Adafruit_EPD14setColorBufferEab>
  powerDown();
   d7e40:	6823      	ldr	r3, [r4, #0]
   d7e42:	4620      	mov	r0, r4
   d7e44:	6e1b      	ldr	r3, [r3, #96]	; 0x60
}
   d7e46:	e8bd 4010 	ldmia.w	sp!, {r4, lr}
  powerDown();
   d7e4a:	4718      	bx	r3

000d7e4c <_ZN16Adafruit_MCPSRAMC1Ea>:
*/
/**************************************************************************/
Adafruit_MCPSRAM::Adafruit_MCPSRAM(int8_t cs)
{
	_cs = cs;
	hwSPI = true;
   d7e4c:	2201      	movs	r2, #1
	_cs = cs;
   d7e4e:	7041      	strb	r1, [r0, #1]
	hwSPI = true;
   d7e50:	7002      	strb	r2, [r0, #0]
}
   d7e52:	4770      	bx	lr

000d7e54 <_ZN8particle8SpiProxyIL19hal_spi_interface_t0EE8transferEh.isra.0>:
    byte transfer(byte data) {
   d7e54:	b507      	push	{r0, r1, r2, lr}
   d7e56:	9001      	str	r0, [sp, #4]
        return instance().transfer(data);
   d7e58:	f7fd ff46 	bl	d5ce8 <_ZN8particle8SpiProxyIL19hal_spi_interface_t0EE8instanceEv>
   d7e5c:	9901      	ldr	r1, [sp, #4]
    }
   d7e5e:	b003      	add	sp, #12
   d7e60:	f85d eb04 	ldr.w	lr, [sp], #4
        return instance().transfer(data);
   d7e64:	f001 b980 	b.w	d9168 <_ZN8SPIClass8transferEh>

000d7e68 <_ZN16Adafruit_MCPSRAM6csHighEv>:
/*!
    @brief set chip select pin high
*/
/**************************************************************************/
void Adafruit_MCPSRAM::csHigh()
{
   d7e68:	b510      	push	{r4, lr}
   d7e6a:	4604      	mov	r4, r0
        instance().endTransaction();
   d7e6c:	f7fd ff3c 	bl	d5ce8 <_ZN8particle8SpiProxyIL19hal_spi_interface_t0EE8instanceEv>
   d7e70:	f001 f8f3 	bl	d905a <_ZN8SPIClass14endTransactionEv>
      SPI.endTransaction();
#endif
#ifdef HAVE_PORTREG
	*csport |= cspinmask;
#else
	digitalWrite(_cs, HIGH);
   d7e74:	f994 0001 	ldrsb.w	r0, [r4, #1]
   d7e78:	2101      	movs	r1, #1
#endif
}
   d7e7a:	e8bd 4010 	ldmia.w	sp!, {r4, lr}
	digitalWrite(_cs, HIGH);
   d7e7e:	b280      	uxth	r0, r0
   d7e80:	f003 bb69 	b.w	db556 <digitalWrite>

000d7e84 <_ZN16Adafruit_MCPSRAM5csLowEv>:
/*!
    @brief set chip select pin low
*/
/**************************************************************************/
void Adafruit_MCPSRAM::csLow()
{
   d7e84:	b530      	push	{r4, r5, lr}
   d7e86:	b085      	sub	sp, #20
      dataMode_{dataMode}
   d7e88:	4b0b      	ldr	r3, [pc, #44]	; (d7eb8 <_ZN16Adafruit_MCPSRAM5csLowEv+0x34>)
   d7e8a:	9300      	str	r3, [sp, #0]
   d7e8c:	4b0b      	ldr	r3, [pc, #44]	; (d7ebc <_ZN16Adafruit_MCPSRAM5csLowEv+0x38>)
   d7e8e:	9302      	str	r3, [sp, #8]
   d7e90:	4604      	mov	r4, r0
   d7e92:	2301      	movs	r3, #1
   d7e94:	2500      	movs	r5, #0
   d7e96:	f8ad 300c 	strh.w	r3, [sp, #12]
   d7e9a:	f88d 5004 	strb.w	r5, [sp, #4]
        return instance().beginTransaction(settings);
   d7e9e:	f7fd ff23 	bl	d5ce8 <_ZN8particle8SpiProxyIL19hal_spi_interface_t0EE8instanceEv>
   d7ea2:	4669      	mov	r1, sp
   d7ea4:	f001 f8f2 	bl	d908c <_ZN8SPIClass16beginTransactionERKN8particle11SPISettingsE>
      SPI.beginTransaction(SPISettings(4000000, MSBFIRST, SPI_MODE0));
#endif	
#ifdef HAVE_PORTREG
	*csport &= ~cspinmask;
#else
	digitalWrite(_cs, LOW);
   d7ea8:	f994 0001 	ldrsb.w	r0, [r4, #1]
   d7eac:	4629      	mov	r1, r5
   d7eae:	b280      	uxth	r0, r0
   d7eb0:	f003 fb51 	bl	db556 <digitalWrite>
#endif
}
   d7eb4:	b005      	add	sp, #20
   d7eb6:	bd30      	pop	{r4, r5, pc}
   d7eb8:	000de218 	.word	0x000de218
   d7ebc:	003d0900 	.word	0x003d0900

000d7ec0 <_ZN16Adafruit_MCPSRAM5beginEv>:
{
   d7ec0:	b570      	push	{r4, r5, r6, lr}
   d7ec2:	4604      	mov	r4, r0
	 pinMode(_cs, OUTPUT);
   d7ec4:	f990 0001 	ldrsb.w	r0, [r0, #1]
   d7ec8:	2101      	movs	r1, #1
   d7eca:	b280      	uxth	r0, r0
   d7ecc:	f003 fb32 	bl	db534 <pinMode>
	csHigh();
   d7ed0:	4620      	mov	r0, r4
   d7ed2:	f7ff ffc9 	bl	d7e68 <_ZN16Adafruit_MCPSRAM6csHighEv>
    if (!hwSPI){
   d7ed6:	7823      	ldrb	r3, [r4, #0]
   d7ed8:	b19b      	cbz	r3, d7f02 <_ZN16Adafruit_MCPSRAM5beginEv+0x42>
        instance().begin();
   d7eda:	f7fd ff05 	bl	d5ce8 <_ZN8particle8SpiProxyIL19hal_spi_interface_t0EE8instanceEv>
   d7ede:	f001 f8ab 	bl	d9038 <_ZN8SPIClass5beginEv>
csLow();
   d7ee2:	4620      	mov	r0, r4
   d7ee4:	f7ff ffce 	bl	d7e84 <_ZN16Adafruit_MCPSRAM5csLowEv>
   d7ee8:	2503      	movs	r5, #3
	  if(hwSPI) {
   d7eea:	7823      	ldrb	r3, [r4, #0]
   d7eec:	b1cb      	cbz	r3, d7f22 <_ZN16Adafruit_MCPSRAM5beginEv+0x62>
		(void)SPI.transfer(0xFF);
   d7eee:	20ff      	movs	r0, #255	; 0xff
   d7ef0:	f7ff ffb0 	bl	d7e54 <_ZN8particle8SpiProxyIL19hal_spi_interface_t0EE8transferEh.isra.0>
for(int i=0; i<3; i++){
   d7ef4:	3d01      	subs	r5, #1
   d7ef6:	d1f8      	bne.n	d7eea <_ZN16Adafruit_MCPSRAM5beginEv+0x2a>
csHigh();
   d7ef8:	4620      	mov	r0, r4
}
   d7efa:	e8bd 4070 	ldmia.w	sp!, {r4, r5, r6, lr}
csHigh();
   d7efe:	f7ff bfb3 	b.w	d7e68 <_ZN16Adafruit_MCPSRAM6csHighEv>
      pinMode(_mosi, OUTPUT);
   d7f02:	f994 0002 	ldrsb.w	r0, [r4, #2]
   d7f06:	2101      	movs	r1, #1
   d7f08:	b280      	uxth	r0, r0
   d7f0a:	f003 fb13 	bl	db534 <pinMode>
      pinMode(_sck, OUTPUT);
   d7f0e:	f994 0004 	ldrsb.w	r0, [r4, #4]
   d7f12:	2101      	movs	r1, #1
   d7f14:	b280      	uxth	r0, r0
   d7f16:	f003 fb0d 	bl	db534 <pinMode>
    if (hwSPI){
   d7f1a:	7823      	ldrb	r3, [r4, #0]
   d7f1c:	2b00      	cmp	r3, #0
   d7f1e:	d0e0      	beq.n	d7ee2 <_ZN16Adafruit_MCPSRAM5beginEv+0x22>
   d7f20:	e7db      	b.n	d7eda <_ZN16Adafruit_MCPSRAM5beginEv+0x1a>
   d7f22:	2608      	movs	r6, #8
		  digitalWrite(_sck, LOW);
   d7f24:	f994 0004 	ldrsb.w	r0, [r4, #4]
   d7f28:	2100      	movs	r1, #0
   d7f2a:	b280      	uxth	r0, r0
   d7f2c:	f003 fb13 	bl	db556 <digitalWrite>
		  if(0xFF & bit) digitalWrite(_mosi, HIGH);
   d7f30:	f994 0002 	ldrsb.w	r0, [r4, #2]
   d7f34:	2101      	movs	r1, #1
   d7f36:	b280      	uxth	r0, r0
   d7f38:	f003 fb0d 	bl	db556 <digitalWrite>
		  digitalWrite(_sck, HIGH);
   d7f3c:	f994 0004 	ldrsb.w	r0, [r4, #4]
   d7f40:	2101      	movs	r1, #1
   d7f42:	b280      	uxth	r0, r0
   d7f44:	f003 fb07 	bl	db556 <digitalWrite>
		for(uint8_t bit = 0x80; bit; bit >>= 1) {
   d7f48:	3e01      	subs	r6, #1
   d7f4a:	d1eb      	bne.n	d7f24 <_ZN16Adafruit_MCPSRAM5beginEv+0x64>
   d7f4c:	e7d2      	b.n	d7ef4 <_ZN16Adafruit_MCPSRAM5beginEv+0x34>

000d7f4e <_ZN16Adafruit_MCPSRAM5writeEtPhth>:
{
   d7f4e:	e92d 4ff0 	stmdb	sp!, {r4, r5, r6, r7, r8, r9, sl, fp, lr}
   d7f52:	b085      	sub	sp, #20
   d7f54:	460d      	mov	r5, r1
   d7f56:	f89d b038 	ldrb.w	fp, [sp, #56]	; 0x38
   d7f5a:	9201      	str	r2, [sp, #4]
   d7f5c:	461e      	mov	r6, r3
   d7f5e:	4604      	mov	r4, r0
csLow();
   d7f60:	f7ff ff90 	bl	d7e84 <_ZN16Adafruit_MCPSRAM5csLowEv>
cmdbuf[1] = (addr >> 8);
   d7f64:	122b      	asrs	r3, r5, #8
cmdbuf[0] = reg;
   d7f66:	f88d b00c 	strb.w	fp, [sp, #12]
cmdbuf[1] = (addr >> 8);
   d7f6a:	f88d 300d 	strb.w	r3, [sp, #13]
cmdbuf[2] = addr & 0xFF;
   d7f6e:	f88d 500e 	strb.w	r5, [sp, #14]
for(int i=0; i<3; i++){
   d7f72:	f10d 0a0c 	add.w	sl, sp, #12
   d7f76:	2700      	movs	r7, #0
  if(hwSPI) {
   d7f78:	7823      	ldrb	r3, [r4, #0]
  uint8_t d = cmdbuf[i];
   d7f7a:	f81a 9b01 	ldrb.w	r9, [sl], #1
  if(hwSPI) {
   d7f7e:	b19b      	cbz	r3, d7fa8 <_ZN16Adafruit_MCPSRAM5writeEtPhth+0x5a>
    (void)SPI.transfer(d);
   d7f80:	4648      	mov	r0, r9
   d7f82:	f7ff ff67 	bl	d7e54 <_ZN8particle8SpiProxyIL19hal_spi_interface_t0EE8transferEh.isra.0>
  if(reg != MCPSRAM_WRITE) break;
   d7f86:	f1bb 0f02 	cmp.w	fp, #2
   d7f8a:	d102      	bne.n	d7f92 <_ZN16Adafruit_MCPSRAM5writeEtPhth+0x44>
for(int i=0; i<3; i++){
   d7f8c:	3701      	adds	r7, #1
   d7f8e:	2f03      	cmp	r7, #3
   d7f90:	d1f2      	bne.n	d7f78 <_ZN16Adafruit_MCPSRAM5writeEtPhth+0x2a>
   d7f92:	2500      	movs	r5, #0
for(int i=0; i<num; i++){
   d7f94:	42ae      	cmp	r6, r5
   d7f96:	dd25      	ble.n	d7fe4 <_ZN16Adafruit_MCPSRAM5writeEtPhth+0x96>
  if(hwSPI) {
   d7f98:	7823      	ldrb	r3, [r4, #0]
   d7f9a:	b11b      	cbz	r3, d7fa4 <_ZN16Adafruit_MCPSRAM5writeEtPhth+0x56>
    (void)SPI.transfer(d);
   d7f9c:	9b01      	ldr	r3, [sp, #4]
   d7f9e:	5d58      	ldrb	r0, [r3, r5]
   d7fa0:	f7ff ff58 	bl	d7e54 <_ZN8particle8SpiProxyIL19hal_spi_interface_t0EE8transferEh.isra.0>
for(int i=0; i<num; i++){
   d7fa4:	3501      	adds	r5, #1
   d7fa6:	e7f5      	b.n	d7f94 <_ZN16Adafruit_MCPSRAM5writeEtPhth+0x46>
   d7fa8:	f04f 0808 	mov.w	r8, #8
    for(uint8_t bit = 0x80; bit; bit >>= 1) {
   d7fac:	2580      	movs	r5, #128	; 0x80
      digitalWrite(_sck, LOW);
   d7fae:	f994 0004 	ldrsb.w	r0, [r4, #4]
   d7fb2:	2100      	movs	r1, #0
   d7fb4:	b280      	uxth	r0, r0
   d7fb6:	f003 face 	bl	db556 <digitalWrite>
      if(d & bit) digitalWrite(_mosi, HIGH);
   d7fba:	f994 0002 	ldrsb.w	r0, [r4, #2]
   d7fbe:	ea19 0105 	ands.w	r1, r9, r5
   d7fc2:	bf18      	it	ne
   d7fc4:	2101      	movne	r1, #1
      else        digitalWrite(_mosi, LOW);
   d7fc6:	b280      	uxth	r0, r0
   d7fc8:	f003 fac5 	bl	db556 <digitalWrite>
      digitalWrite(_sck, HIGH);
   d7fcc:	f994 0004 	ldrsb.w	r0, [r4, #4]
   d7fd0:	2101      	movs	r1, #1
   d7fd2:	b280      	uxth	r0, r0
   d7fd4:	f003 fabf 	bl	db556 <digitalWrite>
    for(uint8_t bit = 0x80; bit; bit >>= 1) {
   d7fd8:	f1b8 0801 	subs.w	r8, r8, #1
   d7fdc:	ea4f 0555 	mov.w	r5, r5, lsr #1
   d7fe0:	d1e5      	bne.n	d7fae <_ZN16Adafruit_MCPSRAM5writeEtPhth+0x60>
   d7fe2:	e7d0      	b.n	d7f86 <_ZN16Adafruit_MCPSRAM5writeEtPhth+0x38>
csHigh();
   d7fe4:	4620      	mov	r0, r4
}
   d7fe6:	b005      	add	sp, #20
   d7fe8:	e8bd 4ff0 	ldmia.w	sp!, {r4, r5, r6, r7, r8, r9, sl, fp, lr}
csHigh();
   d7fec:	f7ff bf3c 	b.w	d7e68 <_ZN16Adafruit_MCPSRAM6csHighEv>

000d7ff0 <_ZN16Adafruit_MCPSRAM6write8Ethh>:
{
   d7ff0:	b51f      	push	{r0, r1, r2, r3, r4, lr}
   d7ff2:	f88d 200f 	strb.w	r2, [sp, #15]
	this->write(addr, &val, 1, reg);
   d7ff6:	9300      	str	r3, [sp, #0]
   d7ff8:	f10d 020f 	add.w	r2, sp, #15
   d7ffc:	2301      	movs	r3, #1
   d7ffe:	f7ff ffa6 	bl	d7f4e <_ZN16Adafruit_MCPSRAM5writeEtPhth>
}
   d8002:	b005      	add	sp, #20
   d8004:	f85d fb04 	ldr.w	pc, [sp], #4

000d8008 <_ZN16Adafruit_MCPSRAM4readEtPhth>:
{
   d8008:	e92d 4ff0 	stmdb	sp!, {r4, r5, r6, r7, r8, r9, sl, fp, lr}
   d800c:	b085      	sub	sp, #20
   d800e:	460e      	mov	r6, r1
   d8010:	f89d b038 	ldrb.w	fp, [sp, #56]	; 0x38
   d8014:	9301      	str	r3, [sp, #4]
   d8016:	4604      	mov	r4, r0
   d8018:	4615      	mov	r5, r2
csLow();
   d801a:	f7ff ff33 	bl	d7e84 <_ZN16Adafruit_MCPSRAM5csLowEv>
cmdbuf[1] = (addr >> 8);
   d801e:	1233      	asrs	r3, r6, #8
cmdbuf[0] = reg;
   d8020:	f88d b00c 	strb.w	fp, [sp, #12]
cmdbuf[1] = (addr >> 8);
   d8024:	f88d 300d 	strb.w	r3, [sp, #13]
cmdbuf[2] = addr & 0xFF;
   d8028:	f88d 600e 	strb.w	r6, [sp, #14]
for(int i=0; i<3; i++){
   d802c:	f10d 0a0c 	add.w	sl, sp, #12
   d8030:	2700      	movs	r7, #0
  if(hwSPI) {
   d8032:	7823      	ldrb	r3, [r4, #0]
  uint8_t d = cmdbuf[i];
   d8034:	f81a 9b01 	ldrb.w	r9, [sl], #1
  if(hwSPI) {
   d8038:	b1ab      	cbz	r3, d8066 <_ZN16Adafruit_MCPSRAM4readEtPhth+0x5e>
    (void)SPI.transfer(d);
   d803a:	4648      	mov	r0, r9
   d803c:	f7ff ff0a 	bl	d7e54 <_ZN8particle8SpiProxyIL19hal_spi_interface_t0EE8transferEh.isra.0>
  if(reg != MCPSRAM_READ) break;
   d8040:	f1bb 0f03 	cmp.w	fp, #3
   d8044:	d102      	bne.n	d804c <_ZN16Adafruit_MCPSRAM4readEtPhth+0x44>
for(int i=0; i<3; i++){
   d8046:	3701      	adds	r7, #1
   d8048:	2f03      	cmp	r7, #3
   d804a:	d1f2      	bne.n	d8032 <_ZN16Adafruit_MCPSRAM4readEtPhth+0x2a>
   d804c:	9b01      	ldr	r3, [sp, #4]
   d804e:	442b      	add	r3, r5
   d8050:	4698      	mov	r8, r3
for(int i=0; i<num; i++){
   d8052:	45a8      	cmp	r8, r5
   d8054:	d03f      	beq.n	d80d6 <_ZN16Adafruit_MCPSRAM4readEtPhth+0xce>
  if(hwSPI) {
   d8056:	7823      	ldrb	r3, [r4, #0]
   d8058:	b31b      	cbz	r3, d80a2 <_ZN16Adafruit_MCPSRAM4readEtPhth+0x9a>
    buf[i] = SPI.transfer(0x00);
   d805a:	2000      	movs	r0, #0
   d805c:	f7ff fefa 	bl	d7e54 <_ZN8particle8SpiProxyIL19hal_spi_interface_t0EE8transferEh.isra.0>
   d8060:	7028      	strb	r0, [r5, #0]
for(int i=0; i<num; i++){
   d8062:	3501      	adds	r5, #1
   d8064:	e7f5      	b.n	d8052 <_ZN16Adafruit_MCPSRAM4readEtPhth+0x4a>
   d8066:	f04f 0808 	mov.w	r8, #8
    for(uint8_t bit = 0x80; bit; bit >>= 1) {
   d806a:	2680      	movs	r6, #128	; 0x80
      digitalWrite(_sck, LOW);
   d806c:	f994 0004 	ldrsb.w	r0, [r4, #4]
   d8070:	2100      	movs	r1, #0
   d8072:	b280      	uxth	r0, r0
   d8074:	f003 fa6f 	bl	db556 <digitalWrite>
      if(d & bit) digitalWrite(_mosi, HIGH);
   d8078:	f994 0002 	ldrsb.w	r0, [r4, #2]
   d807c:	ea19 0106 	ands.w	r1, r9, r6
   d8080:	bf18      	it	ne
   d8082:	2101      	movne	r1, #1
      else        digitalWrite(_mosi, LOW);
   d8084:	b280      	uxth	r0, r0
   d8086:	f003 fa66 	bl	db556 <digitalWrite>
      digitalWrite(_sck, HIGH);
   d808a:	f994 0004 	ldrsb.w	r0, [r4, #4]
   d808e:	2101      	movs	r1, #1
   d8090:	b280      	uxth	r0, r0
   d8092:	f003 fa60 	bl	db556 <digitalWrite>
    for(uint8_t bit = 0x80; bit; bit >>= 1) {
   d8096:	f1b8 0801 	subs.w	r8, r8, #1
   d809a:	ea4f 0656 	mov.w	r6, r6, lsr #1
   d809e:	d1e5      	bne.n	d806c <_ZN16Adafruit_MCPSRAM4readEtPhth+0x64>
   d80a0:	e7ce      	b.n	d8040 <_ZN16Adafruit_MCPSRAM4readEtPhth+0x38>
   d80a2:	2708      	movs	r7, #8
      digitalWrite(_sck, LOW);
   d80a4:	f994 0004 	ldrsb.w	r0, [r4, #4]
   d80a8:	2100      	movs	r1, #0
   d80aa:	b280      	uxth	r0, r0
   d80ac:	f003 fa53 	bl	db556 <digitalWrite>
      digitalWrite(_sck, HIGH);
   d80b0:	f994 0004 	ldrsb.w	r0, [r4, #4]
   d80b4:	2101      	movs	r1, #1
   d80b6:	b280      	uxth	r0, r0
   d80b8:	f003 fa4d 	bl	db556 <digitalWrite>
	  buf[i] = (buf[i] << 1) | digitalRead(_miso);
   d80bc:	f994 0003 	ldrsb.w	r0, [r4, #3]
   d80c0:	782e      	ldrb	r6, [r5, #0]
   d80c2:	b280      	uxth	r0, r0
   d80c4:	f003 fa60 	bl	db588 <digitalRead>
   d80c8:	0076      	lsls	r6, r6, #1
   d80ca:	b276      	sxtb	r6, r6
   d80cc:	4330      	orrs	r0, r6
    for(uint8_t bit = 0x80; bit; bit >>= 1) {
   d80ce:	3f01      	subs	r7, #1
	  buf[i] = (buf[i] << 1) | digitalRead(_miso);
   d80d0:	7028      	strb	r0, [r5, #0]
    for(uint8_t bit = 0x80; bit; bit >>= 1) {
   d80d2:	d1e7      	bne.n	d80a4 <_ZN16Adafruit_MCPSRAM4readEtPhth+0x9c>
   d80d4:	e7c5      	b.n	d8062 <_ZN16Adafruit_MCPSRAM4readEtPhth+0x5a>
csHigh();
   d80d6:	4620      	mov	r0, r4
}
   d80d8:	b005      	add	sp, #20
   d80da:	e8bd 4ff0 	ldmia.w	sp!, {r4, r5, r6, r7, r8, r9, sl, fp, lr}
csHigh();
   d80de:	f7ff bec3 	b.w	d7e68 <_ZN16Adafruit_MCPSRAM6csHighEv>

000d80e2 <_ZN16Adafruit_MCPSRAM5read8Eth>:
{
   d80e2:	b51f      	push	{r0, r1, r2, r3, r4, lr}
	this->read(addr, &c, 1, reg);
   d80e4:	2301      	movs	r3, #1
   d80e6:	9200      	str	r2, [sp, #0]
   d80e8:	f10d 020f 	add.w	r2, sp, #15
   d80ec:	f7ff ff8c 	bl	d8008 <_ZN16Adafruit_MCPSRAM4readEtPhth>
}
   d80f0:	f89d 000f 	ldrb.w	r0, [sp, #15]
   d80f4:	b005      	add	sp, #20
   d80f6:	f85d fb04 	ldr.w	pc, [sp], #4

000d80fa <_ZN16Adafruit_MCPSRAM5eraseEtth>:
{
   d80fa:	e92d 4ff7 	stmdb	sp!, {r0, r1, r2, r4, r5, r6, r7, r8, r9, sl, fp, lr}
   d80fe:	460e      	mov	r6, r1
   d8100:	461d      	mov	r5, r3
   d8102:	4604      	mov	r4, r0
   d8104:	4690      	mov	r8, r2
	csLow();
   d8106:	f7ff febd 	bl	d7e84 <_ZN16Adafruit_MCPSRAM5csLowEv>
	cmdbuf[0] = MCPSRAM_WRITE;
   d810a:	2302      	movs	r3, #2
   d810c:	f88d 3004 	strb.w	r3, [sp, #4]
	cmdbuf[1] = (addr >> 8);
   d8110:	1233      	asrs	r3, r6, #8
   d8112:	f88d 3005 	strb.w	r3, [sp, #5]
	cmdbuf[2] = addr & 0xFF;
   d8116:	f88d 6006 	strb.w	r6, [sp, #6]
	for(int i=0; i<3; i++){
   d811a:	f10d 0b04 	add.w	fp, sp, #4
   d811e:	2700      	movs	r7, #0
		if(hwSPI) {
   d8120:	7823      	ldrb	r3, [r4, #0]
		uint8_t d = cmdbuf[i];
   d8122:	f81b ab01 	ldrb.w	sl, [fp], #1
		if(hwSPI) {
   d8126:	b17b      	cbz	r3, d8148 <_ZN16Adafruit_MCPSRAM5eraseEtth+0x4e>
			(void)SPI.transfer(d);
   d8128:	4650      	mov	r0, sl
   d812a:	f7ff fe93 	bl	d7e54 <_ZN8particle8SpiProxyIL19hal_spi_interface_t0EE8transferEh.isra.0>
	for(int i=0; i<3; i++){
   d812e:	3701      	adds	r7, #1
   d8130:	2f03      	cmp	r7, #3
   d8132:	d1f5      	bne.n	d8120 <_ZN16Adafruit_MCPSRAM5eraseEtth+0x26>
   d8134:	2700      	movs	r7, #0
	for(uint16_t i=0; i<length; i++){
   d8136:	45b8      	cmp	r8, r7
   d8138:	d042      	beq.n	d81c0 <_ZN16Adafruit_MCPSRAM5eraseEtth+0xc6>
		if(hwSPI) {
   d813a:	7823      	ldrb	r3, [r4, #0]
   d813c:	b313      	cbz	r3, d8184 <_ZN16Adafruit_MCPSRAM5eraseEtth+0x8a>
			(void)SPI.transfer(d);
   d813e:	4628      	mov	r0, r5
   d8140:	f7ff fe88 	bl	d7e54 <_ZN8particle8SpiProxyIL19hal_spi_interface_t0EE8transferEh.isra.0>
	for(uint16_t i=0; i<length; i++){
   d8144:	3701      	adds	r7, #1
   d8146:	e7f6      	b.n	d8136 <_ZN16Adafruit_MCPSRAM5eraseEtth+0x3c>
   d8148:	f04f 0908 	mov.w	r9, #8
			for(uint8_t bit = 0x80; bit; bit >>= 1) {
   d814c:	2680      	movs	r6, #128	; 0x80
				digitalWrite(_sck, LOW);
   d814e:	f994 0004 	ldrsb.w	r0, [r4, #4]
   d8152:	2100      	movs	r1, #0
   d8154:	b280      	uxth	r0, r0
   d8156:	f003 f9fe 	bl	db556 <digitalWrite>
				if(d & bit) digitalWrite(_mosi, HIGH);
   d815a:	f994 0002 	ldrsb.w	r0, [r4, #2]
   d815e:	ea1a 0106 	ands.w	r1, sl, r6
   d8162:	bf18      	it	ne
   d8164:	2101      	movne	r1, #1
				else        digitalWrite(_mosi, LOW);
   d8166:	b280      	uxth	r0, r0
   d8168:	f003 f9f5 	bl	db556 <digitalWrite>
				digitalWrite(_sck, HIGH);
   d816c:	f994 0004 	ldrsb.w	r0, [r4, #4]
   d8170:	2101      	movs	r1, #1
   d8172:	b280      	uxth	r0, r0
   d8174:	f003 f9ef 	bl	db556 <digitalWrite>
			for(uint8_t bit = 0x80; bit; bit >>= 1) {
   d8178:	f1b9 0901 	subs.w	r9, r9, #1
   d817c:	ea4f 0656 	mov.w	r6, r6, lsr #1
   d8180:	d1e5      	bne.n	d814e <_ZN16Adafruit_MCPSRAM5eraseEtth+0x54>
   d8182:	e7d4      	b.n	d812e <_ZN16Adafruit_MCPSRAM5eraseEtth+0x34>
   d8184:	f04f 0908 	mov.w	r9, #8
			for(uint8_t bit = 0x80; bit; bit >>= 1) {
   d8188:	2680      	movs	r6, #128	; 0x80
				digitalWrite(_sck, LOW);
   d818a:	f994 0004 	ldrsb.w	r0, [r4, #4]
   d818e:	2100      	movs	r1, #0
   d8190:	b280      	uxth	r0, r0
   d8192:	f003 f9e0 	bl	db556 <digitalWrite>
				if(d & bit) digitalWrite(_mosi, HIGH);
   d8196:	f994 0002 	ldrsb.w	r0, [r4, #2]
   d819a:	ea15 0106 	ands.w	r1, r5, r6
   d819e:	bf18      	it	ne
   d81a0:	2101      	movne	r1, #1
				else        digitalWrite(_mosi, LOW);
   d81a2:	b280      	uxth	r0, r0
   d81a4:	f003 f9d7 	bl	db556 <digitalWrite>
				digitalWrite(_sck, HIGH);
   d81a8:	f994 0004 	ldrsb.w	r0, [r4, #4]
   d81ac:	2101      	movs	r1, #1
   d81ae:	b280      	uxth	r0, r0
   d81b0:	f003 f9d1 	bl	db556 <digitalWrite>
			for(uint8_t bit = 0x80; bit; bit >>= 1) {
   d81b4:	f1b9 0901 	subs.w	r9, r9, #1
   d81b8:	ea4f 0656 	mov.w	r6, r6, lsr #1
   d81bc:	d1e5      	bne.n	d818a <_ZN16Adafruit_MCPSRAM5eraseEtth+0x90>
   d81be:	e7c1      	b.n	d8144 <_ZN16Adafruit_MCPSRAM5eraseEtth+0x4a>
	csHigh();
   d81c0:	4620      	mov	r0, r4
}
   d81c2:	b003      	add	sp, #12
   d81c4:	e8bd 4ff0 	ldmia.w	sp!, {r4, r5, r6, r7, r8, r9, sl, fp, lr}
	csHigh();
   d81c8:	f7ff be4e 	b.w	d7e68 <_ZN16Adafruit_MCPSRAM6csHighEv>

000d81cc <_ZN12Adafruit_EPD9drawPixelEsst>:
	@param x the x axis position
	@param y the y axis position
	@param color the color of the pixel
*/
/**************************************************************************/
void Adafruit_EPD::drawPixel(int16_t x, int16_t y, uint16_t color) {
   d81cc:	e92d 43f7 	stmdb	sp!, {r0, r1, r2, r4, r5, r6, r7, r8, r9, lr}
  if ((x < 0) || (x >= width()) || (y < 0) || (y >= height()))
   d81d0:	1e0f      	subs	r7, r1, #0
void Adafruit_EPD::drawPixel(int16_t x, int16_t y, uint16_t color) {
   d81d2:	4605      	mov	r5, r0
   d81d4:	4614      	mov	r4, r2
   d81d6:	4699      	mov	r9, r3
  if ((x < 0) || (x >= width()) || (y < 0) || (y >= height()))
   d81d8:	f2c0 80a6 	blt.w	d8328 <_ZN12Adafruit_EPD9drawPixelEsst+0x15c>
   d81dc:	f7fd fd7a 	bl	d5cd4 <_ZNK12Adafruit_GFX5widthEv>
   d81e0:	42b8      	cmp	r0, r7
   d81e2:	f340 80a1 	ble.w	d8328 <_ZN12Adafruit_EPD9drawPixelEsst+0x15c>
   d81e6:	2c00      	cmp	r4, #0
   d81e8:	f2c0 809e 	blt.w	d8328 <_ZN12Adafruit_EPD9drawPixelEsst+0x15c>
   d81ec:	4628      	mov	r0, r5
   d81ee:	f7fd fd74 	bl	d5cda <_ZNK12Adafruit_GFX6heightEv>
   d81f2:	42a0      	cmp	r0, r4
   d81f4:	f340 8098 	ble.w	d8328 <_ZN12Adafruit_EPD9drawPixelEsst+0x15c>
    return;

  uint8_t *pBuf;

  // deal with non-8-bit heights
  uint16_t _HEIGHT = HEIGHT;
   d81f8:	f8b5 800a 	ldrh.w	r8, [r5, #10]
  if (_HEIGHT % 8 != 0) {
   d81fc:	f018 0f07 	tst.w	r8, #7
    _HEIGHT += 8 - (_HEIGHT % 8);
   d8200:	bf1c      	itt	ne
   d8202:	f028 0807 	bicne.w	r8, r8, #7
   d8206:	f108 0808 	addne.w	r8, r8, #8
  }

  // check rotation, move pixel around if necessary
  switch (getRotation()) {
   d820a:	4628      	mov	r0, r5
    _HEIGHT += 8 - (_HEIGHT % 8);
   d820c:	bf18      	it	ne
   d820e:	fa1f f888 	uxthne.w	r8, r8
  switch (getRotation()) {
   d8212:	f7fd fd5d 	bl	d5cd0 <_ZNK12Adafruit_GFX11getRotationEv>
   d8216:	2802      	cmp	r0, #2
   d8218:	d031      	beq.n	d827e <_ZN12Adafruit_EPD9drawPixelEsst+0xb2>
   d821a:	2803      	cmp	r0, #3
   d821c:	d037      	beq.n	d828e <_ZN12Adafruit_EPD9drawPixelEsst+0xc2>
   d821e:	2801      	cmp	r0, #1
   d8220:	d104      	bne.n	d822c <_ZN12Adafruit_EPD9drawPixelEsst+0x60>
  case 1:
    EPD_swap(x, y);
    x = WIDTH - x - 1;
   d8222:	892a      	ldrh	r2, [r5, #8]
   d8224:	43e4      	mvns	r4, r4
   d8226:	4422      	add	r2, r4
    break;
   d8228:	463c      	mov	r4, r7
    x = WIDTH - x - 1;
   d822a:	b217      	sxth	r7, r2
  case 3:
    EPD_swap(x, y);
    y = _HEIGHT - y - 1;
    break;
  }
  uint16_t addr = ( (uint32_t)(WIDTH - 1 - x) * (uint32_t)_HEIGHT + y)/8;
   d822c:	f9b5 6008 	ldrsh.w	r6, [r5, #8]
  uint8_t c;
  if (use_sram) {
   d8230:	f895 304c 	ldrb.w	r3, [r5, #76]	; 0x4c
  uint16_t addr = ( (uint32_t)(WIDTH - 1 - x) * (uint32_t)_HEIGHT + y)/8;
   d8234:	3e01      	subs	r6, #1
   d8236:	1bf6      	subs	r6, r6, r7
   d8238:	fb08 4606 	mla	r6, r8, r6, r4
   d823c:	f1a9 0703 	sub.w	r7, r9, #3
   d8240:	08f0      	lsrs	r0, r6, #3
   d8242:	b2bf      	uxth	r7, r7
   d8244:	f3c6 06cf 	ubfx	r6, r6, #3, #16
  if (use_sram) {
   d8248:	b333      	cbz	r3, d8298 <_ZN12Adafruit_EPD9drawPixelEsst+0xcc>
    if ((color == EPD_RED) || (color == EPD_GRAY)) {
   d824a:	2f01      	cmp	r7, #1
      addr = colorbuffer_addr + addr;
   d824c:	bf94      	ite	ls
   d824e:	f8b5 1048 	ldrhls.w	r1, [r5, #72]	; 0x48
    } else {
      addr = blackbuffer_addr + addr;
   d8252:	f8b5 104a 	ldrhhi.w	r1, [r5, #74]	; 0x4a
   d8256:	440e      	add	r6, r1
   d8258:	b2b6      	uxth	r6, r6
    }
    c = sram.read8(addr);
   d825a:	2203      	movs	r2, #3
   d825c:	4631      	mov	r1, r6
   d825e:	f105 0027 	add.w	r0, r5, #39	; 0x27
   d8262:	f7ff ff3e 	bl	d80e2 <_ZN16Adafruit_MCPSRAM5read8Eth>
    } else {
      pBuf = black_buffer + addr;
    }
  }

  if (((color == EPD_RED || color == EPD_GRAY) && colorInverted) ||
   d8266:	2f01      	cmp	r7, #1
    c = sram.read8(addr);
   d8268:	f88d 0007 	strb.w	r0, [sp, #7]
    pBuf = &c;
   d826c:	f10d 0007 	add.w	r0, sp, #7
  if (((color == EPD_RED || color == EPD_GRAY) && colorInverted) ||
   d8270:	d917      	bls.n	d82a2 <_ZN12Adafruit_EPD9drawPixelEsst+0xd6>
   d8272:	f1b9 0f00 	cmp.w	r9, #0
   d8276:	d145      	bne.n	d8304 <_ZN12Adafruit_EPD9drawPixelEsst+0x138>
      ((color == EPD_BLACK) && blackInverted)) {
   d8278:	f895 302c 	ldrb.w	r3, [r5, #44]	; 0x2c
   d827c:	e013      	b.n	d82a6 <_ZN12Adafruit_EPD9drawPixelEsst+0xda>
    x = WIDTH - x - 1;
   d827e:	8929      	ldrh	r1, [r5, #8]
    y = _HEIGHT - y - 1;
   d8280:	43e4      	mvns	r4, r4
    x = WIDTH - x - 1;
   d8282:	3901      	subs	r1, #1
   d8284:	1bcf      	subs	r7, r1, r7
    y = _HEIGHT - y - 1;
   d8286:	4444      	add	r4, r8
    x = WIDTH - x - 1;
   d8288:	b23f      	sxth	r7, r7
    y = _HEIGHT - y - 1;
   d828a:	b224      	sxth	r4, r4
    break;
   d828c:	e7ce      	b.n	d822c <_ZN12Adafruit_EPD9drawPixelEsst+0x60>
    y = _HEIGHT - y - 1;
   d828e:	43f9      	mvns	r1, r7
   d8290:	4441      	add	r1, r8
    break;
   d8292:	4627      	mov	r7, r4
    y = _HEIGHT - y - 1;
   d8294:	b20c      	sxth	r4, r1
    break;
   d8296:	e7c9      	b.n	d822c <_ZN12Adafruit_EPD9drawPixelEsst+0x60>
    if((color == EPD_RED) || (color == EPD_GRAY)) {
   d8298:	2f01      	cmp	r7, #1
   d829a:	b280      	uxth	r0, r0
   d829c:	d814      	bhi.n	d82c8 <_ZN12Adafruit_EPD9drawPixelEsst+0xfc>
      pBuf = color_buffer + addr;
   d829e:	6beb      	ldr	r3, [r5, #60]	; 0x3c
   d82a0:	4418      	add	r0, r3
  if (((color == EPD_RED || color == EPD_GRAY) && colorInverted) ||
   d82a2:	f895 302d 	ldrb.w	r3, [r5, #45]	; 0x2d
      ((color == EPD_BLACK) && blackInverted)) {
   d82a6:	b193      	cbz	r3, d82ce <_ZN12Adafruit_EPD9drawPixelEsst+0x102>
    *pBuf &= ~(1 << (7 - y%8));
   d82a8:	4263      	negs	r3, r4
   d82aa:	f003 0307 	and.w	r3, r3, #7
   d82ae:	f004 0407 	and.w	r4, r4, #7
   d82b2:	bf58      	it	pl
   d82b4:	425c      	negpl	r4, r3
   d82b6:	f1c4 0407 	rsb	r4, r4, #7
   d82ba:	2301      	movs	r3, #1
   d82bc:	40a3      	lsls	r3, r4
   d82be:	7804      	ldrb	r4, [r0, #0]
   d82c0:	ea24 0403 	bic.w	r4, r4, r3
  } else if (((color == EPD_RED || color == EPD_GRAY) && !colorInverted) ||
	     ((color == EPD_BLACK) && !blackInverted)) {
    *pBuf |= (1 << (7 - y%8));
  } else if (color == EPD_INVERSE) {
    *pBuf ^= (1 << (7 - y%8));
   d82c4:	7004      	strb	r4, [r0, #0]
   d82c6:	e010      	b.n	d82ea <_ZN12Adafruit_EPD9drawPixelEsst+0x11e>
      pBuf = black_buffer + addr;
   d82c8:	6c2b      	ldr	r3, [r5, #64]	; 0x40
   d82ca:	4418      	add	r0, r3
  if (((color == EPD_RED || color == EPD_GRAY) && colorInverted) ||
   d82cc:	e7d1      	b.n	d8272 <_ZN12Adafruit_EPD9drawPixelEsst+0xa6>
    *pBuf |= (1 << (7 - y%8));
   d82ce:	4263      	negs	r3, r4
   d82d0:	f003 0307 	and.w	r3, r3, #7
   d82d4:	f004 0407 	and.w	r4, r4, #7
   d82d8:	bf58      	it	pl
   d82da:	425c      	negpl	r4, r3
   d82dc:	7802      	ldrb	r2, [r0, #0]
   d82de:	f1c4 0407 	rsb	r4, r4, #7
   d82e2:	2301      	movs	r3, #1
   d82e4:	40a3      	lsls	r3, r4
   d82e6:	4313      	orrs	r3, r2
   d82e8:	7003      	strb	r3, [r0, #0]
  }

  if (use_sram) {
   d82ea:	f895 304c 	ldrb.w	r3, [r5, #76]	; 0x4c
   d82ee:	b1db      	cbz	r3, d8328 <_ZN12Adafruit_EPD9drawPixelEsst+0x15c>
    sram.write8(addr, *pBuf);
   d82f0:	7802      	ldrb	r2, [r0, #0]
   d82f2:	2302      	movs	r3, #2
   d82f4:	4631      	mov	r1, r6
   d82f6:	f105 0027 	add.w	r0, r5, #39	; 0x27
  }
}
   d82fa:	b003      	add	sp, #12
   d82fc:	e8bd 43f0 	ldmia.w	sp!, {r4, r5, r6, r7, r8, r9, lr}
    sram.write8(addr, *pBuf);
   d8300:	f7ff be76 	b.w	d7ff0 <_ZN16Adafruit_MCPSRAM6write8Ethh>
  } else if (color == EPD_INVERSE) {
   d8304:	f1b9 0f02 	cmp.w	r9, #2
   d8308:	d1ef      	bne.n	d82ea <_ZN12Adafruit_EPD9drawPixelEsst+0x11e>
    *pBuf ^= (1 << (7 - y%8));
   d830a:	4263      	negs	r3, r4
   d830c:	f003 0307 	and.w	r3, r3, #7
   d8310:	f004 0407 	and.w	r4, r4, #7
   d8314:	bf58      	it	pl
   d8316:	425c      	negpl	r4, r3
   d8318:	f1c4 0407 	rsb	r4, r4, #7
   d831c:	2301      	movs	r3, #1
   d831e:	fa03 f404 	lsl.w	r4, r3, r4
   d8322:	7803      	ldrb	r3, [r0, #0]
   d8324:	405c      	eors	r4, r3
   d8326:	e7cd      	b.n	d82c4 <_ZN12Adafruit_EPD9drawPixelEsst+0xf8>
}
   d8328:	b003      	add	sp, #12
   d832a:	e8bd 83f0 	ldmia.w	sp!, {r4, r5, r6, r7, r8, r9, pc}
	...

000d8330 <_ZN12Adafruit_EPDC1Eiiaaaaa>:
Adafruit_EPD::Adafruit_EPD(int width, int height, int8_t DC, int8_t RST, int8_t CS, int8_t SRCS, int8_t BUSY) : Adafruit_GFX(width, height),
   d8330:	b570      	push	{r4, r5, r6, lr}
sram(SRCS) {
   d8332:	b212      	sxth	r2, r2
Adafruit_EPD::Adafruit_EPD(int width, int height, int8_t DC, int8_t RST, int8_t CS, int8_t SRCS, int8_t BUSY) : Adafruit_GFX(width, height),
   d8334:	4604      	mov	r4, r0
sram(SRCS) {
   d8336:	b209      	sxth	r1, r1
Adafruit_EPD::Adafruit_EPD(int width, int height, int8_t DC, int8_t RST, int8_t CS, int8_t SRCS, int8_t BUSY) : Adafruit_GFX(width, height),
   d8338:	f99d 5018 	ldrsb.w	r5, [sp, #24]
   d833c:	461e      	mov	r6, r3
sram(SRCS) {
   d833e:	f7fd fa7b 	bl	d5838 <_ZN12Adafruit_GFXC1Ess>
   d8342:	4620      	mov	r0, r4
   d8344:	4b13      	ldr	r3, [pc, #76]	; (d8394 <_ZN12Adafruit_EPDC1Eiiaaaaa+0x64>)
   d8346:	f840 3b27 	str.w	r3, [r0], #39
   d834a:	4629      	mov	r1, r5
   d834c:	f7ff fd7e 	bl	d7e4c <_ZN16Adafruit_MCPSRAMC1Ea>
  _cs_pin = CS;
   d8350:	f99d 3014 	ldrsb.w	r3, [sp, #20]
   d8354:	f884 3024 	strb.w	r3, [r4, #36]	; 0x24
  _reset_pin = RST;
   d8358:	f99d 3010 	ldrsb.w	r3, [sp, #16]
   d835c:	f884 3023 	strb.w	r3, [r4, #35]	; 0x23
  _busy_pin = BUSY;
   d8360:	f99d 301c 	ldrsb.w	r3, [sp, #28]
   d8364:	f884 3025 	strb.w	r3, [r4, #37]	; 0x25
  if (SRCS >= 0) {
   d8368:	43ed      	mvns	r5, r5
  hwSPI = true;
   d836a:	2301      	movs	r3, #1
  if (SRCS >= 0) {
   d836c:	0fed      	lsrs	r5, r5, #31
  hwSPI = true;
   d836e:	f884 304d 	strb.w	r3, [r4, #77]	; 0x4d
  singleByteTxns = false;
   d8372:	2300      	movs	r3, #0
  buffer1 = buffer2 = color_buffer = black_buffer = NULL;
   d8374:	e9c4 330d 	strd	r3, r3, [r4, #52]	; 0x34
   d8378:	e9c4 330f 	strd	r3, r3, [r4, #60]	; 0x3c
  colorbuffer_addr = blackbuffer_addr = 0;
   d837c:	e9c4 3311 	strd	r3, r3, [r4, #68]	; 0x44
  _dc_pin = DC;
   d8380:	f884 6022 	strb.w	r6, [r4, #34]	; 0x22
  if (SRCS >= 0) {
   d8384:	f884 504c 	strb.w	r5, [r4, #76]	; 0x4c
  singleByteTxns = false;
   d8388:	f884 3026 	strb.w	r3, [r4, #38]	; 0x26
  buffer1_size = buffer2_size = 0;
   d838c:	8623      	strh	r3, [r4, #48]	; 0x30
   d838e:	85e3      	strh	r3, [r4, #46]	; 0x2e
}
   d8390:	4620      	mov	r0, r4
   d8392:	bd70      	pop	{r4, r5, r6, pc}
   d8394:	000de8c8 	.word	0x000de8c8

000d8398 <_ZN12Adafruit_EPDD1Ev>:
Adafruit_EPD::~Adafruit_EPD()
   d8398:	b510      	push	{r4, lr}
   d839a:	4b07      	ldr	r3, [pc, #28]	; (d83b8 <_ZN12Adafruit_EPDD1Ev+0x20>)
   d839c:	6003      	str	r3, [r0, #0]
   d839e:	4604      	mov	r4, r0
  if (buffer1 != NULL) {
   d83a0:	6b40      	ldr	r0, [r0, #52]	; 0x34
   d83a2:	b118      	cbz	r0, d83ac <_ZN12Adafruit_EPDD1Ev+0x14>
    free(buffer1);
   d83a4:	f000 fdc2 	bl	d8f2c <free>
    buffer1 = NULL;
   d83a8:	2300      	movs	r3, #0
   d83aa:	6363      	str	r3, [r4, #52]	; 0x34
  if (buffer2 != NULL) {
   d83ac:	6ba0      	ldr	r0, [r4, #56]	; 0x38
   d83ae:	b108      	cbz	r0, d83b4 <_ZN12Adafruit_EPDD1Ev+0x1c>
    free(buffer2);
   d83b0:	f000 fdbc 	bl	d8f2c <free>
}
   d83b4:	4620      	mov	r0, r4
   d83b6:	bd10      	pop	{r4, pc}
   d83b8:	000de8c8 	.word	0x000de8c8

000d83bc <_ZN12Adafruit_EPD13hardwareResetEv>:
void Adafruit_EPD::hardwareReset(void) {
   d83bc:	b510      	push	{r4, lr}
   d83be:	4604      	mov	r4, r0
  if (_reset_pin >= 0) {
   d83c0:	f990 0023 	ldrsb.w	r0, [r0, #35]	; 0x23
   d83c4:	2800      	cmp	r0, #0
   d83c6:	db20      	blt.n	d840a <_ZN12Adafruit_EPD13hardwareResetEv+0x4e>
    pinMode(_reset_pin, OUTPUT);
   d83c8:	2101      	movs	r1, #1
   d83ca:	b280      	uxth	r0, r0
   d83cc:	f003 f8b2 	bl	db534 <pinMode>
    digitalWrite(_reset_pin, HIGH);
   d83d0:	f994 0023 	ldrsb.w	r0, [r4, #35]	; 0x23
   d83d4:	2101      	movs	r1, #1
   d83d6:	b280      	uxth	r0, r0
   d83d8:	f003 f8bd 	bl	db556 <digitalWrite>
    delay(10);
   d83dc:	200a      	movs	r0, #10
   d83de:	f002 fb9f 	bl	dab20 <delay>
    digitalWrite(_reset_pin, LOW);
   d83e2:	f994 0023 	ldrsb.w	r0, [r4, #35]	; 0x23
   d83e6:	2100      	movs	r1, #0
   d83e8:	b280      	uxth	r0, r0
   d83ea:	f003 f8b4 	bl	db556 <digitalWrite>
    delay(10);
   d83ee:	200a      	movs	r0, #10
   d83f0:	f002 fb96 	bl	dab20 <delay>
    digitalWrite(_reset_pin, HIGH);
   d83f4:	f994 0023 	ldrsb.w	r0, [r4, #35]	; 0x23
   d83f8:	2101      	movs	r1, #1
   d83fa:	b280      	uxth	r0, r0
   d83fc:	f003 f8ab 	bl	db556 <digitalWrite>
}
   d8400:	e8bd 4010 	ldmia.w	sp!, {r4, lr}
    delay(10);
   d8404:	200a      	movs	r0, #10
   d8406:	f002 bb8b 	b.w	dab20 <delay>
}
   d840a:	bd10      	pop	{r4, pc}

000d840c <_ZN12Adafruit_EPD14setBlackBufferEab>:
    @param index 0 or 1, for primary or secondary value
    @param inverted Whether to invert the logical value
*/
/**************************************************************************/
 void Adafruit_EPD::setBlackBuffer(int8_t index, bool inverted) {
   if (index == 0) {
   d840c:	b961      	cbnz	r1, d8428 <_ZN12Adafruit_EPD14setBlackBufferEab+0x1c>
     if (use_sram) {
   d840e:	f890 304c 	ldrb.w	r3, [r0, #76]	; 0x4c
   d8412:	b133      	cbz	r3, d8422 <_ZN12Adafruit_EPD14setBlackBufferEab+0x16>
       blackbuffer_addr = buffer1_addr;
   d8414:	f8b0 3044 	ldrh.w	r3, [r0, #68]	; 0x44
       black_buffer = buffer1;
     }
   }
   if (index == 1) {
     if (use_sram) {
       blackbuffer_addr = buffer2_addr;
   d8418:	f8a0 304a 	strh.w	r3, [r0, #74]	; 0x4a
     } else {
       black_buffer = buffer2;
     }
   }
   blackInverted = inverted;
   d841c:	f880 202c 	strb.w	r2, [r0, #44]	; 0x2c
 }
   d8420:	4770      	bx	lr
       black_buffer = buffer1;
   d8422:	6b43      	ldr	r3, [r0, #52]	; 0x34
       black_buffer = buffer2;
   d8424:	6403      	str	r3, [r0, #64]	; 0x40
   d8426:	e7f9      	b.n	d841c <_ZN12Adafruit_EPD14setBlackBufferEab+0x10>
   if (index == 1) {
   d8428:	2901      	cmp	r1, #1
   d842a:	d1f7      	bne.n	d841c <_ZN12Adafruit_EPD14setBlackBufferEab+0x10>
     if (use_sram) {
   d842c:	f890 304c 	ldrb.w	r3, [r0, #76]	; 0x4c
   d8430:	b113      	cbz	r3, d8438 <_ZN12Adafruit_EPD14setBlackBufferEab+0x2c>
       blackbuffer_addr = buffer2_addr;
   d8432:	f8b0 3046 	ldrh.w	r3, [r0, #70]	; 0x46
   d8436:	e7ef      	b.n	d8418 <_ZN12Adafruit_EPD14setBlackBufferEab+0xc>
       black_buffer = buffer2;
   d8438:	6b83      	ldr	r3, [r0, #56]	; 0x38
   d843a:	e7f3      	b.n	d8424 <_ZN12Adafruit_EPD14setBlackBufferEab+0x18>

000d843c <_ZN12Adafruit_EPD14setColorBufferEab>:
    @param index 0 or 1, for primary or secondary value
    @param inverted Whether to invert the logical value
*/
/**************************************************************************/
 void Adafruit_EPD::setColorBuffer(int8_t index, bool inverted) {
   if (index == 0) {
   d843c:	b961      	cbnz	r1, d8458 <_ZN12Adafruit_EPD14setColorBufferEab+0x1c>
     if (use_sram) {
   d843e:	f890 304c 	ldrb.w	r3, [r0, #76]	; 0x4c
   d8442:	b133      	cbz	r3, d8452 <_ZN12Adafruit_EPD14setColorBufferEab+0x16>
       colorbuffer_addr = buffer1_addr;
   d8444:	f8b0 3044 	ldrh.w	r3, [r0, #68]	; 0x44
       color_buffer = buffer1;
     }
   }
   if (index == 1) {
     if (use_sram) {
       colorbuffer_addr = buffer2_addr;
   d8448:	f8a0 3048 	strh.w	r3, [r0, #72]	; 0x48
     } else {
       color_buffer = buffer2;
     }
   }
   colorInverted = inverted;
   d844c:	f880 202d 	strb.w	r2, [r0, #45]	; 0x2d
 }
   d8450:	4770      	bx	lr
       color_buffer = buffer1;
   d8452:	6b43      	ldr	r3, [r0, #52]	; 0x34
       color_buffer = buffer2;
   d8454:	63c3      	str	r3, [r0, #60]	; 0x3c
   d8456:	e7f9      	b.n	d844c <_ZN12Adafruit_EPD14setColorBufferEab+0x10>
   if (index == 1) {
   d8458:	2901      	cmp	r1, #1
   d845a:	d1f7      	bne.n	d844c <_ZN12Adafruit_EPD14setColorBufferEab+0x10>
     if (use_sram) {
   d845c:	f890 304c 	ldrb.w	r3, [r0, #76]	; 0x4c
   d8460:	b113      	cbz	r3, d8468 <_ZN12Adafruit_EPD14setColorBufferEab+0x2c>
       colorbuffer_addr = buffer2_addr;
   d8462:	f8b0 3046 	ldrh.w	r3, [r0, #70]	; 0x46
   d8466:	e7ef      	b.n	d8448 <_ZN12Adafruit_EPD14setColorBufferEab+0xc>
       color_buffer = buffer2;
   d8468:	6b83      	ldr	r3, [r0, #56]	; 0x38
   d846a:	e7f3      	b.n	d8454 <_ZN12Adafruit_EPD14setColorBufferEab+0x18>

000d846c <_ZN12Adafruit_EPD11clearBufferEv>:
/*!
    @brief clear all data buffers
*/
/**************************************************************************/
void Adafruit_EPD::clearBuffer()
{
   d846c:	b510      	push	{r4, lr}
  if (use_sram) {
   d846e:	f890 304c 	ldrb.w	r3, [r0, #76]	; 0x4c
{
   d8472:	4604      	mov	r4, r0
  if (use_sram) {
   d8474:	b1c3      	cbz	r3, d84a8 <_ZN12Adafruit_EPD11clearBufferEv+0x3c>
    if (buffer1_size != 0) {
   d8476:	8dc2      	ldrh	r2, [r0, #46]	; 0x2e
   d8478:	b142      	cbz	r2, d848c <_ZN12Adafruit_EPD11clearBufferEv+0x20>
      if (blackInverted) {
   d847a:	f894 302c 	ldrb.w	r3, [r4, #44]	; 0x2c
   d847e:	f8b4 1044 	ldrh.w	r1, [r4, #68]	; 0x44
   d8482:	3027      	adds	r0, #39	; 0x27
   d8484:	b103      	cbz	r3, d8488 <_ZN12Adafruit_EPD11clearBufferEv+0x1c>
	sram.erase(buffer1_addr, buffer1_size, 0xFF);
   d8486:	23ff      	movs	r3, #255	; 0xff
      } else {
	sram.erase(buffer1_addr, buffer1_size, 0x00);
   d8488:	f7ff fe37 	bl	d80fa <_ZN16Adafruit_MCPSRAM5eraseEtth>
      }
    }
    if (buffer2_size != 0) {
   d848c:	8e22      	ldrh	r2, [r4, #48]	; 0x30
   d848e:	b1fa      	cbz	r2, d84d0 <_ZN12Adafruit_EPD11clearBufferEv+0x64>
      if (colorInverted) {
   d8490:	f894 302d 	ldrb.w	r3, [r4, #45]	; 0x2d
   d8494:	f8b4 1046 	ldrh.w	r1, [r4, #70]	; 0x46
   d8498:	f104 0027 	add.w	r0, r4, #39	; 0x27
   d849c:	b103      	cbz	r3, d84a0 <_ZN12Adafruit_EPD11clearBufferEv+0x34>
	sram.erase(buffer2_addr, buffer2_size, 0xFF);
   d849e:	23ff      	movs	r3, #255	; 0xff
      } else {
	memset(buffer2, 0x00, buffer2_size);
      }
    }
  }
}
   d84a0:	e8bd 4010 	ldmia.w	sp!, {r4, lr}
	sram.erase(buffer2_addr, buffer2_size, 0x00);
   d84a4:	f7ff be29 	b.w	d80fa <_ZN16Adafruit_MCPSRAM5eraseEtth>
    if (buffer1) {
   d84a8:	6b40      	ldr	r0, [r0, #52]	; 0x34
   d84aa:	b130      	cbz	r0, d84ba <_ZN12Adafruit_EPD11clearBufferEv+0x4e>
      if (blackInverted) {
   d84ac:	f894 102c 	ldrb.w	r1, [r4, #44]	; 0x2c
   d84b0:	8de2      	ldrh	r2, [r4, #46]	; 0x2e
   d84b2:	b101      	cbz	r1, d84b6 <_ZN12Adafruit_EPD11clearBufferEv+0x4a>
	memset(buffer1, 0xFF, buffer1_size);
   d84b4:	21ff      	movs	r1, #255	; 0xff
	memset(buffer1, 0x00, buffer1_size);
   d84b6:	f005 fbdb 	bl	ddc70 <memset>
    if (buffer2) {
   d84ba:	6ba0      	ldr	r0, [r4, #56]	; 0x38
   d84bc:	b140      	cbz	r0, d84d0 <_ZN12Adafruit_EPD11clearBufferEv+0x64>
      if (colorInverted) {
   d84be:	f894 102d 	ldrb.w	r1, [r4, #45]	; 0x2d
   d84c2:	8e22      	ldrh	r2, [r4, #48]	; 0x30
   d84c4:	b101      	cbz	r1, d84c8 <_ZN12Adafruit_EPD11clearBufferEv+0x5c>
	memset(buffer2, 0xFF, buffer2_size);
   d84c6:	21ff      	movs	r1, #255	; 0xff
}
   d84c8:	e8bd 4010 	ldmia.w	sp!, {r4, lr}
	memset(buffer2, 0x00, buffer2_size);
   d84cc:	f005 bbd0 	b.w	ddc70 <memset>
}
   d84d0:	bd10      	pop	{r4, pc}

000d84d2 <_ZN12Adafruit_EPD6dcHighEv>:
void Adafruit_EPD::dcHigh()
{
#ifdef HAVE_PORTREG
  *dcport |= dcpinmask;
#else
  digitalWrite(_dc_pin, HIGH);
   d84d2:	f990 0022 	ldrsb.w	r0, [r0, #34]	; 0x22
   d84d6:	2101      	movs	r1, #1
   d84d8:	b280      	uxth	r0, r0
   d84da:	f003 b83c 	b.w	db556 <digitalWrite>

000d84de <_ZN12Adafruit_EPD5dcLowEv>:
void Adafruit_EPD::dcLow()
{
#ifdef HAVE_PORTREG
  *dcport &= ~dcpinmask;
#else
  digitalWrite(_dc_pin, LOW);
   d84de:	f990 0022 	ldrsb.w	r0, [r0, #34]	; 0x22
   d84e2:	2100      	movs	r1, #0
   d84e4:	b280      	uxth	r0, r0
   d84e6:	f003 b836 	b.w	db556 <digitalWrite>
	...

000d84ec <_ZN12Adafruit_EPD6csHighEv>:
{
   d84ec:	b510      	push	{r4, lr}
   d84ee:	4604      	mov	r4, r0
        instance().endTransaction();
   d84f0:	f7fd fbfa 	bl	d5ce8 <_ZN8particle8SpiProxyIL19hal_spi_interface_t0EE8instanceEv>
   d84f4:	f000 fdb1 	bl	d905a <_ZN8SPIClass14endTransactionEv>
  _isInTransaction = false;
   d84f8:	4b05      	ldr	r3, [pc, #20]	; (d8510 <_ZN12Adafruit_EPD6csHighEv+0x24>)
  digitalWrite(_cs_pin, HIGH);
   d84fa:	f994 0024 	ldrsb.w	r0, [r4, #36]	; 0x24
  _isInTransaction = false;
   d84fe:	2200      	movs	r2, #0
   d8500:	701a      	strb	r2, [r3, #0]
}
   d8502:	e8bd 4010 	ldmia.w	sp!, {r4, lr}
  digitalWrite(_cs_pin, HIGH);
   d8506:	2101      	movs	r1, #1
   d8508:	b280      	uxth	r0, r0
   d850a:	f003 b824 	b.w	db556 <digitalWrite>
   d850e:	bf00      	nop
   d8510:	2003e5c1 	.word	0x2003e5c1

000d8514 <_ZN12Adafruit_EPD5beginEb>:
void Adafruit_EPD::begin(bool reset) {
   d8514:	b537      	push	{r0, r1, r2, r4, r5, lr}
  setBlackBuffer(0, true);   // black defaults to inverted
   d8516:	2201      	movs	r2, #1
void Adafruit_EPD::begin(bool reset) {
   d8518:	460d      	mov	r5, r1
  setBlackBuffer(0, true);   // black defaults to inverted
   d851a:	2100      	movs	r1, #0
void Adafruit_EPD::begin(bool reset) {
   d851c:	4604      	mov	r4, r0
  setBlackBuffer(0, true);   // black defaults to inverted
   d851e:	f7ff ff75 	bl	d840c <_ZN12Adafruit_EPD14setBlackBufferEab>
  setColorBuffer(1, false);  // red defaults to not inverted
   d8522:	2200      	movs	r2, #0
   d8524:	2101      	movs	r1, #1
   d8526:	f7ff ff89 	bl	d843c <_ZN12Adafruit_EPD14setColorBufferEab>
  if (use_sram) {
   d852a:	f890 304c 	ldrb.w	r3, [r0, #76]	; 0x4c
   d852e:	b14b      	cbz	r3, d8544 <_ZN12Adafruit_EPD5beginEb+0x30>
    sram.begin();
   d8530:	3027      	adds	r0, #39	; 0x27
   d8532:	9001      	str	r0, [sp, #4]
   d8534:	f7ff fcc4 	bl	d7ec0 <_ZN16Adafruit_MCPSRAM5beginEv>
    sram.write8(0, K640_SEQUENTIAL_MODE, MCPSRAM_WRSR);
   d8538:	9801      	ldr	r0, [sp, #4]
   d853a:	2301      	movs	r3, #1
   d853c:	2240      	movs	r2, #64	; 0x40
   d853e:	2100      	movs	r1, #0
   d8540:	f7ff fd56 	bl	d7ff0 <_ZN16Adafruit_MCPSRAM6write8Ethh>
  pinMode(_dc_pin, OUTPUT);
   d8544:	f994 0022 	ldrsb.w	r0, [r4, #34]	; 0x22
   d8548:	2101      	movs	r1, #1
   d854a:	b280      	uxth	r0, r0
   d854c:	f002 fff2 	bl	db534 <pinMode>
  pinMode(_cs_pin, OUTPUT);
   d8550:	f994 0024 	ldrsb.w	r0, [r4, #36]	; 0x24
   d8554:	2101      	movs	r1, #1
   d8556:	b280      	uxth	r0, r0
   d8558:	f002 ffec 	bl	db534 <pinMode>
  csHigh();
   d855c:	4620      	mov	r0, r4
   d855e:	f7ff ffc5 	bl	d84ec <_ZN12Adafruit_EPD6csHighEv>
  if (!hwSPI){
   d8562:	f894 304d 	ldrb.w	r3, [r4, #77]	; 0x4d
   d8566:	b9d3      	cbnz	r3, d859e <_ZN12Adafruit_EPD5beginEb+0x8a>
    pinMode(_sid_pin, OUTPUT);
   d8568:	f994 0020 	ldrsb.w	r0, [r4, #32]
   d856c:	2101      	movs	r1, #1
   d856e:	b280      	uxth	r0, r0
   d8570:	f002 ffe0 	bl	db534 <pinMode>
    pinMode(_sclk_pin, OUTPUT);
   d8574:	f994 0021 	ldrsb.w	r0, [r4, #33]	; 0x21
   d8578:	2101      	movs	r1, #1
   d857a:	b280      	uxth	r0, r0
   d857c:	f002 ffda 	bl	db534 <pinMode>
  if (reset) {
   d8580:	b115      	cbz	r5, d8588 <_ZN12Adafruit_EPD5beginEb+0x74>
    hardwareReset();
   d8582:	4620      	mov	r0, r4
   d8584:	f7ff ff1a 	bl	d83bc <_ZN12Adafruit_EPD13hardwareResetEv>
  if (_busy_pin >= 0) {
   d8588:	f994 0025 	ldrsb.w	r0, [r4, #37]	; 0x25
   d858c:	2800      	cmp	r0, #0
   d858e:	db0b      	blt.n	d85a8 <_ZN12Adafruit_EPD5beginEb+0x94>
    pinMode(_busy_pin, INPUT);
   d8590:	2100      	movs	r1, #0
   d8592:	b280      	uxth	r0, r0
}
   d8594:	b003      	add	sp, #12
   d8596:	e8bd 4030 	ldmia.w	sp!, {r4, r5, lr}
    pinMode(_busy_pin, INPUT);
   d859a:	f002 bfcb 	b.w	db534 <pinMode>
        instance().begin();
   d859e:	f7fd fba3 	bl	d5ce8 <_ZN8particle8SpiProxyIL19hal_spi_interface_t0EE8instanceEv>
   d85a2:	f000 fd49 	bl	d9038 <_ZN8SPIClass5beginEv>
    }
   d85a6:	e7eb      	b.n	d8580 <_ZN12Adafruit_EPD5beginEb+0x6c>
}
   d85a8:	b003      	add	sp, #12
   d85aa:	bd30      	pop	{r4, r5, pc}

000d85ac <_ZN12Adafruit_EPD5csLowEv>:
{
   d85ac:	b57f      	push	{r0, r1, r2, r3, r4, r5, r6, lr}
  if (!_isInTransaction) {
   d85ae:	4d0d      	ldr	r5, [pc, #52]	; (d85e4 <_ZN12Adafruit_EPD5csLowEv+0x38>)
   d85b0:	782b      	ldrb	r3, [r5, #0]
{
   d85b2:	4604      	mov	r4, r0
  if (!_isInTransaction) {
   d85b4:	b973      	cbnz	r3, d85d4 <_ZN12Adafruit_EPD5csLowEv+0x28>
   d85b6:	4a0c      	ldr	r2, [pc, #48]	; (d85e8 <_ZN12Adafruit_EPD5csLowEv+0x3c>)
   d85b8:	f88d 3004 	strb.w	r3, [sp, #4]
   d85bc:	2601      	movs	r6, #1
   d85be:	4b0b      	ldr	r3, [pc, #44]	; (d85ec <_ZN12Adafruit_EPD5csLowEv+0x40>)
   d85c0:	9200      	str	r2, [sp, #0]
   d85c2:	9302      	str	r3, [sp, #8]
   d85c4:	f8ad 600c 	strh.w	r6, [sp, #12]
        return instance().beginTransaction(settings);
   d85c8:	f7fd fb8e 	bl	d5ce8 <_ZN8particle8SpiProxyIL19hal_spi_interface_t0EE8instanceEv>
   d85cc:	4669      	mov	r1, sp
   d85ce:	f000 fd5d 	bl	d908c <_ZN8SPIClass16beginTransactionERKN8particle11SPISettingsE>
    _isInTransaction = true;
   d85d2:	702e      	strb	r6, [r5, #0]
  digitalWrite(_cs_pin, LOW);
   d85d4:	f994 0024 	ldrsb.w	r0, [r4, #36]	; 0x24
   d85d8:	2100      	movs	r1, #0
   d85da:	b280      	uxth	r0, r0
   d85dc:	f002 ffbb 	bl	db556 <digitalWrite>
}
   d85e0:	b004      	add	sp, #16
   d85e2:	bd70      	pop	{r4, r5, r6, pc}
   d85e4:	2003e5c1 	.word	0x2003e5c1
   d85e8:	000de218 	.word	0x000de218
   d85ec:	003d0900 	.word	0x003d0900

000d85f0 <_ZN12Adafruit_EPD11SPItransferEh>:
uint8_t Adafruit_EPD::SPItransfer(uint8_t d) {
   d85f0:	b5f8      	push	{r3, r4, r5, r6, r7, lr}
  if (hwSPI) {
   d85f2:	f890 304d 	ldrb.w	r3, [r0, #77]	; 0x4d
uint8_t Adafruit_EPD::SPItransfer(uint8_t d) {
   d85f6:	4605      	mov	r5, r0
   d85f8:	460e      	mov	r6, r1
  if (hwSPI) {
   d85fa:	b1b3      	cbz	r3, d862a <_ZN12Adafruit_EPD11SPItransferEh+0x3a>
    if (singleByteTxns){
   d85fc:	f890 3026 	ldrb.w	r3, [r0, #38]	; 0x26
   d8600:	b163      	cbz	r3, d861c <_ZN12Adafruit_EPD11SPItransferEh+0x2c>
      csLow();
   d8602:	f7ff ffd3 	bl	d85ac <_ZN12Adafruit_EPD5csLowEv>
        return instance().transfer(data);
   d8606:	f7fd fb6f 	bl	d5ce8 <_ZN8particle8SpiProxyIL19hal_spi_interface_t0EE8instanceEv>
   d860a:	4631      	mov	r1, r6
   d860c:	f000 fdac 	bl	d9168 <_ZN8SPIClass8transferEh>
   d8610:	4604      	mov	r4, r0
      csHigh();
   d8612:	4628      	mov	r0, r5
   d8614:	f7ff ff6a 	bl	d84ec <_ZN12Adafruit_EPD6csHighEv>
}
   d8618:	4620      	mov	r0, r4
   d861a:	bdf8      	pop	{r3, r4, r5, r6, r7, pc}
   d861c:	f7fd fb64 	bl	d5ce8 <_ZN8particle8SpiProxyIL19hal_spi_interface_t0EE8instanceEv>
   d8620:	4631      	mov	r1, r6
   d8622:	e8bd 40f8 	ldmia.w	sp!, {r3, r4, r5, r6, r7, lr}
   d8626:	f000 bd9f 	b.w	d9168 <_ZN8SPIClass8transferEh>
   d862a:	2408      	movs	r4, #8
    for(uint8_t bit = 0x80; bit; bit >>= 1) {
   d862c:	2780      	movs	r7, #128	; 0x80
      digitalWrite(_sclk_pin, LOW);
   d862e:	f995 0021 	ldrsb.w	r0, [r5, #33]	; 0x21
   d8632:	2100      	movs	r1, #0
   d8634:	b280      	uxth	r0, r0
   d8636:	f002 ff8e 	bl	db556 <digitalWrite>
      if(d & bit) digitalWrite(_sid_pin, HIGH);
   d863a:	f995 0020 	ldrsb.w	r0, [r5, #32]
   d863e:	ea16 0107 	ands.w	r1, r6, r7
   d8642:	bf18      	it	ne
   d8644:	2101      	movne	r1, #1
      else        digitalWrite(_sid_pin, LOW);
   d8646:	b280      	uxth	r0, r0
   d8648:	f002 ff85 	bl	db556 <digitalWrite>
      digitalWrite(_sclk_pin, HIGH);
   d864c:	f995 0021 	ldrsb.w	r0, [r5, #33]	; 0x21
   d8650:	2101      	movs	r1, #1
   d8652:	b280      	uxth	r0, r0
   d8654:	f002 ff7f 	bl	db556 <digitalWrite>
    for(uint8_t bit = 0x80; bit; bit >>= 1) {
   d8658:	3c01      	subs	r4, #1
   d865a:	ea4f 0757 	mov.w	r7, r7, lsr #1
   d865e:	d1e6      	bne.n	d862e <_ZN12Adafruit_EPD11SPItransferEh+0x3e>
   d8660:	e7da      	b.n	d8618 <_ZN12Adafruit_EPD11SPItransferEh+0x28>

000d8662 <_ZN12Adafruit_EPD7displayEv>:
{
   d8662:	e92d 41f0 	stmdb	sp!, {r4, r5, r6, r7, r8, lr}
  powerUp();
   d8666:	6803      	ldr	r3, [r0, #0]
{
   d8668:	4604      	mov	r4, r0
  powerUp();
   d866a:	6d9b      	ldr	r3, [r3, #88]	; 0x58
   d866c:	4798      	blx	r3
  setRAMAddress(0, 0);
   d866e:	6823      	ldr	r3, [r4, #0]
   d8670:	2200      	movs	r2, #0
   d8672:	6d5b      	ldr	r3, [r3, #84]	; 0x54
   d8674:	4611      	mov	r1, r2
   d8676:	4620      	mov	r0, r4
   d8678:	4798      	blx	r3
  if (use_sram) {
   d867a:	f894 504c 	ldrb.w	r5, [r4, #76]	; 0x4c
   d867e:	b3b5      	cbz	r5, d86ee <_ZN12Adafruit_EPD7displayEv+0x8c>
    sram.csLow();
   d8680:	f104 0727 	add.w	r7, r4, #39	; 0x27
   d8684:	4638      	mov	r0, r7
   d8686:	f7ff fbfd 	bl	d7e84 <_ZN16Adafruit_MCPSRAM5csLowEv>
    SPItransfer(MCPSRAM_READ);
   d868a:	2103      	movs	r1, #3
   d868c:	4620      	mov	r0, r4
   d868e:	f7ff ffaf 	bl	d85f0 <_ZN12Adafruit_EPD11SPItransferEh>
    SPItransfer(buffer1_addr >> 8);
   d8692:	f8b4 1044 	ldrh.w	r1, [r4, #68]	; 0x44
   d8696:	4620      	mov	r0, r4
   d8698:	0a09      	lsrs	r1, r1, #8
   d869a:	f7ff ffa9 	bl	d85f0 <_ZN12Adafruit_EPD11SPItransferEh>
    SPItransfer(buffer1_addr & 0xFF);
   d869e:	f894 1044 	ldrb.w	r1, [r4, #68]	; 0x44
   d86a2:	4620      	mov	r0, r4
   d86a4:	f7ff ffa4 	bl	d85f0 <_ZN12Adafruit_EPD11SPItransferEh>
    c = writeRAMCommand(0);
   d86a8:	6823      	ldr	r3, [r4, #0]
   d86aa:	2100      	movs	r1, #0
   d86ac:	6d1b      	ldr	r3, [r3, #80]	; 0x50
   d86ae:	4620      	mov	r0, r4
   d86b0:	4798      	blx	r3
   d86b2:	4605      	mov	r5, r0
    dcHigh();
   d86b4:	4620      	mov	r0, r4
   d86b6:	f7ff ff0c 	bl	d84d2 <_ZN12Adafruit_EPD6dcHighEv>
   d86ba:	2600      	movs	r6, #0
    for(uint16_t i=0; i<buffer1_size; i++){
   d86bc:	8de2      	ldrh	r2, [r4, #46]	; 0x2e
   d86be:	b2b3      	uxth	r3, r6
   d86c0:	429a      	cmp	r2, r3
   d86c2:	d906      	bls.n	d86d2 <_ZN12Adafruit_EPD7displayEv+0x70>
      c = SPItransfer(c);
   d86c4:	4629      	mov	r1, r5
   d86c6:	4620      	mov	r0, r4
   d86c8:	f7ff ff92 	bl	d85f0 <_ZN12Adafruit_EPD11SPItransferEh>
   d86cc:	3601      	adds	r6, #1
   d86ce:	4605      	mov	r5, r0
    for(uint16_t i=0; i<buffer1_size; i++){
   d86d0:	e7f4      	b.n	d86bc <_ZN12Adafruit_EPD7displayEv+0x5a>
    csHigh();
   d86d2:	4620      	mov	r0, r4
   d86d4:	f7ff ff0a 	bl	d84ec <_ZN12Adafruit_EPD6csHighEv>
    sram.csHigh();
   d86d8:	4638      	mov	r0, r7
   d86da:	f7ff fbc5 	bl	d7e68 <_ZN16Adafruit_MCPSRAM6csHighEv>
  if (buffer2_size == 0) {
   d86de:	8e23      	ldrh	r3, [r4, #48]	; 0x30
   d86e0:	b9e3      	cbnz	r3, d871c <_ZN12Adafruit_EPD7displayEv+0xba>
    update();
   d86e2:	6823      	ldr	r3, [r4, #0]
   d86e4:	6ddb      	ldr	r3, [r3, #92]	; 0x5c
  powerDown();
   d86e6:	4620      	mov	r0, r4
}
   d86e8:	e8bd 41f0 	ldmia.w	sp!, {r4, r5, r6, r7, r8, lr}
  powerDown();
   d86ec:	4718      	bx	r3
    writeRAMCommand(0);
   d86ee:	6823      	ldr	r3, [r4, #0]
   d86f0:	4629      	mov	r1, r5
   d86f2:	6d1b      	ldr	r3, [r3, #80]	; 0x50
   d86f4:	4620      	mov	r0, r4
   d86f6:	4798      	blx	r3
    dcHigh();
   d86f8:	4620      	mov	r0, r4
   d86fa:	f7ff feea 	bl	d84d2 <_ZN12Adafruit_EPD6dcHighEv>
    for(uint16_t i=0; i<buffer1_size; i++) {
   d86fe:	8de2      	ldrh	r2, [r4, #46]	; 0x2e
   d8700:	b2ab      	uxth	r3, r5
   d8702:	429a      	cmp	r2, r3
   d8704:	d906      	bls.n	d8714 <_ZN12Adafruit_EPD7displayEv+0xb2>
      SPItransfer(buffer1[i]);
   d8706:	6b62      	ldr	r2, [r4, #52]	; 0x34
   d8708:	4620      	mov	r0, r4
   d870a:	5cd1      	ldrb	r1, [r2, r3]
   d870c:	f7ff ff70 	bl	d85f0 <_ZN12Adafruit_EPD11SPItransferEh>
    for(uint16_t i=0; i<buffer1_size; i++) {
   d8710:	3501      	adds	r5, #1
   d8712:	e7f4      	b.n	d86fe <_ZN12Adafruit_EPD7displayEv+0x9c>
    csHigh();
   d8714:	4620      	mov	r0, r4
   d8716:	f7ff fee9 	bl	d84ec <_ZN12Adafruit_EPD6csHighEv>
   d871a:	e7e0      	b.n	d86de <_ZN12Adafruit_EPD7displayEv+0x7c>
  delay(2);
   d871c:	2002      	movs	r0, #2
   d871e:	f002 f9ff 	bl	dab20 <delay>
  setRAMAddress(0, 0);
   d8722:	6823      	ldr	r3, [r4, #0]
   d8724:	2200      	movs	r2, #0
   d8726:	6d5b      	ldr	r3, [r3, #84]	; 0x54
   d8728:	4611      	mov	r1, r2
   d872a:	4620      	mov	r0, r4
   d872c:	4798      	blx	r3
  if (use_sram) {
   d872e:	f894 504c 	ldrb.w	r5, [r4, #76]	; 0x4c
   d8732:	b3ad      	cbz	r5, d87a0 <_ZN12Adafruit_EPD7displayEv+0x13e>
    sram.csLow();
   d8734:	f104 0727 	add.w	r7, r4, #39	; 0x27
   d8738:	4638      	mov	r0, r7
   d873a:	f7ff fba3 	bl	d7e84 <_ZN16Adafruit_MCPSRAM5csLowEv>
    SPItransfer(MCPSRAM_READ);
   d873e:	2103      	movs	r1, #3
   d8740:	4620      	mov	r0, r4
   d8742:	f7ff ff55 	bl	d85f0 <_ZN12Adafruit_EPD11SPItransferEh>
    SPItransfer(buffer2_addr >> 8);
   d8746:	f8b4 1046 	ldrh.w	r1, [r4, #70]	; 0x46
   d874a:	4620      	mov	r0, r4
   d874c:	0a09      	lsrs	r1, r1, #8
   d874e:	f7ff ff4f 	bl	d85f0 <_ZN12Adafruit_EPD11SPItransferEh>
    SPItransfer(buffer2_addr & 0xFF);
   d8752:	f894 1046 	ldrb.w	r1, [r4, #70]	; 0x46
   d8756:	4620      	mov	r0, r4
   d8758:	f7ff ff4a 	bl	d85f0 <_ZN12Adafruit_EPD11SPItransferEh>
    c = writeRAMCommand(1);
   d875c:	6823      	ldr	r3, [r4, #0]
   d875e:	2101      	movs	r1, #1
   d8760:	6d1b      	ldr	r3, [r3, #80]	; 0x50
   d8762:	4620      	mov	r0, r4
   d8764:	4798      	blx	r3
   d8766:	4605      	mov	r5, r0
    dcHigh();
   d8768:	4620      	mov	r0, r4
   d876a:	f7ff feb2 	bl	d84d2 <_ZN12Adafruit_EPD6dcHighEv>
   d876e:	2600      	movs	r6, #0
    for(uint16_t i=0; i<buffer2_size; i++){
   d8770:	8e22      	ldrh	r2, [r4, #48]	; 0x30
   d8772:	b2b3      	uxth	r3, r6
   d8774:	429a      	cmp	r2, r3
   d8776:	d906      	bls.n	d8786 <_ZN12Adafruit_EPD7displayEv+0x124>
      c = SPItransfer(c);
   d8778:	4629      	mov	r1, r5
   d877a:	4620      	mov	r0, r4
   d877c:	f7ff ff38 	bl	d85f0 <_ZN12Adafruit_EPD11SPItransferEh>
   d8780:	3601      	adds	r6, #1
   d8782:	4605      	mov	r5, r0
    for(uint16_t i=0; i<buffer2_size; i++){
   d8784:	e7f4      	b.n	d8770 <_ZN12Adafruit_EPD7displayEv+0x10e>
    csHigh();
   d8786:	4620      	mov	r0, r4
   d8788:	f7ff feb0 	bl	d84ec <_ZN12Adafruit_EPD6csHighEv>
    sram.csHigh();
   d878c:	4638      	mov	r0, r7
   d878e:	f7ff fb6b 	bl	d7e68 <_ZN16Adafruit_MCPSRAM6csHighEv>
  update();
   d8792:	6823      	ldr	r3, [r4, #0]
   d8794:	4620      	mov	r0, r4
   d8796:	6ddb      	ldr	r3, [r3, #92]	; 0x5c
   d8798:	4798      	blx	r3
  powerDown();
   d879a:	6823      	ldr	r3, [r4, #0]
   d879c:	6e1b      	ldr	r3, [r3, #96]	; 0x60
   d879e:	e7a2      	b.n	d86e6 <_ZN12Adafruit_EPD7displayEv+0x84>
    writeRAMCommand(1);
   d87a0:	6823      	ldr	r3, [r4, #0]
   d87a2:	2101      	movs	r1, #1
   d87a4:	6d1b      	ldr	r3, [r3, #80]	; 0x50
   d87a6:	4620      	mov	r0, r4
   d87a8:	4798      	blx	r3
    dcHigh();
   d87aa:	4620      	mov	r0, r4
   d87ac:	f7ff fe91 	bl	d84d2 <_ZN12Adafruit_EPD6dcHighEv>
    for(uint16_t i=0; i<buffer2_size; i++){
   d87b0:	8e22      	ldrh	r2, [r4, #48]	; 0x30
   d87b2:	b2ab      	uxth	r3, r5
   d87b4:	429a      	cmp	r2, r3
   d87b6:	d906      	bls.n	d87c6 <_ZN12Adafruit_EPD7displayEv+0x164>
      SPItransfer(buffer2[i]);
   d87b8:	6ba2      	ldr	r2, [r4, #56]	; 0x38
   d87ba:	4620      	mov	r0, r4
   d87bc:	5cd1      	ldrb	r1, [r2, r3]
   d87be:	f7ff ff17 	bl	d85f0 <_ZN12Adafruit_EPD11SPItransferEh>
    for(uint16_t i=0; i<buffer2_size; i++){
   d87c2:	3501      	adds	r5, #1
   d87c4:	e7f4      	b.n	d87b0 <_ZN12Adafruit_EPD7displayEv+0x14e>
    csHigh();
   d87c6:	4620      	mov	r0, r4
   d87c8:	f7ff fe90 	bl	d84ec <_ZN12Adafruit_EPD6csHighEv>
   d87cc:	e7e1      	b.n	d8792 <_ZN12Adafruit_EPD7displayEv+0x130>

000d87ce <_ZN12Adafruit_EPD8EPD_dataEPKht>:
{
   d87ce:	b570      	push	{r4, r5, r6, lr}
   d87d0:	460c      	mov	r4, r1
   d87d2:	4615      	mov	r5, r2
   d87d4:	4606      	mov	r6, r0
  dcHigh();
   d87d6:	f7ff fe7c 	bl	d84d2 <_ZN12Adafruit_EPD6dcHighEv>
  for (uint16_t i=0; i<len; i++) {
   d87da:	4425      	add	r5, r4
   d87dc:	42ac      	cmp	r4, r5
   d87de:	d005      	beq.n	d87ec <_ZN12Adafruit_EPD8EPD_dataEPKht+0x1e>
    SPItransfer(buf[i]);
   d87e0:	f814 1b01 	ldrb.w	r1, [r4], #1
   d87e4:	4630      	mov	r0, r6
   d87e6:	f7ff ff03 	bl	d85f0 <_ZN12Adafruit_EPD11SPItransferEh>
  for (uint16_t i=0; i<len; i++) {
   d87ea:	e7f7      	b.n	d87dc <_ZN12Adafruit_EPD8EPD_dataEPKht+0xe>
  csHigh();
   d87ec:	4630      	mov	r0, r6
}
   d87ee:	e8bd 4070 	ldmia.w	sp!, {r4, r5, r6, lr}
  csHigh();
   d87f2:	f7ff be7b 	b.w	d84ec <_ZN12Adafruit_EPD6csHighEv>

000d87f6 <_ZN12Adafruit_EPD11EPD_commandEhb>:
uint8_t Adafruit_EPD::EPD_command(uint8_t c, bool end) {
   d87f6:	b573      	push	{r0, r1, r4, r5, r6, lr}
   d87f8:	4604      	mov	r4, r0
   d87fa:	9101      	str	r1, [sp, #4]
   d87fc:	4616      	mov	r6, r2
  csHigh();
   d87fe:	f7ff fe75 	bl	d84ec <_ZN12Adafruit_EPD6csHighEv>
  dcLow();
   d8802:	4620      	mov	r0, r4
   d8804:	f7ff fe6b 	bl	d84de <_ZN12Adafruit_EPD5dcLowEv>
  csLow();
   d8808:	4620      	mov	r0, r4
   d880a:	f7ff fecf 	bl	d85ac <_ZN12Adafruit_EPD5csLowEv>
  uint8_t data = SPItransfer(c);
   d880e:	9901      	ldr	r1, [sp, #4]
   d8810:	4620      	mov	r0, r4
   d8812:	f7ff feed 	bl	d85f0 <_ZN12Adafruit_EPD11SPItransferEh>
   d8816:	4605      	mov	r5, r0
  if (end) {
   d8818:	b116      	cbz	r6, d8820 <_ZN12Adafruit_EPD11EPD_commandEhb+0x2a>
    csHigh();
   d881a:	4620      	mov	r0, r4
   d881c:	f7ff fe66 	bl	d84ec <_ZN12Adafruit_EPD6csHighEv>
}
   d8820:	4628      	mov	r0, r5
   d8822:	b002      	add	sp, #8
   d8824:	bd70      	pop	{r4, r5, r6, pc}

000d8826 <_ZN12Adafruit_EPD11EPD_commandEhPKht>:
{
   d8826:	b570      	push	{r4, r5, r6, lr}
   d8828:	4604      	mov	r4, r0
   d882a:	4615      	mov	r5, r2
   d882c:	461e      	mov	r6, r3
  EPD_command(c, false);
   d882e:	2200      	movs	r2, #0
   d8830:	f7ff ffe1 	bl	d87f6 <_ZN12Adafruit_EPD11EPD_commandEhb>
  EPD_data(buf, len);
   d8834:	4632      	mov	r2, r6
   d8836:	4629      	mov	r1, r5
   d8838:	4620      	mov	r0, r4
}
   d883a:	e8bd 4070 	ldmia.w	sp!, {r4, r5, r6, lr}
  EPD_data(buf, len);
   d883e:	f7ff bfc6 	b.w	d87ce <_ZN12Adafruit_EPD8EPD_dataEPKht>
	...

000d8844 <netdb_freeaddrinfo>:

DYNALIB_BEGIN(hal_netdb)

DYNALIB_FN(0, hal_netdb, netdb_gethostbyname, struct hostent*(const char*))
DYNALIB_FN(1, hal_netdb, netdb_gethostbyname_r, int(const char*, struct hostent*, char*, size_t, struct hostent**, int*))
DYNALIB_FN(2, hal_netdb, netdb_freeaddrinfo, void(struct addrinfo*))
   d8844:	b508      	push	{r3, lr}
   d8846:	4b02      	ldr	r3, [pc, #8]	; (d8850 <netdb_freeaddrinfo+0xc>)
   d8848:	681b      	ldr	r3, [r3, #0]
   d884a:	689b      	ldr	r3, [r3, #8]
   d884c:	9301      	str	r3, [sp, #4]
   d884e:	bd08      	pop	{r3, pc}
   d8850:	00030268 	.word	0x00030268

000d8854 <netdb_getaddrinfo>:
DYNALIB_FN(3, hal_netdb, netdb_getaddrinfo, int(const char*, const char*, const struct addrinfo*, struct addrinfo**))
   d8854:	b508      	push	{r3, lr}
   d8856:	4b02      	ldr	r3, [pc, #8]	; (d8860 <netdb_getaddrinfo+0xc>)
   d8858:	681b      	ldr	r3, [r3, #0]
   d885a:	68db      	ldr	r3, [r3, #12]
   d885c:	9301      	str	r3, [sp, #4]
   d885e:	bd08      	pop	{r3, pc}
   d8860:	00030268 	.word	0x00030268

000d8864 <HAL_Pin_Mode>:

DYNALIB_BEGIN(hal_gpio)

DYNALIB_FN(0, hal_gpio, HAL_Pin_Map, Hal_Pin_Info*(void))
DYNALIB_FN(1, hal_gpio, HAL_Validate_Pin_Function, PinFunction(pin_t, PinFunction))
DYNALIB_FN(2, hal_gpio, HAL_Pin_Mode, void(pin_t, PinMode))
   d8864:	b508      	push	{r3, lr}
   d8866:	4b02      	ldr	r3, [pc, #8]	; (d8870 <HAL_Pin_Mode+0xc>)
   d8868:	681b      	ldr	r3, [r3, #0]
   d886a:	689b      	ldr	r3, [r3, #8]
   d886c:	9301      	str	r3, [sp, #4]
   d886e:	bd08      	pop	{r3, pc}
   d8870:	0003022c 	.word	0x0003022c

000d8874 <HAL_Get_Pin_Mode>:
DYNALIB_FN(3, hal_gpio, HAL_Get_Pin_Mode, PinMode(pin_t))
   d8874:	b508      	push	{r3, lr}
   d8876:	4b02      	ldr	r3, [pc, #8]	; (d8880 <HAL_Get_Pin_Mode+0xc>)
   d8878:	681b      	ldr	r3, [r3, #0]
   d887a:	68db      	ldr	r3, [r3, #12]
   d887c:	9301      	str	r3, [sp, #4]
   d887e:	bd08      	pop	{r3, pc}
   d8880:	0003022c 	.word	0x0003022c

000d8884 <HAL_GPIO_Write>:
DYNALIB_FN(4, hal_gpio, HAL_GPIO_Write, void(pin_t, uint8_t))
   d8884:	b508      	push	{r3, lr}
   d8886:	4b02      	ldr	r3, [pc, #8]	; (d8890 <HAL_GPIO_Write+0xc>)
   d8888:	681b      	ldr	r3, [r3, #0]
   d888a:	691b      	ldr	r3, [r3, #16]
   d888c:	9301      	str	r3, [sp, #4]
   d888e:	bd08      	pop	{r3, pc}
   d8890:	0003022c 	.word	0x0003022c

000d8894 <HAL_GPIO_Read>:
DYNALIB_FN(5, hal_gpio, HAL_GPIO_Read, int32_t(pin_t))
   d8894:	b508      	push	{r3, lr}
   d8896:	4b02      	ldr	r3, [pc, #8]	; (d88a0 <HAL_GPIO_Read+0xc>)
   d8898:	681b      	ldr	r3, [r3, #0]
   d889a:	695b      	ldr	r3, [r3, #20]
   d889c:	9301      	str	r3, [sp, #4]
   d889e:	bd08      	pop	{r3, pc}
   d88a0:	0003022c 	.word	0x0003022c

000d88a4 <HAL_RNG_GetRandomNumber>:

DYNALIB_BEGIN(hal)

#if PLATFORM_ID > 3
DYNALIB_FN(0, hal, HAL_RNG_Configuration, void(void))
DYNALIB_FN(1, hal, HAL_RNG_GetRandomNumber, uint32_t(void))
   d88a4:	b508      	push	{r3, lr}
   d88a6:	4b02      	ldr	r3, [pc, #8]	; (d88b0 <HAL_RNG_GetRandomNumber+0xc>)
   d88a8:	681b      	ldr	r3, [r3, #0]
   d88aa:	685b      	ldr	r3, [r3, #4]
   d88ac:	9301      	str	r3, [sp, #4]
   d88ae:	bd08      	pop	{r3, pc}
   d88b0:	00030218 	.word	0x00030218

000d88b4 <HAL_Delay_Microseconds>:
#else
#define BASE_IDX 0
#endif

DYNALIB_FN(BASE_IDX + 0, hal, HAL_Delay_Milliseconds, void(uint32_t))
DYNALIB_FN(BASE_IDX + 1, hal, HAL_Delay_Microseconds, void(uint32_t))
   d88b4:	b508      	push	{r3, lr}
   d88b6:	4b02      	ldr	r3, [pc, #8]	; (d88c0 <HAL_Delay_Microseconds+0xc>)
   d88b8:	681b      	ldr	r3, [r3, #0]
   d88ba:	68db      	ldr	r3, [r3, #12]
   d88bc:	9301      	str	r3, [sp, #4]
   d88be:	bd08      	pop	{r3, pc}
   d88c0:	00030218 	.word	0x00030218

000d88c4 <HAL_Timer_Get_Micro_Seconds>:
DYNALIB_FN(BASE_IDX + 2, hal, HAL_Timer_Get_Micro_Seconds, system_tick_t(void))
   d88c4:	b508      	push	{r3, lr}
   d88c6:	4b02      	ldr	r3, [pc, #8]	; (d88d0 <HAL_Timer_Get_Micro_Seconds+0xc>)
   d88c8:	681b      	ldr	r3, [r3, #0]
   d88ca:	691b      	ldr	r3, [r3, #16]
   d88cc:	9301      	str	r3, [sp, #4]
   d88ce:	bd08      	pop	{r3, pc}
   d88d0:	00030218 	.word	0x00030218

000d88d4 <HAL_Timer_Get_Milli_Seconds>:
DYNALIB_FN(BASE_IDX + 3, hal, HAL_Timer_Get_Milli_Seconds, system_tick_t(void))
   d88d4:	b508      	push	{r3, lr}
   d88d6:	4b02      	ldr	r3, [pc, #8]	; (d88e0 <HAL_Timer_Get_Milli_Seconds+0xc>)
   d88d8:	681b      	ldr	r3, [r3, #0]
   d88da:	695b      	ldr	r3, [r3, #20]
   d88dc:	9301      	str	r3, [sp, #4]
   d88de:	bd08      	pop	{r3, pc}
   d88e0:	00030218 	.word	0x00030218

000d88e4 <HAL_EEPROM_Init>:
DYNALIB_FN(BASE_IDX + 5, hal, hal_rtc_get_unixtime_deprecated, time32_t(void))
DYNALIB_FN(BASE_IDX + 6, hal, hal_rtc_set_unixtime_deprecated, void(time32_t))

DYNALIB_FN(BASE_IDX + 7, hal, hal_rtc_set_alarm, int(const struct timeval*, uint32_t, hal_rtc_alarm_handler, void*, void*))

DYNALIB_FN(BASE_IDX + 8, hal, HAL_EEPROM_Init, void(void))
   d88e4:	b508      	push	{r3, lr}
   d88e6:	4b02      	ldr	r3, [pc, #8]	; (d88f0 <HAL_EEPROM_Init+0xc>)
   d88e8:	681b      	ldr	r3, [r3, #0]
   d88ea:	6a9b      	ldr	r3, [r3, #40]	; 0x28
   d88ec:	9301      	str	r3, [sp, #4]
   d88ee:	bd08      	pop	{r3, pc}
   d88f0:	00030218 	.word	0x00030218

000d88f4 <HAL_EEPROM_Get>:

DYNALIB_FN(BASE_IDX + 12, hal, HAL_disable_irq, int(void))
DYNALIB_FN(BASE_IDX + 13, hal, HAL_enable_irq, void(int))
DYNALIB_FN(BASE_IDX + 14, hal, hal_rtc_cancel_alarm, void(void))

DYNALIB_FN(BASE_IDX + 15, hal, HAL_EEPROM_Get, void(uint32_t, void *, size_t))
   d88f4:	b508      	push	{r3, lr}
   d88f6:	4b02      	ldr	r3, [pc, #8]	; (d8900 <HAL_EEPROM_Get+0xc>)
   d88f8:	681b      	ldr	r3, [r3, #0]
   d88fa:	6c5b      	ldr	r3, [r3, #68]	; 0x44
   d88fc:	9301      	str	r3, [sp, #4]
   d88fe:	bd08      	pop	{r3, pc}
   d8900:	00030218 	.word	0x00030218

000d8904 <HAL_EEPROM_Put>:
DYNALIB_FN(BASE_IDX + 16, hal, HAL_EEPROM_Put, void(uint32_t, const void *, size_t))
   d8904:	b508      	push	{r3, lr}
   d8906:	4b02      	ldr	r3, [pc, #8]	; (d8910 <HAL_EEPROM_Put+0xc>)
   d8908:	681b      	ldr	r3, [r3, #0]
   d890a:	6c9b      	ldr	r3, [r3, #72]	; 0x48
   d890c:	9301      	str	r3, [sp, #4]
   d890e:	bd08      	pop	{r3, pc}
   d8910:	00030218 	.word	0x00030218

000d8914 <hal_rtc_time_is_valid>:
DYNALIB_FN(BASE_IDX + 17, hal, HAL_EEPROM_Clear, void(void))
DYNALIB_FN(BASE_IDX + 18, hal, HAL_EEPROM_Has_Pending_Erase, bool(void))
DYNALIB_FN(BASE_IDX + 19, hal, HAL_EEPROM_Perform_Pending_Erase, void(void))
DYNALIB_FN(BASE_IDX + 20, hal, hal_rtc_time_is_valid, bool(void*))
   d8914:	b508      	push	{r3, lr}
   d8916:	4b02      	ldr	r3, [pc, #8]	; (d8920 <hal_rtc_time_is_valid+0xc>)
   d8918:	681b      	ldr	r3, [r3, #0]
   d891a:	6d9b      	ldr	r3, [r3, #88]	; 0x58
   d891c:	9301      	str	r3, [sp, #4]
   d891e:	bd08      	pop	{r3, pc}
   d8920:	00030218 	.word	0x00030218

000d8924 <hal_timer_millis>:

DYNALIB_FN(BASE_IDX + 21, hal, hal_timer_millis, uint64_t(void*))
   d8924:	b508      	push	{r3, lr}
   d8926:	4b02      	ldr	r3, [pc, #8]	; (d8930 <hal_timer_millis+0xc>)
   d8928:	681b      	ldr	r3, [r3, #0]
   d892a:	6ddb      	ldr	r3, [r3, #92]	; 0x5c
   d892c:	9301      	str	r3, [sp, #4]
   d892e:	bd08      	pop	{r3, pc}
   d8930:	00030218 	.word	0x00030218

000d8934 <hal_rtc_get_time>:
DYNALIB_FN(BASE_IDX + 22, hal, hal_timer_micros, uint64_t(void*))

DYNALIB_FN(BASE_IDX + 23, hal, hal_rtc_get_time, int(struct timeval*, void*))
   d8934:	b508      	push	{r3, lr}
   d8936:	4b02      	ldr	r3, [pc, #8]	; (d8940 <hal_rtc_get_time+0xc>)
   d8938:	681b      	ldr	r3, [r3, #0]
   d893a:	6e5b      	ldr	r3, [r3, #100]	; 0x64
   d893c:	9301      	str	r3, [sp, #4]
   d893e:	bd08      	pop	{r3, pc}
   d8940:	00030218 	.word	0x00030218

000d8944 <hal_ble_stack_init>:

DYNALIB_BEGIN(hal_ble)

DYNALIB_FN(0, hal_ble, hal_ble_lock, int(void*))
DYNALIB_FN(1, hal_ble, hal_ble_unlock, int(void*))
DYNALIB_FN(2, hal_ble, hal_ble_stack_init, int(void*))
   d8944:	b508      	push	{r3, lr}
   d8946:	4b02      	ldr	r3, [pc, #8]	; (d8950 <hal_ble_stack_init+0xc>)
   d8948:	681b      	ldr	r3, [r3, #0]
   d894a:	689b      	ldr	r3, [r3, #8]
   d894c:	9301      	str	r3, [sp, #4]
   d894e:	bd08      	pop	{r3, pc}
   d8950:	00030278 	.word	0x00030278

000d8954 <hal_ble_gap_set_advertising_data>:
DYNALIB_FN(15, hal_ble, hal_ble_gap_delete_whitelist, int(void*))
DYNALIB_FN(16, hal_ble, hal_ble_gap_set_tx_power, int(int8_t, void*))
DYNALIB_FN(17, hal_ble, hal_ble_gap_get_tx_power, int(int8_t*, void*))
DYNALIB_FN(18, hal_ble, hal_ble_gap_set_advertising_parameters, int(const hal_ble_adv_params_t*, void*))
DYNALIB_FN(19, hal_ble, hal_ble_gap_get_advertising_parameters, int(hal_ble_adv_params_t*, void*))
DYNALIB_FN(20, hal_ble, hal_ble_gap_set_advertising_data, int(const uint8_t*, size_t, void*))
   d8954:	b508      	push	{r3, lr}
   d8956:	4b02      	ldr	r3, [pc, #8]	; (d8960 <hal_ble_gap_set_advertising_data+0xc>)
   d8958:	681b      	ldr	r3, [r3, #0]
   d895a:	6d1b      	ldr	r3, [r3, #80]	; 0x50
   d895c:	9301      	str	r3, [sp, #4]
   d895e:	bd08      	pop	{r3, pc}
   d8960:	00030278 	.word	0x00030278

000d8964 <hal_ble_gap_set_scan_response_data>:
DYNALIB_FN(21, hal_ble, hal_ble_gap_get_advertising_data, ssize_t(uint8_t*, size_t, void*))
DYNALIB_FN(22, hal_ble, hal_ble_gap_set_scan_response_data, int(const uint8_t*, size_t, void*))
   d8964:	b508      	push	{r3, lr}
   d8966:	4b02      	ldr	r3, [pc, #8]	; (d8970 <hal_ble_gap_set_scan_response_data+0xc>)
   d8968:	681b      	ldr	r3, [r3, #0]
   d896a:	6d9b      	ldr	r3, [r3, #88]	; 0x58
   d896c:	9301      	str	r3, [sp, #4]
   d896e:	bd08      	pop	{r3, pc}
   d8970:	00030278 	.word	0x00030278

000d8974 <hal_ble_gap_start_advertising>:
DYNALIB_FN(23, hal_ble, hal_ble_gap_get_scan_response_data, ssize_t(uint8_t*, size_t, void*))
DYNALIB_FN(24, hal_ble, hal_ble_gap_start_advertising, int(void*))
   d8974:	b508      	push	{r3, lr}
   d8976:	4b02      	ldr	r3, [pc, #8]	; (d8980 <hal_ble_gap_start_advertising+0xc>)
   d8978:	681b      	ldr	r3, [r3, #0]
   d897a:	6e1b      	ldr	r3, [r3, #96]	; 0x60
   d897c:	9301      	str	r3, [sp, #4]
   d897e:	bd08      	pop	{r3, pc}
   d8980:	00030278 	.word	0x00030278

000d8984 <hal_ble_gap_disconnect>:
DYNALIB_FN(33, hal_ble, hal_ble_gap_stop_scan, int(void*))
DYNALIB_FN(34, hal_ble, hal_ble_gap_connect_deprecated, int(const hal_ble_addr_t*, void*))
DYNALIB_FN(35, hal_ble, hal_ble_gap_is_connecting, bool(const hal_ble_addr_t*, void*))
DYNALIB_FN(36, hal_ble, hal_ble_gap_is_connected, bool(const hal_ble_addr_t*, void*))
DYNALIB_FN(37, hal_ble, hal_ble_gap_connect_cancel, int(const hal_ble_addr_t*, void*))
DYNALIB_FN(38, hal_ble, hal_ble_gap_disconnect, int(hal_ble_conn_handle_t, void*))
   d8984:	b508      	push	{r3, lr}
   d8986:	4b03      	ldr	r3, [pc, #12]	; (d8994 <hal_ble_gap_disconnect+0x10>)
   d8988:	681b      	ldr	r3, [r3, #0]
   d898a:	f8d3 3098 	ldr.w	r3, [r3, #152]	; 0x98
   d898e:	9301      	str	r3, [sp, #4]
   d8990:	bd08      	pop	{r3, pc}
   d8992:	0000      	.short	0x0000
   d8994:	00030278 	.word	0x00030278

000d8998 <hal_ble_gatt_server_add_service>:
DYNALIB_FN(39, hal_ble, hal_ble_gap_update_connection_params, int(hal_ble_conn_handle_t, const hal_ble_conn_params_t*, void*))
DYNALIB_FN(40, hal_ble, hal_ble_gap_get_connection_params_deprecated, int(hal_ble_conn_handle_t, hal_ble_conn_params_t*, void*))
DYNALIB_FN(41, hal_ble, hal_ble_gap_get_rssi, int(hal_ble_conn_handle_t, void*))
DYNALIB_FN(42, hal_ble, hal_ble_gatt_server_add_service, int(uint8_t, const hal_ble_uuid_t*, hal_ble_attr_handle_t*, void*))
   d8998:	b508      	push	{r3, lr}
   d899a:	4b03      	ldr	r3, [pc, #12]	; (d89a8 <hal_ble_gatt_server_add_service+0x10>)
   d899c:	681b      	ldr	r3, [r3, #0]
   d899e:	f8d3 30a8 	ldr.w	r3, [r3, #168]	; 0xa8
   d89a2:	9301      	str	r3, [sp, #4]
   d89a4:	bd08      	pop	{r3, pc}
   d89a6:	0000      	.short	0x0000
   d89a8:	00030278 	.word	0x00030278

000d89ac <hal_ble_gatt_server_set_characteristic_value>:
DYNALIB_FN(43, hal_ble, hal_ble_gatt_server_add_characteristic_deprecated, int(const hal_ble_char_init_deprecated_t*, hal_ble_char_handles_t*, void*))
DYNALIB_FN(44, hal_ble, hal_ble_gatt_server_add_descriptor, int(const hal_ble_desc_init_t*, hal_ble_attr_handle_t*, void*))
DYNALIB_FN(45, hal_ble, hal_ble_gatt_server_set_characteristic_value, ssize_t(hal_ble_attr_handle_t, const uint8_t*, size_t, void*))
   d89ac:	b508      	push	{r3, lr}
   d89ae:	4b03      	ldr	r3, [pc, #12]	; (d89bc <hal_ble_gatt_server_set_characteristic_value+0x10>)
   d89b0:	681b      	ldr	r3, [r3, #0]
   d89b2:	f8d3 30b4 	ldr.w	r3, [r3, #180]	; 0xb4
   d89b6:	9301      	str	r3, [sp, #4]
   d89b8:	bd08      	pop	{r3, pc}
   d89ba:	0000      	.short	0x0000
   d89bc:	00030278 	.word	0x00030278

000d89c0 <hal_ble_gatt_client_write_with_response>:
DYNALIB_FN(49, hal_ble, hal_ble_gatt_client_discover_characteristics, int(hal_ble_conn_handle_t, const hal_ble_svc_t*, hal_ble_on_disc_char_cb_t, void*, void*))
DYNALIB_FN(50, hal_ble, hal_ble_gatt_client_discover_characteristics_by_uuid, int(hal_ble_conn_handle_t, const hal_ble_svc_t*, const hal_ble_uuid_t*, hal_ble_on_disc_char_cb_t, void*, void*))
DYNALIB_FN(51, hal_ble, hal_ble_gatt_client_is_discovering, bool(hal_ble_conn_handle_t, void*))
DYNALIB_FN(52, hal_ble, hal_ble_gatt_set_att_mtu, int(size_t, void*))
DYNALIB_FN(53, hal_ble, hal_ble_gatt_client_configure_cccd_deprecated, int(hal_ble_conn_handle_t, hal_ble_attr_handle_t, ble_sig_cccd_value_t, void*))
DYNALIB_FN(54, hal_ble, hal_ble_gatt_client_write_with_response, ssize_t(hal_ble_conn_handle_t, hal_ble_attr_handle_t, const uint8_t*, size_t, void*))
   d89c0:	b508      	push	{r3, lr}
   d89c2:	4b03      	ldr	r3, [pc, #12]	; (d89d0 <hal_ble_gatt_client_write_with_response+0x10>)
   d89c4:	681b      	ldr	r3, [r3, #0]
   d89c6:	f8d3 30d8 	ldr.w	r3, [r3, #216]	; 0xd8
   d89ca:	9301      	str	r3, [sp, #4]
   d89cc:	bd08      	pop	{r3, pc}
   d89ce:	0000      	.short	0x0000
   d89d0:	00030278 	.word	0x00030278

000d89d4 <hal_ble_gatt_client_write_without_response>:
DYNALIB_FN(55, hal_ble, hal_ble_gatt_client_write_without_response, ssize_t(hal_ble_conn_handle_t, hal_ble_attr_handle_t, const uint8_t*, size_t, void*))
   d89d4:	b508      	push	{r3, lr}
   d89d6:	4b03      	ldr	r3, [pc, #12]	; (d89e4 <hal_ble_gatt_client_write_without_response+0x10>)
   d89d8:	681b      	ldr	r3, [r3, #0]
   d89da:	f8d3 30dc 	ldr.w	r3, [r3, #220]	; 0xdc
   d89de:	9301      	str	r3, [sp, #4]
   d89e0:	bd08      	pop	{r3, pc}
   d89e2:	0000      	.short	0x0000
   d89e4:	00030278 	.word	0x00030278

000d89e8 <hal_ble_gatt_server_add_characteristic>:
DYNALIB_FN(56, hal_ble, hal_ble_gatt_client_read, ssize_t(hal_ble_conn_handle_t, hal_ble_attr_handle_t, uint8_t*, size_t, void*))

DYNALIB_FN(57, hal_ble, hal_ble_gap_connect, int(const hal_ble_conn_cfg_t*, hal_ble_conn_handle_t*, void*))
DYNALIB_FN(58, hal_ble, hal_ble_gap_get_connection_info, int(hal_ble_conn_handle_t, hal_ble_conn_info_t*, void*))
DYNALIB_FN(59, hal_ble, hal_ble_gatt_server_add_characteristic, int(const hal_ble_char_init_t*, hal_ble_char_handles_t*, void*))
   d89e8:	b508      	push	{r3, lr}
   d89ea:	4b03      	ldr	r3, [pc, #12]	; (d89f8 <hal_ble_gatt_server_add_characteristic+0x10>)
   d89ec:	681b      	ldr	r3, [r3, #0]
   d89ee:	f8d3 30ec 	ldr.w	r3, [r3, #236]	; 0xec
   d89f2:	9301      	str	r3, [sp, #4]
   d89f4:	bd08      	pop	{r3, pc}
   d89f6:	0000      	.short	0x0000
   d89f8:	00030278 	.word	0x00030278

000d89fc <hal_ble_set_callback_on_periph_link_events>:
DYNALIB_FN(60, hal_ble, hal_ble_set_callback_on_periph_link_events, int(hal_ble_on_link_evt_cb_t, void*, void*))
   d89fc:	b508      	push	{r3, lr}
   d89fe:	4b03      	ldr	r3, [pc, #12]	; (d8a0c <hal_ble_set_callback_on_periph_link_events+0x10>)
   d8a00:	681b      	ldr	r3, [r3, #0]
   d8a02:	f8d3 30f0 	ldr.w	r3, [r3, #240]	; 0xf0
   d8a06:	9301      	str	r3, [sp, #4]
   d8a08:	bd08      	pop	{r3, pc}
   d8a0a:	0000      	.short	0x0000
   d8a0c:	00030278 	.word	0x00030278

000d8a10 <hal_ble_gatt_server_notify_characteristic_value>:
DYNALIB_FN(61, hal_ble, hal_ble_gatt_client_configure_cccd, int(const hal_ble_cccd_config_t*, void*))
DYNALIB_FN(62, hal_ble, hal_ble_set_callback_on_adv_events, int(hal_ble_on_adv_evt_cb_t, void*, void*))
DYNALIB_FN(63, hal_ble, hal_ble_cancel_callback_on_adv_events, int(hal_ble_on_adv_evt_cb_t, void*, void*))
DYNALIB_FN(64, hal_ble, hal_ble_gatt_server_notify_characteristic_value, ssize_t(hal_ble_attr_handle_t, const uint8_t*, size_t, void*))
   d8a10:	b508      	push	{r3, lr}
   d8a12:	4b03      	ldr	r3, [pc, #12]	; (d8a20 <hal_ble_gatt_server_notify_characteristic_value+0x10>)
   d8a14:	681b      	ldr	r3, [r3, #0]
   d8a16:	f8d3 3100 	ldr.w	r3, [r3, #256]	; 0x100
   d8a1a:	9301      	str	r3, [sp, #4]
   d8a1c:	bd08      	pop	{r3, pc}
   d8a1e:	0000      	.short	0x0000
   d8a20:	00030278 	.word	0x00030278

000d8a24 <hal_ble_gatt_server_indicate_characteristic_value>:
DYNALIB_FN(65, hal_ble, hal_ble_gatt_server_indicate_characteristic_value, ssize_t(hal_ble_attr_handle_t, const uint8_t*, size_t, void*))
   d8a24:	b508      	push	{r3, lr}
   d8a26:	4b03      	ldr	r3, [pc, #12]	; (d8a34 <hal_ble_gatt_server_indicate_characteristic_value+0x10>)
   d8a28:	681b      	ldr	r3, [r3, #0]
   d8a2a:	f8d3 3104 	ldr.w	r3, [r3, #260]	; 0x104
   d8a2e:	9301      	str	r3, [sp, #4]
   d8a30:	bd08      	pop	{r3, pc}
   d8a32:	0000      	.short	0x0000
   d8a34:	00030278 	.word	0x00030278

000d8a38 <os_mutex_recursive_create>:
DYNALIB_FN(13, hal_concurrent, os_mutex_destroy, int(os_mutex_t))
DYNALIB_FN(14, hal_concurrent, os_mutex_lock, int(os_mutex_t))
DYNALIB_FN(15, hal_concurrent, os_mutex_trylock, int(os_mutex_t))
DYNALIB_FN(16, hal_concurrent, os_mutex_unlock, int(os_mutex_t))

DYNALIB_FN(17, hal_concurrent, os_mutex_recursive_create, int(os_mutex_recursive_t*))
   d8a38:	b508      	push	{r3, lr}
   d8a3a:	4b02      	ldr	r3, [pc, #8]	; (d8a44 <os_mutex_recursive_create+0xc>)
   d8a3c:	681b      	ldr	r3, [r3, #0]
   d8a3e:	6c5b      	ldr	r3, [r3, #68]	; 0x44
   d8a40:	9301      	str	r3, [sp, #4]
   d8a42:	bd08      	pop	{r3, pc}
   d8a44:	00030248 	.word	0x00030248

000d8a48 <os_mutex_recursive_destroy>:
DYNALIB_FN(18, hal_concurrent, os_mutex_recursive_destroy, int(os_mutex_recursive_t))
   d8a48:	b508      	push	{r3, lr}
   d8a4a:	4b02      	ldr	r3, [pc, #8]	; (d8a54 <os_mutex_recursive_destroy+0xc>)
   d8a4c:	681b      	ldr	r3, [r3, #0]
   d8a4e:	6c9b      	ldr	r3, [r3, #72]	; 0x48
   d8a50:	9301      	str	r3, [sp, #4]
   d8a52:	bd08      	pop	{r3, pc}
   d8a54:	00030248 	.word	0x00030248

000d8a58 <os_mutex_recursive_lock>:
DYNALIB_FN(19, hal_concurrent, os_mutex_recursive_lock, int(os_mutex_recursive_t))
   d8a58:	b508      	push	{r3, lr}
   d8a5a:	4b02      	ldr	r3, [pc, #8]	; (d8a64 <os_mutex_recursive_lock+0xc>)
   d8a5c:	681b      	ldr	r3, [r3, #0]
   d8a5e:	6cdb      	ldr	r3, [r3, #76]	; 0x4c
   d8a60:	9301      	str	r3, [sp, #4]
   d8a62:	bd08      	pop	{r3, pc}
   d8a64:	00030248 	.word	0x00030248

000d8a68 <os_mutex_recursive_unlock>:
DYNALIB_FN(20, hal_concurrent, os_mutex_recursive_trylock, int(os_mutex_recursive_t))
DYNALIB_FN(21, hal_concurrent, os_mutex_recursive_unlock, int(os_mutex_recursive_t))
   d8a68:	b508      	push	{r3, lr}
   d8a6a:	4b02      	ldr	r3, [pc, #8]	; (d8a74 <os_mutex_recursive_unlock+0xc>)
   d8a6c:	681b      	ldr	r3, [r3, #0]
   d8a6e:	6d5b      	ldr	r3, [r3, #84]	; 0x54
   d8a70:	9301      	str	r3, [sp, #4]
   d8a72:	bd08      	pop	{r3, pc}
   d8a74:	00030248 	.word	0x00030248

000d8a78 <inet_inet_ntop>:
DYNALIB_FN(0, hal_inet, inet_inet_addr, in_addr_t(const char*))
DYNALIB_FN(1, hal_inet, inet_inet_aton, int(const char*, struct in_addr*))
DYNALIB_FN(2, hal_inet, inet_inet_network, in_addr_t(const char*))
DYNALIB_FN(3, hal_inet, inet_inet_ntoa, char*(struct in_addr))
DYNALIB_FN(4, hal_inet, inet_inet_ntoa_r, char*(struct in_addr, char*, socklen_t))
DYNALIB_FN(5, hal_inet, inet_inet_ntop, const char*(int, const void*, char*, socklen_t))
   d8a78:	b508      	push	{r3, lr}
   d8a7a:	4b02      	ldr	r3, [pc, #8]	; (d8a84 <inet_inet_ntop+0xc>)
   d8a7c:	681b      	ldr	r3, [r3, #0]
   d8a7e:	695b      	ldr	r3, [r3, #20]
   d8a80:	9301      	str	r3, [sp, #4]
   d8a82:	bd08      	pop	{r3, pc}
   d8a84:	00030264 	.word	0x00030264

000d8a88 <hal_usart_init>:
#define BASE_IDX 6 // Base index for all subsequent functions
#else
#define BASE_IDX 0
#endif

DYNALIB_FN(BASE_IDX + 0, hal_usart, hal_usart_init, void(hal_usart_interface_t, hal_usart_ring_buffer_t*, hal_usart_ring_buffer_t*))
   d8a88:	b508      	push	{r3, lr}
   d8a8a:	4b02      	ldr	r3, [pc, #8]	; (d8a94 <hal_usart_init+0xc>)
   d8a8c:	681b      	ldr	r3, [r3, #0]
   d8a8e:	681b      	ldr	r3, [r3, #0]
   d8a90:	9301      	str	r3, [sp, #4]
   d8a92:	bd08      	pop	{r3, pc}
   d8a94:	0003023c 	.word	0x0003023c

000d8a98 <hal_usart_write>:
DYNALIB_FN(BASE_IDX + 1, hal_usart, hal_usart_begin, void(hal_usart_interface_t, uint32_t))
DYNALIB_FN(BASE_IDX + 2, hal_usart, hal_usart_end, void(hal_usart_interface_t))
DYNALIB_FN(BASE_IDX + 3, hal_usart, hal_usart_write, uint32_t(hal_usart_interface_t, uint8_t))
   d8a98:	b508      	push	{r3, lr}
   d8a9a:	4b02      	ldr	r3, [pc, #8]	; (d8aa4 <hal_usart_write+0xc>)
   d8a9c:	681b      	ldr	r3, [r3, #0]
   d8a9e:	68db      	ldr	r3, [r3, #12]
   d8aa0:	9301      	str	r3, [sp, #4]
   d8aa2:	bd08      	pop	{r3, pc}
   d8aa4:	0003023c 	.word	0x0003023c

000d8aa8 <hal_usart_available>:
DYNALIB_FN(BASE_IDX + 4, hal_usart, hal_usart_available, int32_t(hal_usart_interface_t))
   d8aa8:	b508      	push	{r3, lr}
   d8aaa:	4b02      	ldr	r3, [pc, #8]	; (d8ab4 <hal_usart_available+0xc>)
   d8aac:	681b      	ldr	r3, [r3, #0]
   d8aae:	691b      	ldr	r3, [r3, #16]
   d8ab0:	9301      	str	r3, [sp, #4]
   d8ab2:	bd08      	pop	{r3, pc}
   d8ab4:	0003023c 	.word	0x0003023c

000d8ab8 <hal_usart_read>:
DYNALIB_FN(BASE_IDX + 5, hal_usart, hal_usart_read, int32_t(hal_usart_interface_t))
   d8ab8:	b508      	push	{r3, lr}
   d8aba:	4b02      	ldr	r3, [pc, #8]	; (d8ac4 <hal_usart_read+0xc>)
   d8abc:	681b      	ldr	r3, [r3, #0]
   d8abe:	695b      	ldr	r3, [r3, #20]
   d8ac0:	9301      	str	r3, [sp, #4]
   d8ac2:	bd08      	pop	{r3, pc}
   d8ac4:	0003023c 	.word	0x0003023c

000d8ac8 <hal_usart_peek>:
DYNALIB_FN(BASE_IDX + 6, hal_usart, hal_usart_peek, int32_t(hal_usart_interface_t))
   d8ac8:	b508      	push	{r3, lr}
   d8aca:	4b02      	ldr	r3, [pc, #8]	; (d8ad4 <hal_usart_peek+0xc>)
   d8acc:	681b      	ldr	r3, [r3, #0]
   d8ace:	699b      	ldr	r3, [r3, #24]
   d8ad0:	9301      	str	r3, [sp, #4]
   d8ad2:	bd08      	pop	{r3, pc}
   d8ad4:	0003023c 	.word	0x0003023c

000d8ad8 <hal_usart_flush>:
DYNALIB_FN(BASE_IDX + 7, hal_usart, hal_usart_flush, void(hal_usart_interface_t))
   d8ad8:	b508      	push	{r3, lr}
   d8ada:	4b02      	ldr	r3, [pc, #8]	; (d8ae4 <hal_usart_flush+0xc>)
   d8adc:	681b      	ldr	r3, [r3, #0]
   d8ade:	69db      	ldr	r3, [r3, #28]
   d8ae0:	9301      	str	r3, [sp, #4]
   d8ae2:	bd08      	pop	{r3, pc}
   d8ae4:	0003023c 	.word	0x0003023c

000d8ae8 <hal_usart_is_enabled>:
DYNALIB_FN(BASE_IDX + 8, hal_usart, hal_usart_is_enabled, bool(hal_usart_interface_t))
   d8ae8:	b508      	push	{r3, lr}
   d8aea:	4b02      	ldr	r3, [pc, #8]	; (d8af4 <hal_usart_is_enabled+0xc>)
   d8aec:	681b      	ldr	r3, [r3, #0]
   d8aee:	6a1b      	ldr	r3, [r3, #32]
   d8af0:	9301      	str	r3, [sp, #4]
   d8af2:	bd08      	pop	{r3, pc}
   d8af4:	0003023c 	.word	0x0003023c

000d8af8 <hal_usart_available_data_for_write>:
DYNALIB_FN(BASE_IDX + 9, hal_usart, hal_usart_half_duplex, void(hal_usart_interface_t, bool))
DYNALIB_FN(BASE_IDX + 10, hal_usart, hal_usart_available_data_for_write, int32_t(hal_usart_interface_t))
   d8af8:	b508      	push	{r3, lr}
   d8afa:	4b02      	ldr	r3, [pc, #8]	; (d8b04 <hal_usart_available_data_for_write+0xc>)
   d8afc:	681b      	ldr	r3, [r3, #0]
   d8afe:	6a9b      	ldr	r3, [r3, #40]	; 0x28
   d8b00:	9301      	str	r3, [sp, #4]
   d8b02:	bd08      	pop	{r3, pc}
   d8b04:	0003023c 	.word	0x0003023c

000d8b08 <hal_i2c_begin>:
#endif

DYNALIB_FN(BASE_IDX + 0, hal_i2c, hal_i2c_set_speed, void(hal_i2c_interface_t, uint32_t, void*))
DYNALIB_FN(BASE_IDX + 1, hal_i2c, hal_i2c_enable_dma_mode, void(hal_i2c_interface_t, bool, void*))
DYNALIB_FN(BASE_IDX + 2, hal_i2c, hal_i2c_stretch_clock, void(hal_i2c_interface_t, bool, void*))
DYNALIB_FN(BASE_IDX + 3, hal_i2c, hal_i2c_begin, void(hal_i2c_interface_t, hal_i2c_mode_t, uint8_t, void*))
   d8b08:	b508      	push	{r3, lr}
   d8b0a:	4b02      	ldr	r3, [pc, #8]	; (d8b14 <hal_i2c_begin+0xc>)
   d8b0c:	681b      	ldr	r3, [r3, #0]
   d8b0e:	68db      	ldr	r3, [r3, #12]
   d8b10:	9301      	str	r3, [sp, #4]
   d8b12:	bd08      	pop	{r3, pc}
   d8b14:	00030228 	.word	0x00030228

000d8b18 <hal_i2c_begin_transmission>:
DYNALIB_FN(BASE_IDX + 4, hal_i2c, hal_i2c_end, void(hal_i2c_interface_t, void*))
DYNALIB_FN(BASE_IDX + 5, hal_i2c, hal_i2c_request, uint32_t(hal_i2c_interface_t, uint8_t, uint8_t, uint8_t, void*))
DYNALIB_FN(BASE_IDX + 6, hal_i2c, hal_i2c_begin_transmission, void(hal_i2c_interface_t, uint8_t, const hal_i2c_transmission_config_t*))
   d8b18:	b508      	push	{r3, lr}
   d8b1a:	4b02      	ldr	r3, [pc, #8]	; (d8b24 <hal_i2c_begin_transmission+0xc>)
   d8b1c:	681b      	ldr	r3, [r3, #0]
   d8b1e:	699b      	ldr	r3, [r3, #24]
   d8b20:	9301      	str	r3, [sp, #4]
   d8b22:	bd08      	pop	{r3, pc}
   d8b24:	00030228 	.word	0x00030228

000d8b28 <hal_i2c_end_transmission>:
DYNALIB_FN(BASE_IDX + 7, hal_i2c, hal_i2c_end_transmission, uint8_t(hal_i2c_interface_t, uint8_t, void*))
   d8b28:	b508      	push	{r3, lr}
   d8b2a:	4b02      	ldr	r3, [pc, #8]	; (d8b34 <hal_i2c_end_transmission+0xc>)
   d8b2c:	681b      	ldr	r3, [r3, #0]
   d8b2e:	69db      	ldr	r3, [r3, #28]
   d8b30:	9301      	str	r3, [sp, #4]
   d8b32:	bd08      	pop	{r3, pc}
   d8b34:	00030228 	.word	0x00030228

000d8b38 <hal_i2c_write>:
DYNALIB_FN(BASE_IDX + 8, hal_i2c, hal_i2c_write, uint32_t(hal_i2c_interface_t, uint8_t, void*))
   d8b38:	b508      	push	{r3, lr}
   d8b3a:	4b02      	ldr	r3, [pc, #8]	; (d8b44 <hal_i2c_write+0xc>)
   d8b3c:	681b      	ldr	r3, [r3, #0]
   d8b3e:	6a1b      	ldr	r3, [r3, #32]
   d8b40:	9301      	str	r3, [sp, #4]
   d8b42:	bd08      	pop	{r3, pc}
   d8b44:	00030228 	.word	0x00030228

000d8b48 <hal_i2c_available>:
DYNALIB_FN(BASE_IDX + 9, hal_i2c, hal_i2c_available, int32_t(hal_i2c_interface_t, void*))
   d8b48:	b508      	push	{r3, lr}
   d8b4a:	4b02      	ldr	r3, [pc, #8]	; (d8b54 <hal_i2c_available+0xc>)
   d8b4c:	681b      	ldr	r3, [r3, #0]
   d8b4e:	6a5b      	ldr	r3, [r3, #36]	; 0x24
   d8b50:	9301      	str	r3, [sp, #4]
   d8b52:	bd08      	pop	{r3, pc}
   d8b54:	00030228 	.word	0x00030228

000d8b58 <hal_i2c_read>:
DYNALIB_FN(BASE_IDX + 10, hal_i2c, hal_i2c_read, int32_t(hal_i2c_interface_t, void*))
   d8b58:	b508      	push	{r3, lr}
   d8b5a:	4b02      	ldr	r3, [pc, #8]	; (d8b64 <hal_i2c_read+0xc>)
   d8b5c:	681b      	ldr	r3, [r3, #0]
   d8b5e:	6a9b      	ldr	r3, [r3, #40]	; 0x28
   d8b60:	9301      	str	r3, [sp, #4]
   d8b62:	bd08      	pop	{r3, pc}
   d8b64:	00030228 	.word	0x00030228

000d8b68 <hal_i2c_peek>:
DYNALIB_FN(BASE_IDX + 11, hal_i2c, hal_i2c_peek, int32_t(hal_i2c_interface_t, void*))
   d8b68:	b508      	push	{r3, lr}
   d8b6a:	4b02      	ldr	r3, [pc, #8]	; (d8b74 <hal_i2c_peek+0xc>)
   d8b6c:	681b      	ldr	r3, [r3, #0]
   d8b6e:	6adb      	ldr	r3, [r3, #44]	; 0x2c
   d8b70:	9301      	str	r3, [sp, #4]
   d8b72:	bd08      	pop	{r3, pc}
   d8b74:	00030228 	.word	0x00030228

000d8b78 <hal_i2c_flush>:
DYNALIB_FN(BASE_IDX + 12, hal_i2c, hal_i2c_flush, void(hal_i2c_interface_t, void*))
   d8b78:	b508      	push	{r3, lr}
   d8b7a:	4b02      	ldr	r3, [pc, #8]	; (d8b84 <hal_i2c_flush+0xc>)
   d8b7c:	681b      	ldr	r3, [r3, #0]
   d8b7e:	6b1b      	ldr	r3, [r3, #48]	; 0x30
   d8b80:	9301      	str	r3, [sp, #4]
   d8b82:	bd08      	pop	{r3, pc}
   d8b84:	00030228 	.word	0x00030228

000d8b88 <hal_i2c_is_enabled>:
DYNALIB_FN(BASE_IDX + 13, hal_i2c, hal_i2c_is_enabled, bool(hal_i2c_interface_t, void*))
   d8b88:	b508      	push	{r3, lr}
   d8b8a:	4b02      	ldr	r3, [pc, #8]	; (d8b94 <hal_i2c_is_enabled+0xc>)
   d8b8c:	681b      	ldr	r3, [r3, #0]
   d8b8e:	6b5b      	ldr	r3, [r3, #52]	; 0x34
   d8b90:	9301      	str	r3, [sp, #4]
   d8b92:	bd08      	pop	{r3, pc}
   d8b94:	00030228 	.word	0x00030228

000d8b98 <hal_i2c_init>:
DYNALIB_FN(BASE_IDX + 14, hal_i2c, hal_i2c_set_callback_on_received, void(hal_i2c_interface_t, void(*)(int), void*))
DYNALIB_FN(BASE_IDX + 15, hal_i2c, hal_i2c_set_callback_on_requested, void(hal_i2c_interface_t, void(*)(void), void*))
DYNALIB_FN(BASE_IDX + 16, hal_i2c, hal_i2c_init, int(hal_i2c_interface_t, const hal_i2c_config_t*))
   d8b98:	b508      	push	{r3, lr}
   d8b9a:	4b02      	ldr	r3, [pc, #8]	; (d8ba4 <hal_i2c_init+0xc>)
   d8b9c:	681b      	ldr	r3, [r3, #0]
   d8b9e:	6c1b      	ldr	r3, [r3, #64]	; 0x40
   d8ba0:	9301      	str	r3, [sp, #4]
   d8ba2:	bd08      	pop	{r3, pc}
   d8ba4:	00030228 	.word	0x00030228

000d8ba8 <hal_i2c_lock>:
DYNALIB_FN(BASE_IDX + 17, hal_i2c, hal_i2c_reset, uint8_t(hal_i2c_interface_t, uint32_t, void*))
DYNALIB_FN(BASE_IDX + 18, hal_i2c, hal_i2c_lock, int32_t(hal_i2c_interface_t, void*))
   d8ba8:	b508      	push	{r3, lr}
   d8baa:	4b02      	ldr	r3, [pc, #8]	; (d8bb4 <hal_i2c_lock+0xc>)
   d8bac:	681b      	ldr	r3, [r3, #0]
   d8bae:	6c9b      	ldr	r3, [r3, #72]	; 0x48
   d8bb0:	9301      	str	r3, [sp, #4]
   d8bb2:	bd08      	pop	{r3, pc}
   d8bb4:	00030228 	.word	0x00030228

000d8bb8 <hal_i2c_unlock>:
DYNALIB_FN(BASE_IDX + 19, hal_i2c, hal_i2c_unlock, int32_t(hal_i2c_interface_t, void*))
   d8bb8:	b508      	push	{r3, lr}
   d8bba:	4b02      	ldr	r3, [pc, #8]	; (d8bc4 <hal_i2c_unlock+0xc>)
   d8bbc:	681b      	ldr	r3, [r3, #0]
   d8bbe:	6cdb      	ldr	r3, [r3, #76]	; 0x4c
   d8bc0:	9301      	str	r3, [sp, #4]
   d8bc2:	bd08      	pop	{r3, pc}
   d8bc4:	00030228 	.word	0x00030228

000d8bc8 <hal_i2c_request_ex>:
DYNALIB_FN(BASE_IDX + 20, hal_i2c, hal_i2c_request_ex, int32_t(hal_i2c_interface_t, const hal_i2c_transmission_config_t*, void*))
   d8bc8:	b508      	push	{r3, lr}
   d8bca:	4b02      	ldr	r3, [pc, #8]	; (d8bd4 <hal_i2c_request_ex+0xc>)
   d8bcc:	681b      	ldr	r3, [r3, #0]
   d8bce:	6d1b      	ldr	r3, [r3, #80]	; 0x50
   d8bd0:	9301      	str	r3, [sp, #4]
   d8bd2:	bd08      	pop	{r3, pc}
   d8bd4:	00030228 	.word	0x00030228

000d8bd8 <hal_spi_begin>:
// New HAL functions must be added to the end of this list.
// GNINRAW

DYNALIB_BEGIN(hal_spi)

DYNALIB_FN(0, hal_spi, hal_spi_begin, void(hal_spi_interface_t, uint16_t))
   d8bd8:	b508      	push	{r3, lr}
   d8bda:	4b02      	ldr	r3, [pc, #8]	; (d8be4 <hal_spi_begin+0xc>)
   d8bdc:	681b      	ldr	r3, [r3, #0]
   d8bde:	681b      	ldr	r3, [r3, #0]
   d8be0:	9301      	str	r3, [sp, #4]
   d8be2:	bd08      	pop	{r3, pc}
   d8be4:	00030230 	.word	0x00030230

000d8be8 <hal_spi_transfer>:
DYNALIB_FN(1, hal_spi, hal_spi_end, void(hal_spi_interface_t))
DYNALIB_FN(2, hal_spi, hal_spi_set_bit_order, void(hal_spi_interface_t, uint8_t))
DYNALIB_FN(3, hal_spi, hal_spi_set_data_mode, void(hal_spi_interface_t, uint8_t))
DYNALIB_FN(4, hal_spi, hal_spi_set_clock_divider, void(hal_spi_interface_t, uint8_t))
DYNALIB_FN(5, hal_spi, hal_spi_transfer, uint16_t(hal_spi_interface_t, uint16_t))
   d8be8:	b508      	push	{r3, lr}
   d8bea:	4b02      	ldr	r3, [pc, #8]	; (d8bf4 <hal_spi_transfer+0xc>)
   d8bec:	681b      	ldr	r3, [r3, #0]
   d8bee:	695b      	ldr	r3, [r3, #20]
   d8bf0:	9301      	str	r3, [sp, #4]
   d8bf2:	bd08      	pop	{r3, pc}
   d8bf4:	00030230 	.word	0x00030230

000d8bf8 <hal_spi_init>:
DYNALIB_FN(6, hal_spi, hal_spi_is_enabled_deprecated, bool(void))
DYNALIB_FN(7, hal_spi, hal_spi_init, void(hal_spi_interface_t))
   d8bf8:	b508      	push	{r3, lr}
   d8bfa:	4b02      	ldr	r3, [pc, #8]	; (d8c04 <hal_spi_init+0xc>)
   d8bfc:	681b      	ldr	r3, [r3, #0]
   d8bfe:	69db      	ldr	r3, [r3, #28]
   d8c00:	9301      	str	r3, [sp, #4]
   d8c02:	bd08      	pop	{r3, pc}
   d8c04:	00030230 	.word	0x00030230

000d8c08 <hal_spi_is_enabled>:
DYNALIB_FN(8, hal_spi, hal_spi_is_enabled, bool(hal_spi_interface_t))
   d8c08:	b508      	push	{r3, lr}
   d8c0a:	4b02      	ldr	r3, [pc, #8]	; (d8c14 <hal_spi_is_enabled+0xc>)
   d8c0c:	681b      	ldr	r3, [r3, #0]
   d8c0e:	6a1b      	ldr	r3, [r3, #32]
   d8c10:	9301      	str	r3, [sp, #4]
   d8c12:	bd08      	pop	{r3, pc}
   d8c14:	00030230 	.word	0x00030230

000d8c18 <hal_spi_info>:
DYNALIB_FN(9, hal_spi, hal_spi_info, void(hal_spi_interface_t, hal_spi_info_t*, void*))
   d8c18:	b508      	push	{r3, lr}
   d8c1a:	4b02      	ldr	r3, [pc, #8]	; (d8c24 <hal_spi_info+0xc>)
   d8c1c:	681b      	ldr	r3, [r3, #0]
   d8c1e:	6a5b      	ldr	r3, [r3, #36]	; 0x24
   d8c20:	9301      	str	r3, [sp, #4]
   d8c22:	bd08      	pop	{r3, pc}
   d8c24:	00030230 	.word	0x00030230

000d8c28 <hal_spi_transfer_dma>:
DYNALIB_FN(10, hal_spi, hal_spi_transfer_dma, void(hal_spi_interface_t, const void*, void*, uint32_t, hal_spi_dma_user_callback))
   d8c28:	b508      	push	{r3, lr}
   d8c2a:	4b02      	ldr	r3, [pc, #8]	; (d8c34 <hal_spi_transfer_dma+0xc>)
   d8c2c:	681b      	ldr	r3, [r3, #0]
   d8c2e:	6a9b      	ldr	r3, [r3, #40]	; 0x28
   d8c30:	9301      	str	r3, [sp, #4]
   d8c32:	bd08      	pop	{r3, pc}
   d8c34:	00030230 	.word	0x00030230

000d8c38 <hal_spi_transfer_dma_status>:
DYNALIB_FN(11, hal_spi, hal_spi_begin_ext, void(hal_spi_interface_t, hal_spi_mode_t, uint16_t, void*))
DYNALIB_FN(12, hal_spi, hal_spi_set_callback_on_selected, void(hal_spi_interface_t, hal_spi_select_user_callback, void*))
DYNALIB_FN(13, hal_spi, hal_spi_transfer_dma_cancel, void(hal_spi_interface_t))
DYNALIB_FN(14, hal_spi, hal_spi_transfer_dma_status, int32_t(hal_spi_interface_t, hal_spi_transfer_status_t*))
   d8c38:	b508      	push	{r3, lr}
   d8c3a:	4b02      	ldr	r3, [pc, #8]	; (d8c44 <hal_spi_transfer_dma_status+0xc>)
   d8c3c:	681b      	ldr	r3, [r3, #0]
   d8c3e:	6b9b      	ldr	r3, [r3, #56]	; 0x38
   d8c40:	9301      	str	r3, [sp, #4]
   d8c42:	bd08      	pop	{r3, pc}
   d8c44:	00030230 	.word	0x00030230

000d8c48 <hal_spi_set_settings>:
DYNALIB_FN(15, hal_spi, hal_spi_set_settings, int32_t(hal_spi_interface_t, uint8_t, uint8_t, uint8_t, uint8_t, void*))
   d8c48:	b508      	push	{r3, lr}
   d8c4a:	4b02      	ldr	r3, [pc, #8]	; (d8c54 <hal_spi_set_settings+0xc>)
   d8c4c:	681b      	ldr	r3, [r3, #0]
   d8c4e:	6bdb      	ldr	r3, [r3, #60]	; 0x3c
   d8c50:	9301      	str	r3, [sp, #4]
   d8c52:	bd08      	pop	{r3, pc}
   d8c54:	00030230 	.word	0x00030230

000d8c58 <hal_spi_acquire>:
#if HAL_PLATFORM_SPI_HAL_THREAD_SAFETY
DYNALIB_FN(16, hal_spi, hal_spi_acquire, int32_t(hal_spi_interface_t, const hal_spi_acquire_config_t*))
   d8c58:	b508      	push	{r3, lr}
   d8c5a:	4b02      	ldr	r3, [pc, #8]	; (d8c64 <hal_spi_acquire+0xc>)
   d8c5c:	681b      	ldr	r3, [r3, #0]
   d8c5e:	6c1b      	ldr	r3, [r3, #64]	; 0x40
   d8c60:	9301      	str	r3, [sp, #4]
   d8c62:	bd08      	pop	{r3, pc}
   d8c64:	00030230 	.word	0x00030230

000d8c68 <hal_spi_release>:
DYNALIB_FN(17, hal_spi, hal_spi_release, int32_t(hal_spi_interface_t, void*))
   d8c68:	b508      	push	{r3, lr}
   d8c6a:	4b02      	ldr	r3, [pc, #8]	; (d8c74 <hal_spi_release+0xc>)
   d8c6c:	681b      	ldr	r3, [r3, #0]
   d8c6e:	6c5b      	ldr	r3, [r3, #68]	; 0x44
   d8c70:	9301      	str	r3, [sp, #4]
   d8c72:	bd08      	pop	{r3, pc}
   d8c74:	00030230 	.word	0x00030230

000d8c78 <cellular_signal>:
DYNALIB_FN(12, hal_cellular, cellular_sim_ready, bool(void*))
DYNALIB_FN(13, hal_cellular, cellular_cancel, void(bool, bool, void*))
DYNALIB_FN(14, hal_cellular, HAL_NET_SetNetWatchDog, uint32_t(uint32_t))
DYNALIB_FN(15, hal_cellular, inet_gethostbyname, int(const char*, uint16_t, HAL_IPAddress*, network_interface_t, void*))
DYNALIB_FN(16, hal_cellular, inet_ping, int(const HAL_IPAddress*, network_interface_t, uint8_t, void*))
DYNALIB_FN(17, hal_cellular, cellular_signal, cellular_result_t(void*, cellular_signal_t*))
   d8c78:	b508      	push	{r3, lr}
   d8c7a:	4b02      	ldr	r3, [pc, #8]	; (d8c84 <cellular_signal+0xc>)
   d8c7c:	681b      	ldr	r3, [r3, #0]
   d8c7e:	6c5b      	ldr	r3, [r3, #68]	; 0x44
   d8c80:	9301      	str	r3, [sp, #4]
   d8c82:	bd08      	pop	{r3, pc}
   d8c84:	00030274 	.word	0x00030274

000d8c88 <cellular_set_active_sim>:
#if !HAL_PLATFORM_NCP
DYNALIB_FN(34, hal_cellular, cellular_connect, cellular_result_t(void*))
DYNALIB_FN(35, hal_cellular, cellular_disconnect, cellular_result_t(void*))
#define BASE_CELL_IDX 36 // Base index for all subsequent functions
#else // HAL_PLATFORM_NCP
DYNALIB_FN(34, hal_cellular, cellular_set_active_sim, cellular_result_t(int, void*))
   d8c88:	b508      	push	{r3, lr}
   d8c8a:	4b03      	ldr	r3, [pc, #12]	; (d8c98 <cellular_set_active_sim+0x10>)
   d8c8c:	681b      	ldr	r3, [r3, #0]
   d8c8e:	f8d3 3088 	ldr.w	r3, [r3, #136]	; 0x88
   d8c92:	9301      	str	r3, [sp, #4]
   d8c94:	bd08      	pop	{r3, pc}
   d8c96:	0000      	.short	0x0000
   d8c98:	00030274 	.word	0x00030274

000d8c9c <cellular_credentials_clear>:
DYNALIB_FN(35, hal_cellular, cellular_get_active_sim, cellular_result_t(int*, void*))
DYNALIB_FN(36, hal_cellular, cellular_credentials_clear, int(void*))
   d8c9c:	b508      	push	{r3, lr}
   d8c9e:	4b03      	ldr	r3, [pc, #12]	; (d8cac <cellular_credentials_clear+0x10>)
   d8ca0:	681b      	ldr	r3, [r3, #0]
   d8ca2:	f8d3 3090 	ldr.w	r3, [r3, #144]	; 0x90
   d8ca6:	9301      	str	r3, [sp, #4]
   d8ca8:	bd08      	pop	{r3, pc}
   d8caa:	0000      	.short	0x0000
   d8cac:	00030274 	.word	0x00030274

000d8cb0 <dct_write_app_data>:

DYNALIB_BEGIN(hal_dct)

#if HAL_PLATFORM_DCT_NO_DEPRECATED
DYNALIB_FN(0, hal_dct, dct_read_app_data_copy, int(uint32_t, void*, size_t))
DYNALIB_FN(1, hal_dct, dct_write_app_data, int(const void*, uint32_t, uint32_t))
   d8cb0:	b508      	push	{r3, lr}
   d8cb2:	4b02      	ldr	r3, [pc, #8]	; (d8cbc <dct_write_app_data+0xc>)
   d8cb4:	681b      	ldr	r3, [r3, #0]
   d8cb6:	685b      	ldr	r3, [r3, #4]
   d8cb8:	9301      	str	r3, [sp, #4]
   d8cba:	bd08      	pop	{r3, pc}
   d8cbc:	00030258 	.word	0x00030258

000d8cc0 <HAL_USB_USART_Init>:
#endif

DYNALIB_BEGIN(hal_usb)

#ifdef USB_CDC_ENABLE
DYNALIB_FN(0, hal_usb, HAL_USB_USART_Init, void(HAL_USB_USART_Serial, const HAL_USB_USART_Config*))
   d8cc0:	b508      	push	{r3, lr}
   d8cc2:	4b02      	ldr	r3, [pc, #8]	; (d8ccc <HAL_USB_USART_Init+0xc>)
   d8cc4:	681b      	ldr	r3, [r3, #0]
   d8cc6:	681b      	ldr	r3, [r3, #0]
   d8cc8:	9301      	str	r3, [sp, #4]
   d8cca:	bd08      	pop	{r3, pc}
   d8ccc:	0003024c 	.word	0x0003024c

000d8cd0 <HAL_USB_USART_Available_Data>:
DYNALIB_FN(1, hal_usb, HAL_USB_USART_Begin, void(HAL_USB_USART_Serial, uint32_t, void *))
DYNALIB_FN(2, hal_usb, HAL_USB_USART_End, void(HAL_USB_USART_Serial))
DYNALIB_FN(3, hal_usb, HAL_USB_USART_Baud_Rate, unsigned int(HAL_USB_USART_Serial))
DYNALIB_FN(4, hal_usb, HAL_USB_USART_Available_Data, int32_t(HAL_USB_USART_Serial))
   d8cd0:	b508      	push	{r3, lr}
   d8cd2:	4b02      	ldr	r3, [pc, #8]	; (d8cdc <HAL_USB_USART_Available_Data+0xc>)
   d8cd4:	681b      	ldr	r3, [r3, #0]
   d8cd6:	691b      	ldr	r3, [r3, #16]
   d8cd8:	9301      	str	r3, [sp, #4]
   d8cda:	bd08      	pop	{r3, pc}
   d8cdc:	0003024c 	.word	0x0003024c

000d8ce0 <HAL_USB_USART_Available_Data_For_Write>:
DYNALIB_FN(5, hal_usb, HAL_USB_USART_Available_Data_For_Write, int32_t(HAL_USB_USART_Serial))
   d8ce0:	b508      	push	{r3, lr}
   d8ce2:	4b02      	ldr	r3, [pc, #8]	; (d8cec <HAL_USB_USART_Available_Data_For_Write+0xc>)
   d8ce4:	681b      	ldr	r3, [r3, #0]
   d8ce6:	695b      	ldr	r3, [r3, #20]
   d8ce8:	9301      	str	r3, [sp, #4]
   d8cea:	bd08      	pop	{r3, pc}
   d8cec:	0003024c 	.word	0x0003024c

000d8cf0 <HAL_USB_USART_Receive_Data>:
DYNALIB_FN(6, hal_usb, HAL_USB_USART_Receive_Data, int32_t(HAL_USB_USART_Serial, uint8_t))
   d8cf0:	b508      	push	{r3, lr}
   d8cf2:	4b02      	ldr	r3, [pc, #8]	; (d8cfc <HAL_USB_USART_Receive_Data+0xc>)
   d8cf4:	681b      	ldr	r3, [r3, #0]
   d8cf6:	699b      	ldr	r3, [r3, #24]
   d8cf8:	9301      	str	r3, [sp, #4]
   d8cfa:	bd08      	pop	{r3, pc}
   d8cfc:	0003024c 	.word	0x0003024c

000d8d00 <HAL_USB_USART_Send_Data>:
DYNALIB_FN(7, hal_usb, HAL_USB_USART_Send_Data, int32_t(HAL_USB_USART_Serial, uint8_t))
   d8d00:	b508      	push	{r3, lr}
   d8d02:	4b02      	ldr	r3, [pc, #8]	; (d8d0c <HAL_USB_USART_Send_Data+0xc>)
   d8d04:	681b      	ldr	r3, [r3, #0]
   d8d06:	69db      	ldr	r3, [r3, #28]
   d8d08:	9301      	str	r3, [sp, #4]
   d8d0a:	bd08      	pop	{r3, pc}
   d8d0c:	0003024c 	.word	0x0003024c

000d8d10 <HAL_USB_USART_Flush_Data>:
DYNALIB_FN(8, hal_usb, HAL_USB_USART_Flush_Data, void(HAL_USB_USART_Serial))
   d8d10:	b508      	push	{r3, lr}
   d8d12:	4b02      	ldr	r3, [pc, #8]	; (d8d1c <HAL_USB_USART_Flush_Data+0xc>)
   d8d14:	681b      	ldr	r3, [r3, #0]
   d8d16:	6a1b      	ldr	r3, [r3, #32]
   d8d18:	9301      	str	r3, [sp, #4]
   d8d1a:	bd08      	pop	{r3, pc}
   d8d1c:	0003024c 	.word	0x0003024c

000d8d20 <panic_>:
DYNALIB_FN(9, services, LED_Toggle, void(Led_TypeDef))
DYNALIB_FN(10, services, LED_Fade, void(Led_TypeDef))
DYNALIB_FN(11, services, Get_LED_Brightness, uint8_t(void))

DYNALIB_FN(12, services, set_logger_output, void(debug_output_fn, LoggerOutputLevel)) // Deprecated
DYNALIB_FN(13, services, panic_, void(ePanicCode, void*, void(*)(uint32_t)))
   d8d20:	b508      	push	{r3, lr}
   d8d22:	4b02      	ldr	r3, [pc, #8]	; (d8d2c <panic_+0xc>)
   d8d24:	681b      	ldr	r3, [r3, #0]
   d8d26:	6b5b      	ldr	r3, [r3, #52]	; 0x34
   d8d28:	9301      	str	r3, [sp, #4]
   d8d2a:	bd08      	pop	{r3, pc}
   d8d2c:	00030260 	.word	0x00030260

000d8d30 <log_message>:
DYNALIB_FN(16, services, log_print_, void(int, int, const char*, const char*, const char*, ...)) // Deprecated
DYNALIB_FN(17, services, LED_RGB_SetChangeHandler, void(led_update_handler_fn, void*))
DYNALIB_FN(18, services, log_print_direct_, void(int, void*, const char*, ...)) // Deprecated
DYNALIB_FN(19, services, LED_GetColor, uint32_t(uint32_t, void*))

DYNALIB_FN(20, services, log_message, void(int, const char*, LogAttributes*, void*, const char*, ...))
   d8d30:	b508      	push	{r3, lr}
   d8d32:	4b02      	ldr	r3, [pc, #8]	; (d8d3c <log_message+0xc>)
   d8d34:	681b      	ldr	r3, [r3, #0]
   d8d36:	6d1b      	ldr	r3, [r3, #80]	; 0x50
   d8d38:	9301      	str	r3, [sp, #4]
   d8d3a:	bd08      	pop	{r3, pc}
   d8d3c:	00030260 	.word	0x00030260

000d8d40 <diag_get_source>:
DYNALIB_FN(34, services, led_update_enabled, int(void*))
DYNALIB_FN(35, services, led_update, void(system_tick_t, LEDStatusData*, void*))

DYNALIB_FN(36, services, diag_register_source, int(const diag_source*, void*))
DYNALIB_FN(37, services, diag_enum_sources, int(diag_enum_sources_callback, size_t*, void*, void*))
DYNALIB_FN(38, services, diag_get_source, int(uint16_t, const diag_source**, void*))
   d8d40:	b508      	push	{r3, lr}
   d8d42:	4b03      	ldr	r3, [pc, #12]	; (d8d50 <diag_get_source+0x10>)
   d8d44:	681b      	ldr	r3, [r3, #0]
   d8d46:	f8d3 3098 	ldr.w	r3, [r3, #152]	; 0x98
   d8d4a:	9301      	str	r3, [sp, #4]
   d8d4c:	bd08      	pop	{r3, pc}
   d8d4e:	0000      	.short	0x0000
   d8d50:	00030260 	.word	0x00030260

000d8d54 <system_mode>:
#include "system_power.h"
#endif

DYNALIB_BEGIN(system)

DYNALIB_FN(0, system, system_mode, System_Mode_TypeDef(void))
   d8d54:	b508      	push	{r3, lr}
   d8d56:	4b02      	ldr	r3, [pc, #8]	; (d8d60 <system_mode+0xc>)
   d8d58:	681b      	ldr	r3, [r3, #0]
   d8d5a:	681b      	ldr	r3, [r3, #0]
   d8d5c:	9301      	str	r3, [sp, #4]
   d8d5e:	bd08      	pop	{r3, pc}
   d8d60:	00030220 	.word	0x00030220

000d8d64 <set_system_mode>:
DYNALIB_FN(1, system, set_system_mode, void(System_Mode_TypeDef))
   d8d64:	b508      	push	{r3, lr}
   d8d66:	4b02      	ldr	r3, [pc, #8]	; (d8d70 <set_system_mode+0xc>)
   d8d68:	681b      	ldr	r3, [r3, #0]
   d8d6a:	685b      	ldr	r3, [r3, #4]
   d8d6c:	9301      	str	r3, [sp, #4]
   d8d6e:	bd08      	pop	{r3, pc}
   d8d70:	00030220 	.word	0x00030220

000d8d74 <system_delay_ms>:

DYNALIB_FN(2, system, set_ymodem_serial_flash_update_handler, void(ymodem_serial_flash_update_handler))
DYNALIB_FN(3, system, system_firmwareUpdate, bool(Stream*, void*))
DYNALIB_FN(4, system, system_fileTransfer, bool(system_file_transfer_t*, void*))

DYNALIB_FN(5, system, system_delay_ms, void(unsigned long, bool))
   d8d74:	b508      	push	{r3, lr}
   d8d76:	4b02      	ldr	r3, [pc, #8]	; (d8d80 <system_delay_ms+0xc>)
   d8d78:	681b      	ldr	r3, [r3, #0]
   d8d7a:	695b      	ldr	r3, [r3, #20]
   d8d7c:	9301      	str	r3, [sp, #4]
   d8d7e:	bd08      	pop	{r3, pc}
   d8d80:	00030220 	.word	0x00030220

000d8d84 <system_thread_set_state>:
DYNALIB_FN(6, system, system_sleep, int(Spark_Sleep_TypeDef, long, uint32_t, void*))
DYNALIB_FN(7, system, system_sleep_pin, int(uint16_t, uint16_t, long, uint32_t, void*))
DYNALIB_FN(8, system, system_subscribe_event, int(system_event_t, system_event_handler_t*, SystemEventContext*))
DYNALIB_FN(9, system, system_unsubscribe_event, void(system_event_t, system_event_handler_t*, void*))
DYNALIB_FN(10, system, system_button_pushed_duration, uint16_t(uint8_t, void*))
DYNALIB_FN(11, system, system_thread_set_state, void(spark::feature::State, void*))
   d8d84:	b508      	push	{r3, lr}
   d8d86:	4b02      	ldr	r3, [pc, #8]	; (d8d90 <system_thread_set_state+0xc>)
   d8d88:	681b      	ldr	r3, [r3, #0]
   d8d8a:	6adb      	ldr	r3, [r3, #44]	; 0x2c
   d8d8c:	9301      	str	r3, [sp, #4]
   d8d8e:	bd08      	pop	{r3, pc}
   d8d90:	00030220 	.word	0x00030220

000d8d94 <system_thread_get_state>:
DYNALIB_FN(18, system, Spark_Finish_Firmware_Update, int(FileTransfer::Descriptor&, uint32_t, void*))

DYNALIB_FN(19, system, application_thread_current, uint8_t(void*))
DYNALIB_FN(20, system, system_thread_current, uint8_t(void*))
DYNALIB_FN(21, system, application_thread_invoke, uint8_t(void(*)(void*), void*, void*))
DYNALIB_FN(22, system, system_thread_get_state, spark::feature::State(void*))
   d8d94:	b508      	push	{r3, lr}
   d8d96:	4b02      	ldr	r3, [pc, #8]	; (d8da0 <system_thread_get_state+0xc>)
   d8d98:	681b      	ldr	r3, [r3, #0]
   d8d9a:	6d9b      	ldr	r3, [r3, #88]	; 0x58
   d8d9c:	9301      	str	r3, [sp, #4]
   d8d9e:	bd08      	pop	{r3, pc}
   d8da0:	00030220 	.word	0x00030220

000d8da4 <system_ctrl_set_app_request_handler>:
DYNALIB_FN(BASE_IDX + 6, system, led_pattern_period, uint16_t(int, int, void*))
DYNALIB_FN(BASE_IDX + 7, system, system_set_tester_handlers, int(system_tester_handlers_t*, void*))
DYNALIB_FN(BASE_IDX + 8, system, system_format_diag_data, int(const uint16_t*, size_t, unsigned, appender_fn, void*, void*))

// Control requests
DYNALIB_FN(BASE_IDX + 9, system, system_ctrl_set_app_request_handler, int(ctrl_request_handler_fn, void*))
   d8da4:	b508      	push	{r3, lr}
   d8da6:	4b03      	ldr	r3, [pc, #12]	; (d8db4 <system_ctrl_set_app_request_handler+0x10>)
   d8da8:	681b      	ldr	r3, [r3, #0]
   d8daa:	f8d3 3088 	ldr.w	r3, [r3, #136]	; 0x88
   d8dae:	9301      	str	r3, [sp, #4]
   d8db0:	bd08      	pop	{r3, pc}
   d8db2:	0000      	.short	0x0000
   d8db4:	00030220 	.word	0x00030220

000d8db8 <system_ctrl_set_result>:
DYNALIB_FN(BASE_IDX + 10, system, system_ctrl_alloc_reply_data, int(ctrl_request*, size_t, void*))
DYNALIB_FN(BASE_IDX + 11, system, system_ctrl_free_request_data, void(ctrl_request*, void*))
DYNALIB_FN(BASE_IDX + 12, system, system_ctrl_set_result, void(ctrl_request*, int, ctrl_completion_handler_fn, void*, void*))
   d8db8:	b508      	push	{r3, lr}
   d8dba:	4b03      	ldr	r3, [pc, #12]	; (d8dc8 <system_ctrl_set_result+0x10>)
   d8dbc:	681b      	ldr	r3, [r3, #0]
   d8dbe:	f8d3 3094 	ldr.w	r3, [r3, #148]	; 0x94
   d8dc2:	9301      	str	r3, [sp, #4]
   d8dc4:	bd08      	pop	{r3, pc}
   d8dc6:	0000      	.short	0x0000
   d8dc8:	00030220 	.word	0x00030220

000d8dcc <network_connect>:
#endif

DYNALIB_BEGIN(system_net)

DYNALIB_FN(0, system_net, network_config, const void*(network_handle_t, uint32_t, void*))
DYNALIB_FN(1, system_net, network_connect, void(network_handle_t, uint32_t, uint32_t, void*))
   d8dcc:	b508      	push	{r3, lr}
   d8dce:	4b02      	ldr	r3, [pc, #8]	; (d8dd8 <network_connect+0xc>)
   d8dd0:	681b      	ldr	r3, [r3, #0]
   d8dd2:	685b      	ldr	r3, [r3, #4]
   d8dd4:	9301      	str	r3, [sp, #4]
   d8dd6:	bd08      	pop	{r3, pc}
   d8dd8:	00030240 	.word	0x00030240

000d8ddc <network_connecting>:
DYNALIB_FN(2, system_net, network_connecting, bool(network_handle_t, uint32_t, void*))
   d8ddc:	b508      	push	{r3, lr}
   d8dde:	4b02      	ldr	r3, [pc, #8]	; (d8de8 <network_connecting+0xc>)
   d8de0:	681b      	ldr	r3, [r3, #0]
   d8de2:	689b      	ldr	r3, [r3, #8]
   d8de4:	9301      	str	r3, [sp, #4]
   d8de6:	bd08      	pop	{r3, pc}
   d8de8:	00030240 	.word	0x00030240

000d8dec <network_disconnect>:
DYNALIB_FN(3, system_net, network_disconnect, void(network_handle_t, uint32_t, void*))
   d8dec:	b508      	push	{r3, lr}
   d8dee:	4b02      	ldr	r3, [pc, #8]	; (d8df8 <network_disconnect+0xc>)
   d8df0:	681b      	ldr	r3, [r3, #0]
   d8df2:	68db      	ldr	r3, [r3, #12]
   d8df4:	9301      	str	r3, [sp, #4]
   d8df6:	bd08      	pop	{r3, pc}
   d8df8:	00030240 	.word	0x00030240

000d8dfc <network_ready>:
DYNALIB_FN(4, system_net, network_ready, bool(network_handle_t, uint32_t, void*))
   d8dfc:	b508      	push	{r3, lr}
   d8dfe:	4b02      	ldr	r3, [pc, #8]	; (d8e08 <network_ready+0xc>)
   d8e00:	681b      	ldr	r3, [r3, #0]
   d8e02:	691b      	ldr	r3, [r3, #16]
   d8e04:	9301      	str	r3, [sp, #4]
   d8e06:	bd08      	pop	{r3, pc}
   d8e08:	00030240 	.word	0x00030240

000d8e0c <network_on>:
DYNALIB_FN(5, system_net, network_on, void(network_handle_t, uint32_t, uint32_t, void*))
   d8e0c:	b508      	push	{r3, lr}
   d8e0e:	4b02      	ldr	r3, [pc, #8]	; (d8e18 <network_on+0xc>)
   d8e10:	681b      	ldr	r3, [r3, #0]
   d8e12:	695b      	ldr	r3, [r3, #20]
   d8e14:	9301      	str	r3, [sp, #4]
   d8e16:	bd08      	pop	{r3, pc}
   d8e18:	00030240 	.word	0x00030240

000d8e1c <network_off>:
DYNALIB_FN(6, system_net, network_off, void(network_handle_t, uint32_t, uint32_t, void*))
   d8e1c:	b508      	push	{r3, lr}
   d8e1e:	4b02      	ldr	r3, [pc, #8]	; (d8e28 <network_off+0xc>)
   d8e20:	681b      	ldr	r3, [r3, #0]
   d8e22:	699b      	ldr	r3, [r3, #24]
   d8e24:	9301      	str	r3, [sp, #4]
   d8e26:	bd08      	pop	{r3, pc}
   d8e28:	00030240 	.word	0x00030240

000d8e2c <network_listen>:
DYNALIB_FN(7, system_net, network_listen, void(network_handle_t, uint32_t, void*))
   d8e2c:	b508      	push	{r3, lr}
   d8e2e:	4b02      	ldr	r3, [pc, #8]	; (d8e38 <network_listen+0xc>)
   d8e30:	681b      	ldr	r3, [r3, #0]
   d8e32:	69db      	ldr	r3, [r3, #28]
   d8e34:	9301      	str	r3, [sp, #4]
   d8e36:	bd08      	pop	{r3, pc}
   d8e38:	00030240 	.word	0x00030240

000d8e3c <network_listening>:
DYNALIB_FN(8, system_net, network_listening, bool(network_handle_t, uint32_t, void*))
   d8e3c:	b508      	push	{r3, lr}
   d8e3e:	4b02      	ldr	r3, [pc, #8]	; (d8e48 <network_listening+0xc>)
   d8e40:	681b      	ldr	r3, [r3, #0]
   d8e42:	6a1b      	ldr	r3, [r3, #32]
   d8e44:	9301      	str	r3, [sp, #4]
   d8e46:	bd08      	pop	{r3, pc}
   d8e48:	00030240 	.word	0x00030240

000d8e4c <network_set_listen_timeout>:
DYNALIB_FN(9, system_net, network_has_credentials, bool(network_handle_t, uint32_t, void*))
DYNALIB_FN(10, system_net, network_set_credentials, int(network_handle_t, uint32_t, NetworkCredentials*, void*))
DYNALIB_FN(11, system_net, network_clear_credentials, bool(network_handle_t, uint32_t, NetworkCredentials*, void*))
DYNALIB_FN(12, system_net, network_set_listen_timeout, void(network_handle_t, uint16_t, void*))
   d8e4c:	b508      	push	{r3, lr}
   d8e4e:	4b02      	ldr	r3, [pc, #8]	; (d8e58 <network_set_listen_timeout+0xc>)
   d8e50:	681b      	ldr	r3, [r3, #0]
   d8e52:	6b1b      	ldr	r3, [r3, #48]	; 0x30
   d8e54:	9301      	str	r3, [sp, #4]
   d8e56:	bd08      	pop	{r3, pc}
   d8e58:	00030240 	.word	0x00030240

000d8e5c <network_get_listen_timeout>:
DYNALIB_FN(13, system_net, network_get_listen_timeout, uint16_t(network_handle_t, uint32_t, void*))
   d8e5c:	b508      	push	{r3, lr}
   d8e5e:	4b02      	ldr	r3, [pc, #8]	; (d8e68 <network_get_listen_timeout+0xc>)
   d8e60:	681b      	ldr	r3, [r3, #0]
   d8e62:	6b5b      	ldr	r3, [r3, #52]	; 0x34
   d8e64:	9301      	str	r3, [sp, #4]
   d8e66:	bd08      	pop	{r3, pc}
   d8e68:	00030240 	.word	0x00030240

000d8e6c <network_is_on>:
DYNALIB_FN(14, system_net, network_set_hostname, int(network_handle_t, uint32_t, const char*, void*))
DYNALIB_FN(15, system_net, network_get_hostname, int(network_handle_t, uint32_t, char*, size_t, void*))
DYNALIB_FN(16, system_net, network_is_on, bool(network_handle_t, void*))
   d8e6c:	b508      	push	{r3, lr}
   d8e6e:	4b02      	ldr	r3, [pc, #8]	; (d8e78 <network_is_on+0xc>)
   d8e70:	681b      	ldr	r3, [r3, #0]
   d8e72:	6c1b      	ldr	r3, [r3, #64]	; 0x40
   d8e74:	9301      	str	r3, [sp, #4]
   d8e76:	bd08      	pop	{r3, pc}
   d8e78:	00030240 	.word	0x00030240

000d8e7c <network_is_off>:
DYNALIB_FN(17, system_net, network_is_off, bool(network_handle_t, void*))
   d8e7c:	b508      	push	{r3, lr}
   d8e7e:	4b02      	ldr	r3, [pc, #8]	; (d8e88 <network_is_off+0xc>)
   d8e80:	681b      	ldr	r3, [r3, #0]
   d8e82:	6c5b      	ldr	r3, [r3, #68]	; 0x44
   d8e84:	9301      	str	r3, [sp, #4]
   d8e86:	bd08      	pop	{r3, pc}
   d8e88:	00030240 	.word	0x00030240

000d8e8c <spark_variable>:
#endif


DYNALIB_BEGIN(system_cloud)

DYNALIB_FN(0, system_cloud, spark_variable, bool(const char*, const void*, Spark_Data_TypeDef, spark_variable_t*))
   d8e8c:	b508      	push	{r3, lr}
   d8e8e:	4b02      	ldr	r3, [pc, #8]	; (d8e98 <spark_variable+0xc>)
   d8e90:	681b      	ldr	r3, [r3, #0]
   d8e92:	681b      	ldr	r3, [r3, #0]
   d8e94:	9301      	str	r3, [sp, #4]
   d8e96:	bd08      	pop	{r3, pc}
   d8e98:	00030244 	.word	0x00030244

000d8e9c <spark_function>:
DYNALIB_FN(1, system_cloud, spark_function, bool(const char*, p_user_function_int_str_t, void*))
   d8e9c:	b508      	push	{r3, lr}
   d8e9e:	4b02      	ldr	r3, [pc, #8]	; (d8ea8 <spark_function+0xc>)
   d8ea0:	681b      	ldr	r3, [r3, #0]
   d8ea2:	685b      	ldr	r3, [r3, #4]
   d8ea4:	9301      	str	r3, [sp, #4]
   d8ea6:	bd08      	pop	{r3, pc}
   d8ea8:	00030244 	.word	0x00030244

000d8eac <spark_process>:
DYNALIB_FN(2, system_cloud, spark_process, void(void))
   d8eac:	b508      	push	{r3, lr}
   d8eae:	4b02      	ldr	r3, [pc, #8]	; (d8eb8 <spark_process+0xc>)
   d8eb0:	681b      	ldr	r3, [r3, #0]
   d8eb2:	689b      	ldr	r3, [r3, #8]
   d8eb4:	9301      	str	r3, [sp, #4]
   d8eb6:	bd08      	pop	{r3, pc}
   d8eb8:	00030244 	.word	0x00030244

000d8ebc <spark_cloud_flag_connected>:
DYNALIB_FN(3, system_cloud, spark_cloud_flag_connect, void(void))
DYNALIB_FN(4, system_cloud, spark_cloud_flag_disconnect, void(void))
DYNALIB_FN(5, system_cloud, spark_cloud_flag_connected, bool(void))
   d8ebc:	b508      	push	{r3, lr}
   d8ebe:	4b02      	ldr	r3, [pc, #8]	; (d8ec8 <spark_cloud_flag_connected+0xc>)
   d8ec0:	681b      	ldr	r3, [r3, #0]
   d8ec2:	695b      	ldr	r3, [r3, #20]
   d8ec4:	9301      	str	r3, [sp, #4]
   d8ec6:	bd08      	pop	{r3, pc}
   d8ec8:	00030244 	.word	0x00030244

000d8ecc <spark_deviceID>:
DYNALIB_FN(6, system_cloud, system_cloud_protocol_instance, ProtocolFacade*(void))
DYNALIB_FN(7, system_cloud, spark_deviceID, String(void))
   d8ecc:	b508      	push	{r3, lr}
   d8ece:	4b02      	ldr	r3, [pc, #8]	; (d8ed8 <spark_deviceID+0xc>)
   d8ed0:	681b      	ldr	r3, [r3, #0]
   d8ed2:	69db      	ldr	r3, [r3, #28]
   d8ed4:	9301      	str	r3, [sp, #4]
   d8ed6:	bd08      	pop	{r3, pc}
   d8ed8:	00030244 	.word	0x00030244

000d8edc <spark_sync_time>:
DYNALIB_FN(8, system_cloud, spark_send_event, bool(const char*, const char*, int, uint32_t, void*))
DYNALIB_FN(9, system_cloud, spark_subscribe, bool(const char*, EventHandler, void*, Spark_Subscription_Scope_TypeDef, const char*, void*))
DYNALIB_FN(10, system_cloud, spark_unsubscribe, void(void*))
DYNALIB_FN(11, system_cloud, spark_sync_time, bool(void*))
   d8edc:	b508      	push	{r3, lr}
   d8ede:	4b02      	ldr	r3, [pc, #8]	; (d8ee8 <spark_sync_time+0xc>)
   d8ee0:	681b      	ldr	r3, [r3, #0]
   d8ee2:	6adb      	ldr	r3, [r3, #44]	; 0x2c
   d8ee4:	9301      	str	r3, [sp, #4]
   d8ee6:	bd08      	pop	{r3, pc}
   d8ee8:	00030244 	.word	0x00030244

000d8eec <spark_sync_time_pending>:
DYNALIB_FN(12, system_cloud, spark_sync_time_pending, bool(void*))
   d8eec:	b508      	push	{r3, lr}
   d8eee:	4b02      	ldr	r3, [pc, #8]	; (d8ef8 <spark_sync_time_pending+0xc>)
   d8ef0:	681b      	ldr	r3, [r3, #0]
   d8ef2:	6b1b      	ldr	r3, [r3, #48]	; 0x30
   d8ef4:	9301      	str	r3, [sp, #4]
   d8ef6:	bd08      	pop	{r3, pc}
   d8ef8:	00030244 	.word	0x00030244

000d8efc <spark_sync_time_last>:
DYNALIB_FN(13, system_cloud, spark_sync_time_last, system_tick_t(time32_t*, time_t*))
   d8efc:	b508      	push	{r3, lr}
   d8efe:	4b02      	ldr	r3, [pc, #8]	; (d8f08 <spark_sync_time_last+0xc>)
   d8f00:	681b      	ldr	r3, [r3, #0]
   d8f02:	6b5b      	ldr	r3, [r3, #52]	; 0x34
   d8f04:	9301      	str	r3, [sp, #4]
   d8f06:	bd08      	pop	{r3, pc}
   d8f08:	00030244 	.word	0x00030244

000d8f0c <spark_set_random_seed_from_cloud_handler>:
DYNALIB_FN(14, system_cloud, spark_set_connection_property, int(unsigned, unsigned, const void*, void*))
DYNALIB_FN(15, system_cloud, spark_set_random_seed_from_cloud_handler, int(void (*handler)(unsigned int), void*))
   d8f0c:	b508      	push	{r3, lr}
   d8f0e:	4b02      	ldr	r3, [pc, #8]	; (d8f18 <spark_set_random_seed_from_cloud_handler+0xc>)
   d8f10:	681b      	ldr	r3, [r3, #0]
   d8f12:	6bdb      	ldr	r3, [r3, #60]	; 0x3c
   d8f14:	9301      	str	r3, [sp, #4]
   d8f16:	bd08      	pop	{r3, pc}
   d8f18:	00030244 	.word	0x00030244

000d8f1c <malloc>:
#include "hal_platform.h"
#endif // defined(DYNALIB_EXPORT) || (defined(DYNALIB_IMPORT) && !defined(RT_DYNALIB_NO_DEPENDENCY_BREAKING_IMPORTS))

DYNALIB_BEGIN(rt)

DYNALIB_FN(0, rt, malloc, void*(size_t))
   d8f1c:	b508      	push	{r3, lr}
   d8f1e:	4b02      	ldr	r3, [pc, #8]	; (d8f28 <malloc+0xc>)
   d8f20:	681b      	ldr	r3, [r3, #0]
   d8f22:	681b      	ldr	r3, [r3, #0]
   d8f24:	9301      	str	r3, [sp, #4]
   d8f26:	bd08      	pop	{r3, pc}
   d8f28:	0003021c 	.word	0x0003021c

000d8f2c <free>:
DYNALIB_FN(1, rt, free, void(void*))
   d8f2c:	b508      	push	{r3, lr}
   d8f2e:	4b02      	ldr	r3, [pc, #8]	; (d8f38 <free+0xc>)
   d8f30:	681b      	ldr	r3, [r3, #0]
   d8f32:	685b      	ldr	r3, [r3, #4]
   d8f34:	9301      	str	r3, [sp, #4]
   d8f36:	bd08      	pop	{r3, pc}
   d8f38:	0003021c 	.word	0x0003021c

000d8f3c <realloc>:
DYNALIB_FN(2, rt, realloc, void*(void*, size_t))
   d8f3c:	b508      	push	{r3, lr}
   d8f3e:	4b02      	ldr	r3, [pc, #8]	; (d8f48 <realloc+0xc>)
   d8f40:	681b      	ldr	r3, [r3, #0]
   d8f42:	689b      	ldr	r3, [r3, #8]
   d8f44:	9301      	str	r3, [sp, #4]
   d8f46:	bd08      	pop	{r3, pc}
   d8f48:	0003021c 	.word	0x0003021c

000d8f4c <vsnprintf>:
DYNALIB_FN(4, rt, siprintf, int(char*, const char*, ...))
DYNALIB_FN(5, rt, sscanf, int(const char*, const char*, ...))
DYNALIB_FN(6, rt, siscanf, int(const char*, const char*, ...))
DYNALIB_FN(7, rt, snprintf, int(char*, size_t, const char*, ...))
DYNALIB_FN(8, rt, sniprintf, int(char*, size_t, const char*, ...))
DYNALIB_FN(9, rt, vsnprintf, int(char*, size_t, const char*, va_list))
   d8f4c:	b508      	push	{r3, lr}
   d8f4e:	4b02      	ldr	r3, [pc, #8]	; (d8f58 <vsnprintf+0xc>)
   d8f50:	681b      	ldr	r3, [r3, #0]
   d8f52:	6a5b      	ldr	r3, [r3, #36]	; 0x24
   d8f54:	9301      	str	r3, [sp, #4]
   d8f56:	bd08      	pop	{r3, pc}
   d8f58:	0003021c 	.word	0x0003021c

000d8f5c <abort>:
DYNALIB_FN(10, rt, vsniprintf, int(char*, size_t, const char*, va_list))
DYNALIB_FN(11, rt, abort, void(void))
   d8f5c:	b508      	push	{r3, lr}
   d8f5e:	4b02      	ldr	r3, [pc, #8]	; (d8f68 <abort+0xc>)
   d8f60:	681b      	ldr	r3, [r3, #0]
   d8f62:	6adb      	ldr	r3, [r3, #44]	; 0x2c
   d8f64:	9301      	str	r3, [sp, #4]
   d8f66:	bd08      	pop	{r3, pc}
   d8f68:	0003021c 	.word	0x0003021c

000d8f6c <__errno>:
DYNALIB_FN(12, rt, _malloc_r, void*(struct _reent*, size_t))
DYNALIB_FN(13, rt, _free_r, void(struct _reent*, void*))
DYNALIB_FN(14, rt, _realloc_r, void*(struct _reent*, void*, size_t))
DYNALIB_FN(15, rt, __errno, int*())
   d8f6c:	b508      	push	{r3, lr}
   d8f6e:	4b02      	ldr	r3, [pc, #8]	; (d8f78 <__errno+0xc>)
   d8f70:	681b      	ldr	r3, [r3, #0]
   d8f72:	6bdb      	ldr	r3, [r3, #60]	; 0x3c
   d8f74:	9301      	str	r3, [sp, #4]
   d8f76:	bd08      	pop	{r3, pc}
   d8f78:	0003021c 	.word	0x0003021c

000d8f7c <newlib_impure_ptr_callback>:
// RT is currently being imported into system-part1 from system-part2,
// which is the reverse direction.

#if defined(DYNALIB_EXPORT) || (defined(DYNALIB_IMPORT) && !defined(RT_DYNALIB_NO_DEPENDENCY_BREAKING_IMPORTS))
DYNALIB_FN(16, rt, __assert_func, void(const char*, int, const char*, const char*))
DYNALIB_FN(17, rt, newlib_impure_ptr_callback, void(void (*)(struct _reent*, size_t, uint32_t, void*), void*))
   d8f7c:	b508      	push	{r3, lr}
   d8f7e:	4b02      	ldr	r3, [pc, #8]	; (d8f88 <newlib_impure_ptr_callback+0xc>)
   d8f80:	681b      	ldr	r3, [r3, #0]
   d8f82:	6c5b      	ldr	r3, [r3, #68]	; 0x44
   d8f84:	9301      	str	r3, [sp, #4]
   d8f86:	bd08      	pop	{r3, pc}
   d8f88:	0003021c 	.word	0x0003021c

000d8f8c <localtime_r>:
// Electron has some of these exported from a different system part through services2 dynalib
// Photon/P1 do not have enough space in system-part2
#if HAL_PLATFORM_EXPORT_STDLIB_RT_DYNALIB
DYNALIB_FN(18, rt, strftime, size_t(char* __restrict, size_t, const char* __restrict, const struct tm* __restrict))
DYNALIB_FN(19, rt, localtime_r, struct tm*(const time_t* __restrict, struct tm* __restrict))
   d8f8c:	b508      	push	{r3, lr}
   d8f8e:	4b02      	ldr	r3, [pc, #8]	; (d8f98 <localtime_r+0xc>)
   d8f90:	681b      	ldr	r3, [r3, #0]
   d8f92:	6cdb      	ldr	r3, [r3, #76]	; 0x4c
   d8f94:	9301      	str	r3, [sp, #4]
   d8f96:	bd08      	pop	{r3, pc}
   d8f98:	0003021c 	.word	0x0003021c

000d8f9c <_ZN5spark13EthernetClass9listeningEv>:
    uint16_t getListenTimeout(void) {
        return network_get_listen_timeout(*this, 0, NULL);
    }

    bool listening(void) {
        return network_listening(*this, 0, NULL);
   d8f9c:	2200      	movs	r2, #0
   d8f9e:	6840      	ldr	r0, [r0, #4]
   d8fa0:	4611      	mov	r1, r2
   d8fa2:	f7ff bf4b 	b.w	d8e3c <network_listening>

000d8fa6 <_ZN5spark13EthernetClass16getListenTimeoutEv>:
        return network_get_listen_timeout(*this, 0, NULL);
   d8fa6:	2200      	movs	r2, #0
   d8fa8:	6840      	ldr	r0, [r0, #4]
   d8faa:	4611      	mov	r1, r2
   d8fac:	f7ff bf56 	b.w	d8e5c <network_get_listen_timeout>

000d8fb0 <_ZN5spark13EthernetClass16setListenTimeoutEt>:
        network_set_listen_timeout(*this, timeout, NULL);
   d8fb0:	6840      	ldr	r0, [r0, #4]
   d8fb2:	2200      	movs	r2, #0
   d8fb4:	f7ff bf4a 	b.w	d8e4c <network_set_listen_timeout>

000d8fb8 <_ZN5spark13EthernetClass6listenEb>:
        network_listen(*this, begin ? 0 : 1, NULL);
   d8fb8:	6840      	ldr	r0, [r0, #4]
   d8fba:	2200      	movs	r2, #0
   d8fbc:	f081 0101 	eor.w	r1, r1, #1
   d8fc0:	f7ff bf34 	b.w	d8e2c <network_listen>

000d8fc4 <_ZN5spark13EthernetClass3offEv>:
        network_off(*this, 0, 0, NULL);
   d8fc4:	2300      	movs	r3, #0
   d8fc6:	6840      	ldr	r0, [r0, #4]
   d8fc8:	461a      	mov	r2, r3
   d8fca:	4619      	mov	r1, r3
   d8fcc:	f7ff bf26 	b.w	d8e1c <network_off>

000d8fd0 <_ZN5spark13EthernetClass2onEv>:
        network_on(*this, 0, 0, NULL);
   d8fd0:	2300      	movs	r3, #0
   d8fd2:	6840      	ldr	r0, [r0, #4]
   d8fd4:	461a      	mov	r2, r3
   d8fd6:	4619      	mov	r1, r3
   d8fd8:	f7ff bf18 	b.w	d8e0c <network_on>

000d8fdc <_ZN5spark13EthernetClass5readyEv>:
    }

    bool ready() {
        return network_ready(*this, 0,  NULL);
   d8fdc:	2200      	movs	r2, #0
   d8fde:	6840      	ldr	r0, [r0, #4]
   d8fe0:	4611      	mov	r1, r2
   d8fe2:	f7ff bf0b 	b.w	d8dfc <network_ready>

000d8fe6 <_ZN5spark13EthernetClass10connectingEv>:
        return network_connecting(*this, 0, NULL);
   d8fe6:	2200      	movs	r2, #0
   d8fe8:	6840      	ldr	r0, [r0, #4]
   d8fea:	4611      	mov	r1, r2
   d8fec:	f7ff bef6 	b.w	d8ddc <network_connecting>

000d8ff0 <_ZN5spark13EthernetClass10disconnectEv>:
        network_disconnect(*this, NETWORK_DISCONNECT_REASON_USER, NULL);
   d8ff0:	6840      	ldr	r0, [r0, #4]
   d8ff2:	2200      	movs	r2, #0
   d8ff4:	2102      	movs	r1, #2
   d8ff6:	f7ff bef9 	b.w	d8dec <network_disconnect>

000d8ffa <_ZN5spark13EthernetClass7connectEj>:
        network_connect(*this, flags, 0, NULL);
   d8ffa:	2300      	movs	r3, #0
   d8ffc:	6840      	ldr	r0, [r0, #4]
   d8ffe:	461a      	mov	r2, r3
   d9000:	f7ff bee4 	b.w	d8dcc <network_connect>

000d9004 <_GLOBAL__sub_I__ZN5spark8EthernetE>:
    static NetworkClass& from(network_interface_t nif);

    virtual IPAddress resolve(const char* name);

    explicit NetworkClass(network_interface_t iface)
            : iface_(iface) {
   d9004:	4b02      	ldr	r3, [pc, #8]	; (d9010 <_GLOBAL__sub_I__ZN5spark8EthernetE+0xc>)
   d9006:	2203      	movs	r2, #3
   d9008:	605a      	str	r2, [r3, #4]
            NetworkClass(NETWORK_INTERFACE_ETHERNET) {
   d900a:	4a02      	ldr	r2, [pc, #8]	; (d9014 <_GLOBAL__sub_I__ZN5spark8EthernetE+0x10>)
   d900c:	601a      	str	r2, [r3, #0]

namespace spark {

EthernetClass Ethernet;

} // spark
   d900e:	4770      	bx	lr
   d9010:	2003e5c4 	.word	0x2003e5c4
   d9014:	000de934 	.word	0x000de934

000d9018 <_ZN8SPIClass4lockEv.isra.0>:
  }

  int lock()
  {
#if HAL_PLATFORM_SPI_HAL_THREAD_SAFETY
    return hal_spi_acquire(_spi, nullptr);
   d9018:	2100      	movs	r1, #0
   d901a:	f7ff be1d 	b.w	d8c58 <hal_spi_acquire>

000d901e <_ZN8SPIClass6unlockEv.isra.0>:
  }

  void unlock()
  {
#if HAL_PLATFORM_SPI_HAL_THREAD_SAFETY
    hal_spi_release(_spi, nullptr);
   d901e:	2100      	movs	r1, #0
   d9020:	f7ff be22 	b.w	d8c68 <hal_spi_release>

000d9024 <_ZN8SPIClassC1E19hal_spi_interface_t>:
    }
    return particle::SPISettings(info->clock, info->bit_order, info->data_mode);
}
} // namespace

SPIClass::SPIClass(hal_spi_interface_t spi)
   d9024:	b510      	push	{r4, lr}
   d9026:	4604      	mov	r4, r0
   d9028:	4608      	mov	r0, r1
{
    _spi = spi;
   d902a:	7021      	strb	r1, [r4, #0]
    hal_spi_init(_spi);
   d902c:	f7ff fde4 	bl	d8bf8 <hal_spi_init>
    _dividerReference = SPI_CLK_SYSTEM; // 0 indicates the system clock
   d9030:	2300      	movs	r3, #0
   d9032:	6063      	str	r3, [r4, #4]
}
   d9034:	4620      	mov	r0, r4
   d9036:	bd10      	pop	{r4, pc}

000d9038 <_ZN8SPIClass5beginEv>:

void SPIClass::begin()
{
   d9038:	b510      	push	{r4, lr}
   d903a:	4604      	mov	r4, r0
    // TODO: Fetch default pin from HAL
    if (!lock())
   d903c:	7800      	ldrb	r0, [r0, #0]
   d903e:	f7ff ffeb 	bl	d9018 <_ZN8SPIClass4lockEv.isra.0>
   d9042:	b948      	cbnz	r0, d9058 <_ZN8SPIClass5beginEv+0x20>
    {
        hal_spi_begin(_spi, SPI_DEFAULT_SS);
   d9044:	7820      	ldrb	r0, [r4, #0]
   d9046:	f64f 71ff 	movw	r1, #65535	; 0xffff
   d904a:	f7ff fdc5 	bl	d8bd8 <hal_spi_begin>
        unlock();
   d904e:	7820      	ldrb	r0, [r4, #0]
    }
}
   d9050:	e8bd 4010 	ldmia.w	sp!, {r4, lr}
        unlock();
   d9054:	f7ff bfe3 	b.w	d901e <_ZN8SPIClass6unlockEv.isra.0>
}
   d9058:	bd10      	pop	{r4, pc}

000d905a <_ZN8SPIClass14endTransactionEv>:
}

void SPIClass::endTransaction()
{
    // Release peripheral
    unlock();
   d905a:	7800      	ldrb	r0, [r0, #0]
   d905c:	f7ff bfdf 	b.w	d901e <_ZN8SPIClass6unlockEv.isra.0>

000d9060 <_ZN8SPIClass19computeClockDividerEjjRhRj>:
void SPIClass::computeClockDivider(unsigned reference, unsigned targetSpeed, uint8_t& divider,
                                   unsigned& clock)
{
    clock = reference;
    uint8_t scale = 0;
    clock >>= 1; // div2 is the first
   d9060:	0840      	lsrs	r0, r0, #1
{
   d9062:	b530      	push	{r4, r5, lr}
    clock >>= 1; // div2 is the first
   d9064:	6018      	str	r0, [r3, #0]
   d9066:	2400      	movs	r4, #0
    while (clock > targetSpeed && scale < 7)
   d9068:	6818      	ldr	r0, [r3, #0]
   d906a:	4288      	cmp	r0, r1
   d906c:	b2e5      	uxtb	r5, r4
   d906e:	d906      	bls.n	d907e <_ZN8SPIClass19computeClockDividerEjjRhRj+0x1e>
   d9070:	3401      	adds	r4, #1
   d9072:	2c08      	cmp	r4, #8
   d9074:	d002      	beq.n	d907c <_ZN8SPIClass19computeClockDividerEjjRhRj+0x1c>
    {
        clock >>= 1;
   d9076:	0840      	lsrs	r0, r0, #1
   d9078:	6018      	str	r0, [r3, #0]
    while (clock > targetSpeed && scale < 7)
   d907a:	e7f5      	b.n	d9068 <_ZN8SPIClass19computeClockDividerEjjRhRj+0x8>
   d907c:	2507      	movs	r5, #7
        scale++;
    }
    divider = clock_divisors[scale];
   d907e:	4b02      	ldr	r3, [pc, #8]	; (d9088 <_ZN8SPIClass19computeClockDividerEjjRhRj+0x28>)
   d9080:	5d5b      	ldrb	r3, [r3, r5]
   d9082:	7013      	strb	r3, [r2, #0]
}
   d9084:	bd30      	pop	{r4, r5, pc}
   d9086:	bf00      	nop
   d9088:	000de968 	.word	0x000de968

000d908c <_ZN8SPIClass16beginTransactionERKN8particle11SPISettingsE>:
{
   d908c:	e92d 43f0 	stmdb	sp!, {r4, r5, r6, r7, r8, r9, lr}
   d9090:	4606      	mov	r6, r0
   d9092:	b08f      	sub	sp, #60	; 0x3c
    CHECK(lock());
   d9094:	7800      	ldrb	r0, [r0, #0]
{
   d9096:	460c      	mov	r4, r1
    CHECK(lock());
   d9098:	f7ff ffbe 	bl	d9018 <_ZN8SPIClass4lockEv.isra.0>
   d909c:	2800      	cmp	r0, #0
   d909e:	db1b      	blt.n	d90d8 <_ZN8SPIClass16beginTransactionERKN8particle11SPISettingsE+0x4c>
    querySpiInfo(_spi, &spi_info);
   d90a0:	7835      	ldrb	r5, [r6, #0]
    memset(info, 0, sizeof(hal_spi_info_t));
   d90a2:	2214      	movs	r2, #20
   d90a4:	2100      	movs	r1, #0
   d90a6:	a809      	add	r0, sp, #36	; 0x24
   d90a8:	f004 fde2 	bl	ddc70 <memset>
    info->version = HAL_SPI_INFO_VERSION_1;
   d90ac:	230b      	movs	r3, #11
    hal_spi_info(spi, info, nullptr);
   d90ae:	2200      	movs	r2, #0
   d90b0:	a909      	add	r1, sp, #36	; 0x24
   d90b2:	4628      	mov	r0, r5
    info->version = HAL_SPI_INFO_VERSION_1;
   d90b4:	f8ad 3024 	strh.w	r3, [sp, #36]	; 0x24
    hal_spi_info(spi, info, nullptr);
   d90b8:	f7ff fdae 	bl	d8c18 <hal_spi_info>
    if (!info || !info->enabled || info->default_settings)
   d90bc:	f89d 302d 	ldrb.w	r3, [sp, #45]	; 0x2d
   d90c0:	b113      	cbz	r3, d90c8 <_ZN8SPIClass16beginTransactionERKN8particle11SPISettingsE+0x3c>
   d90c2:	f89d 502c 	ldrb.w	r5, [sp, #44]	; 0x2c
   d90c6:	b155      	cbz	r5, d90de <_ZN8SPIClass16beginTransactionERKN8particle11SPISettingsE+0x52>
  {
   d90c8:	2700      	movs	r7, #0
   d90ca:	46b9      	mov	r9, r7
   d90cc:	46b8      	mov	r8, r7
   d90ce:	2501      	movs	r5, #1
    if (default_ && other.default_)
   d90d0:	7923      	ldrb	r3, [r4, #4]
   d90d2:	b15d      	cbz	r5, d90ec <_ZN8SPIClass16beginTransactionERKN8particle11SPISettingsE+0x60>
   d90d4:	b1c3      	cbz	r3, d9108 <_ZN8SPIClass16beginTransactionERKN8particle11SPISettingsE+0x7c>
    return 0;
   d90d6:	2000      	movs	r0, #0
}
   d90d8:	b00f      	add	sp, #60	; 0x3c
   d90da:	e8bd 83f0 	ldmia.w	sp!, {r4, r5, r6, r7, r8, r9, pc}
    return particle::SPISettings(info->clock, info->bit_order, info->data_mode);
   d90de:	f8dd 8030 	ldr.w	r8, [sp, #48]	; 0x30
   d90e2:	f89d 9034 	ldrb.w	r9, [sp, #52]	; 0x34
   d90e6:	f89d 7035 	ldrb.w	r7, [sp, #53]	; 0x35
  }
   d90ea:	e7f1      	b.n	d90d0 <_ZN8SPIClass16beginTransactionERKN8particle11SPISettingsE+0x44>
    if (default_ == other.default_ &&
   d90ec:	2b00      	cmp	r3, #0
   d90ee:	d135      	bne.n	d915c <_ZN8SPIClass16beginTransactionERKN8particle11SPISettingsE+0xd0>
   d90f0:	68a3      	ldr	r3, [r4, #8]
   d90f2:	4543      	cmp	r3, r8
   d90f4:	d108      	bne.n	d9108 <_ZN8SPIClass16beginTransactionERKN8particle11SPISettingsE+0x7c>
        bitOrder_ == other.bitOrder_ &&
   d90f6:	f88d 9020 	strb.w	r9, [sp, #32]
   d90fa:	f88d 7021 	strb.w	r7, [sp, #33]	; 0x21
   d90fe:	f8bd 2020 	ldrh.w	r2, [sp, #32]
   d9102:	89a3      	ldrh	r3, [r4, #12]
   d9104:	429a      	cmp	r2, r3
   d9106:	d0e6      	beq.n	d90d6 <_ZN8SPIClass16beginTransactionERKN8particle11SPISettingsE+0x4a>
            uint8_t divisor = 0;
   d9108:	2300      	movs	r3, #0
            computeClockDivider((unsigned int)spi_info.system_clock, settings.clock_, divisor,
   d910a:	68a1      	ldr	r1, [r4, #8]
            uint8_t divisor = 0;
   d910c:	f88d 300f 	strb.w	r3, [sp, #15]
            computeClockDivider((unsigned int)spi_info.system_clock, settings.clock_, divisor,
   d9110:	980a      	ldr	r0, [sp, #40]	; 0x28
   d9112:	ab04      	add	r3, sp, #16
   d9114:	f10d 020f 	add.w	r2, sp, #15
   d9118:	f7ff ffa2 	bl	d9060 <_ZN8SPIClass19computeClockDividerEjjRhRj>
    if (default_ && other.default_)
   d911c:	7921      	ldrb	r1, [r4, #4]
   d911e:	b985      	cbnz	r5, d9142 <_ZN8SPIClass16beginTransactionERKN8particle11SPISettingsE+0xb6>
    if (default_ == other.default_ &&
   d9120:	b989      	cbnz	r1, d9146 <_ZN8SPIClass16beginTransactionERKN8particle11SPISettingsE+0xba>
   d9122:	68a3      	ldr	r3, [r4, #8]
   d9124:	4543      	cmp	r3, r8
   d9126:	d30e      	bcc.n	d9146 <_ZN8SPIClass16beginTransactionERKN8particle11SPISettingsE+0xba>
        bitOrder_ == other.bitOrder_ &&
   d9128:	f88d 9020 	strb.w	r9, [sp, #32]
   d912c:	f88d 7021 	strb.w	r7, [sp, #33]	; 0x21
   d9130:	f8bd 2020 	ldrh.w	r2, [sp, #32]
   d9134:	89a3      	ldrh	r3, [r4, #12]
   d9136:	429a      	cmp	r2, r3
   d9138:	d105      	bne.n	d9146 <_ZN8SPIClass16beginTransactionERKN8particle11SPISettingsE+0xba>
            if (!(spi_settings <= settings && clock == spi_settings.clock_))
   d913a:	9b04      	ldr	r3, [sp, #16]
   d913c:	4543      	cmp	r3, r8
   d913e:	d102      	bne.n	d9146 <_ZN8SPIClass16beginTransactionERKN8particle11SPISettingsE+0xba>
   d9140:	e7c9      	b.n	d90d6 <_ZN8SPIClass16beginTransactionERKN8particle11SPISettingsE+0x4a>
    if (default_ && other.default_)
   d9142:	2900      	cmp	r1, #0
   d9144:	d1f9      	bne.n	d913a <_ZN8SPIClass16beginTransactionERKN8particle11SPISettingsE+0xae>
                hal_spi_set_settings(_spi, settings.default_, divisor, settings.bitOrder_,
   d9146:	2300      	movs	r3, #0
   d9148:	9301      	str	r3, [sp, #4]
   d914a:	7b63      	ldrb	r3, [r4, #13]
   d914c:	9300      	str	r3, [sp, #0]
   d914e:	f89d 200f 	ldrb.w	r2, [sp, #15]
   d9152:	7b23      	ldrb	r3, [r4, #12]
            hal_spi_set_settings(_spi, settings.default_, 0, 0, 0, nullptr);
   d9154:	7830      	ldrb	r0, [r6, #0]
   d9156:	f7ff fd77 	bl	d8c48 <hal_spi_set_settings>
   d915a:	e7bc      	b.n	d90d6 <_ZN8SPIClass16beginTransactionERKN8particle11SPISettingsE+0x4a>
   d915c:	e9cd 5500 	strd	r5, r5, [sp]
   d9160:	462b      	mov	r3, r5
   d9162:	462a      	mov	r2, r5
   d9164:	2101      	movs	r1, #1
   d9166:	e7f5      	b.n	d9154 <_ZN8SPIClass16beginTransactionERKN8particle11SPISettingsE+0xc8>

000d9168 <_ZN8SPIClass8transferEh>:

    return clock;
}

byte SPIClass::transfer(byte _data)
{
   d9168:	b508      	push	{r3, lr}
    return static_cast<byte>(hal_spi_transfer(_spi, _data));
   d916a:	7800      	ldrb	r0, [r0, #0]
   d916c:	f7ff fd3c 	bl	d8be8 <hal_spi_transfer>
}
   d9170:	b2c0      	uxtb	r0, r0
   d9172:	bd08      	pop	{r3, pc}

000d9174 <_ZN8SPIClass8transferEPKvPvjPFvvE>:

void SPIClass::transfer(const void* tx_buffer, void* rx_buffer, size_t length,
                        wiring_spi_dma_transfercomplete_callback_t user_callback)
{
   d9174:	b530      	push	{r4, r5, lr}
   d9176:	b087      	sub	sp, #28
   d9178:	4604      	mov	r4, r0
   d917a:	9d0a      	ldr	r5, [sp, #40]	; 0x28
    hal_spi_transfer_dma(_spi, tx_buffer, rx_buffer, length, user_callback);
   d917c:	9500      	str	r5, [sp, #0]
   d917e:	7800      	ldrb	r0, [r0, #0]
   d9180:	f7ff fd52 	bl	d8c28 <hal_spi_transfer_dma>
    if (user_callback == NULL)
   d9184:	b93d      	cbnz	r5, d9196 <_ZN8SPIClass8transferEPKvPvjPFvvE+0x22>
    {
        hal_spi_transfer_status_t st;
        do
        {
            hal_spi_transfer_dma_status(_spi, &st);
   d9186:	7820      	ldrb	r0, [r4, #0]
   d9188:	a902      	add	r1, sp, #8
   d918a:	f7ff fd55 	bl	d8c38 <hal_spi_transfer_dma_status>
        } while (st.transfer_ongoing);
   d918e:	f89d 3014 	ldrb.w	r3, [sp, #20]
   d9192:	07db      	lsls	r3, r3, #31
   d9194:	d4f7      	bmi.n	d9186 <_ZN8SPIClass8transferEPKvPvjPFvvE+0x12>
    }
}
   d9196:	b007      	add	sp, #28
   d9198:	bd30      	pop	{r4, r5, pc}
	...

000d919c <_GLOBAL__sub_I_System>:
    return wokenUpByRtc();
}

system_error_t SleepResult::error() const {
    return err_;
   d919c:	b510      	push	{r4, lr}
} // namespace particle

// particle::Flag<TagT, ValueT>
template<typename TagT, typename ValueT>
inline particle::Flag<TagT, ValueT>::Flag(ValueT val) :
        val_(val) {
   d919e:	4b09      	ldr	r3, [pc, #36]	; (d91c4 <_GLOBAL__sub_I_System+0x28>)

class SystemSleepResult {
public:
    SystemSleepResult()
            : wakeupSource_(nullptr),
              error_(SYSTEM_ERROR_NONE) {
   d91a0:	4c09      	ldr	r4, [pc, #36]	; (d91c8 <_GLOBAL__sub_I_System+0x2c>)
   d91a2:	2202      	movs	r2, #2
   d91a4:	2000      	movs	r0, #0
   d91a6:	601a      	str	r2, [r3, #0]
    SleepResult() {}
   d91a8:	4b08      	ldr	r3, [pc, #32]	; (d91cc <_GLOBAL__sub_I_System+0x30>)
              error_(SYSTEM_ERROR_NONE) {
   d91aa:	6020      	str	r0, [r4, #0]
   d91ac:	80a0      	strh	r0, [r4, #4]
    SleepResult() {}
   d91ae:	71a0      	strb	r0, [r4, #6]
   d91b0:	60a3      	str	r3, [r4, #8]

class SystemClass {
public:

    SystemClass(System_Mode_TypeDef mode = DEFAULT) {
        set_system_mode(mode);
   d91b2:	f7ff fdd7 	bl	d8d64 <set_system_mode>
SystemClass System;
   d91b6:	4620      	mov	r0, r4
   d91b8:	4a05      	ldr	r2, [pc, #20]	; (d91d0 <_GLOBAL__sub_I_System+0x34>)
   d91ba:	4906      	ldr	r1, [pc, #24]	; (d91d4 <_GLOBAL__sub_I_System+0x38>)
   d91bc:	e8bd 4010 	ldmia.w	sp!, {r4, lr}
SystemClass System;
   d91c0:	f002 ba8c 	b.w	db6dc <__aeabi_atexit>
   d91c4:	2003e5d8 	.word	0x2003e5d8
   d91c8:	2003e5cc 	.word	0x2003e5cc
   d91cc:	ffff0000 	.word	0xffff0000
   d91d0:	2003de20 	.word	0x2003de20
   d91d4:	000d4169 	.word	0x000d4169

000d91d8 <_ZN6StringD1Ev>:
	init();
	char buf[33];
	dtoa(value, decimalPlaces, buf);
        *this = buf;
}
String::~String()
   d91d8:	b510      	push	{r4, lr}
   d91da:	4604      	mov	r4, r0
{
	free(buffer);
   d91dc:	6800      	ldr	r0, [r0, #0]
   d91de:	f7ff fea5 	bl	d8f2c <free>
}
   d91e2:	4620      	mov	r0, r4
   d91e4:	bd10      	pop	{r4, pc}

000d91e6 <_ZN6String10invalidateEv>:
	len = 0;
	flags = 0;
}

void String::invalidate(void)
{
   d91e6:	b510      	push	{r4, lr}
   d91e8:	4604      	mov	r4, r0
	if (buffer) free(buffer);
   d91ea:	6800      	ldr	r0, [r0, #0]
   d91ec:	b108      	cbz	r0, d91f2 <_ZN6String10invalidateEv+0xc>
   d91ee:	f7ff fe9d 	bl	d8f2c <free>
	buffer = NULL;
   d91f2:	2300      	movs	r3, #0
	capacity = len = 0;
   d91f4:	e9c4 3301 	strd	r3, r3, [r4, #4]
	buffer = NULL;
   d91f8:	6023      	str	r3, [r4, #0]
}
   d91fa:	bd10      	pop	{r4, pc}

000d91fc <_ZN6String12changeBufferEj>:
	}
	return 0;
}

unsigned char String::changeBuffer(unsigned int maxStrLen)
{
   d91fc:	b538      	push	{r3, r4, r5, lr}
   d91fe:	4604      	mov	r4, r0
   d9200:	460d      	mov	r5, r1
	char *newbuffer = (char *)realloc(buffer, maxStrLen + 1);
   d9202:	6800      	ldr	r0, [r0, #0]
   d9204:	3101      	adds	r1, #1
   d9206:	f7ff fe99 	bl	d8f3c <realloc>
	if (newbuffer) {
   d920a:	b110      	cbz	r0, d9212 <_ZN6String12changeBufferEj+0x16>
		buffer = newbuffer;
		capacity = maxStrLen;
   d920c:	e9c4 0500 	strd	r0, r5, [r4]
		return 1;
   d9210:	2001      	movs	r0, #1
	}
	return 0;
}
   d9212:	bd38      	pop	{r3, r4, r5, pc}

000d9214 <_ZN6String7reserveEj>:
{
   d9214:	b510      	push	{r4, lr}
	if (buffer && capacity >= size) return 1;
   d9216:	6803      	ldr	r3, [r0, #0]
{
   d9218:	4604      	mov	r4, r0
	if (buffer && capacity >= size) return 1;
   d921a:	b123      	cbz	r3, d9226 <_ZN6String7reserveEj+0x12>
   d921c:	6843      	ldr	r3, [r0, #4]
   d921e:	428b      	cmp	r3, r1
   d9220:	d301      	bcc.n	d9226 <_ZN6String7reserveEj+0x12>
   d9222:	2001      	movs	r0, #1
}
   d9224:	bd10      	pop	{r4, pc}
	if (changeBuffer(size)) {
   d9226:	4620      	mov	r0, r4
   d9228:	f7ff ffe8 	bl	d91fc <_ZN6String12changeBufferEj>
   d922c:	2800      	cmp	r0, #0
   d922e:	d0f9      	beq.n	d9224 <_ZN6String7reserveEj+0x10>
		if (len == 0) buffer[0] = 0;
   d9230:	68a3      	ldr	r3, [r4, #8]
   d9232:	2b00      	cmp	r3, #0
   d9234:	d1f5      	bne.n	d9222 <_ZN6String7reserveEj+0xe>
   d9236:	6822      	ldr	r2, [r4, #0]
   d9238:	7013      	strb	r3, [r2, #0]
   d923a:	e7f2      	b.n	d9222 <_ZN6String7reserveEj+0xe>

000d923c <_ZN6String4copyEPKcj>:
/*********************************************/
/*  Copy and Move                            */
/*********************************************/

String & String::copy(const char *cstr, unsigned int length)
{
   d923c:	b537      	push	{r0, r1, r2, r4, r5, lr}
   d923e:	460d      	mov	r5, r1
	if (!reserve(length)) {
   d9240:	4611      	mov	r1, r2
   d9242:	9201      	str	r2, [sp, #4]
{
   d9244:	4604      	mov	r4, r0
	if (!reserve(length)) {
   d9246:	f7ff ffe5 	bl	d9214 <_ZN6String7reserveEj>
   d924a:	9a01      	ldr	r2, [sp, #4]
   d924c:	b928      	cbnz	r0, d925a <_ZN6String4copyEPKcj+0x1e>
		invalidate();
   d924e:	4620      	mov	r0, r4
   d9250:	f7ff ffc9 	bl	d91e6 <_ZN6String10invalidateEv>
	}
	len = length;
	memcpy(buffer, cstr, length);
	buffer[len] = 0;
	return *this;
}
   d9254:	4620      	mov	r0, r4
   d9256:	b003      	add	sp, #12
   d9258:	bd30      	pop	{r4, r5, pc}
	len = length;
   d925a:	60a2      	str	r2, [r4, #8]
	memcpy(buffer, cstr, length);
   d925c:	4629      	mov	r1, r5
   d925e:	6820      	ldr	r0, [r4, #0]
   d9260:	f004 fcde 	bl	ddc20 <memcpy>
	buffer[len] = 0;
   d9264:	6822      	ldr	r2, [r4, #0]
   d9266:	68a3      	ldr	r3, [r4, #8]
   d9268:	2100      	movs	r1, #0
   d926a:	54d1      	strb	r1, [r2, r3]
	return *this;
   d926c:	e7f2      	b.n	d9254 <_ZN6String4copyEPKcj+0x18>

000d926e <_ZN6StringC1EPKc>:
	buffer = NULL;
   d926e:	2300      	movs	r3, #0
String::String(const char *cstr)
   d9270:	b513      	push	{r0, r1, r4, lr}
	capacity = 0;
   d9272:	e9c0 3300 	strd	r3, r3, [r0]
String::String(const char *cstr)
   d9276:	4604      	mov	r4, r0
	len = 0;
   d9278:	6083      	str	r3, [r0, #8]
	flags = 0;
   d927a:	7303      	strb	r3, [r0, #12]
	if (cstr) copy(cstr, strlen(cstr));
   d927c:	b141      	cbz	r1, d9290 <_ZN6StringC1EPKc+0x22>
   d927e:	4608      	mov	r0, r1
   d9280:	9101      	str	r1, [sp, #4]
   d9282:	f004 fd40 	bl	ddd06 <strlen>
   d9286:	9901      	ldr	r1, [sp, #4]
   d9288:	4602      	mov	r2, r0
   d928a:	4620      	mov	r0, r4
   d928c:	f7ff ffd6 	bl	d923c <_ZN6String4copyEPKcj>
}
   d9290:	4620      	mov	r0, r4
   d9292:	b002      	add	sp, #8
   d9294:	bd10      	pop	{r4, pc}

000d9296 <_ZN6String4moveERS_>:
    return copy(reinterpret_cast<const char*>(pstr), length);
}

#ifdef __GXX_EXPERIMENTAL_CXX0X__
void String::move(String &rhs)
{
   d9296:	b538      	push	{r3, r4, r5, lr}
   d9298:	4605      	mov	r5, r0
	if (buffer) {
   d929a:	6800      	ldr	r0, [r0, #0]
{
   d929c:	460c      	mov	r4, r1
	if (buffer) {
   d929e:	b168      	cbz	r0, d92bc <_ZN6String4moveERS_+0x26>
		if (capacity >= rhs.len) {
   d92a0:	686a      	ldr	r2, [r5, #4]
   d92a2:	688b      	ldr	r3, [r1, #8]
   d92a4:	429a      	cmp	r2, r3
   d92a6:	d307      	bcc.n	d92b8 <_ZN6String4moveERS_+0x22>
			strcpy(buffer, rhs.buffer);
   d92a8:	6809      	ldr	r1, [r1, #0]
   d92aa:	f004 fd24 	bl	ddcf6 <strcpy>
			len = rhs.len;
   d92ae:	68a3      	ldr	r3, [r4, #8]
   d92b0:	60ab      	str	r3, [r5, #8]
			rhs.len = 0;
   d92b2:	2300      	movs	r3, #0
	buffer = rhs.buffer;
	capacity = rhs.capacity;
	len = rhs.len;
	rhs.buffer = NULL;
	rhs.capacity = 0;
	rhs.len = 0;
   d92b4:	60a3      	str	r3, [r4, #8]
}
   d92b6:	bd38      	pop	{r3, r4, r5, pc}
			free(buffer);
   d92b8:	f7ff fe38 	bl	d8f2c <free>
	buffer = rhs.buffer;
   d92bc:	6823      	ldr	r3, [r4, #0]
   d92be:	602b      	str	r3, [r5, #0]
	capacity = rhs.capacity;
   d92c0:	6863      	ldr	r3, [r4, #4]
   d92c2:	606b      	str	r3, [r5, #4]
	len = rhs.len;
   d92c4:	68a3      	ldr	r3, [r4, #8]
   d92c6:	60ab      	str	r3, [r5, #8]
	rhs.buffer = NULL;
   d92c8:	2300      	movs	r3, #0
	rhs.capacity = 0;
   d92ca:	e9c4 3300 	strd	r3, r3, [r4]
   d92ce:	e7f1      	b.n	d92b4 <_ZN6String4moveERS_+0x1e>

000d92d0 <_ZN6StringaSERKS_>:
#endif

String & String::operator = (const String &rhs)
{
	if (this == &rhs) return *this;
   d92d0:	4288      	cmp	r0, r1
{
   d92d2:	b510      	push	{r4, lr}
   d92d4:	4604      	mov	r4, r0
	if (this == &rhs) return *this;
   d92d6:	d005      	beq.n	d92e4 <_ZN6StringaSERKS_+0x14>

	if (rhs.buffer) copy(rhs.buffer, rhs.len);
   d92d8:	680b      	ldr	r3, [r1, #0]
   d92da:	b12b      	cbz	r3, d92e8 <_ZN6StringaSERKS_+0x18>
   d92dc:	688a      	ldr	r2, [r1, #8]
   d92de:	4619      	mov	r1, r3
   d92e0:	f7ff ffac 	bl	d923c <_ZN6String4copyEPKcj>
	else invalidate();

	return *this;
}
   d92e4:	4620      	mov	r0, r4
   d92e6:	bd10      	pop	{r4, pc}
	else invalidate();
   d92e8:	f7ff ff7d 	bl	d91e6 <_ZN6String10invalidateEv>
   d92ec:	e7fa      	b.n	d92e4 <_ZN6StringaSERKS_+0x14>

000d92ee <_ZN6StringC1ERKS_>:
String::String(const String &value)
   d92ee:	b510      	push	{r4, lr}
	buffer = NULL;
   d92f0:	2300      	movs	r3, #0
String::String(const String &value)
   d92f2:	4604      	mov	r4, r0
	capacity = 0;
   d92f4:	e9c0 3300 	strd	r3, r3, [r0]
	len = 0;
   d92f8:	6083      	str	r3, [r0, #8]
	flags = 0;
   d92fa:	7303      	strb	r3, [r0, #12]
	*this = value;
   d92fc:	f7ff ffe8 	bl	d92d0 <_ZN6StringaSERKS_>
}
   d9300:	4620      	mov	r0, r4
   d9302:	bd10      	pop	{r4, pc}

000d9304 <_ZN6StringaSEOS_>:
}

#ifdef __GXX_EXPERIMENTAL_CXX0X__
String & String::operator = (String &&rval)
{
	if (this != &rval) move(rval);
   d9304:	4288      	cmp	r0, r1
{
   d9306:	b510      	push	{r4, lr}
   d9308:	4604      	mov	r4, r0
	if (this != &rval) move(rval);
   d930a:	d001      	beq.n	d9310 <_ZN6StringaSEOS_+0xc>
   d930c:	f7ff ffc3 	bl	d9296 <_ZN6String4moveERS_>
	return *this;
}
   d9310:	4620      	mov	r0, r4
   d9312:	bd10      	pop	{r4, pc}

000d9314 <_ZN6StringaSEPKc>:
	return *this;
}
#endif

String & String::operator = (const char *cstr)
{
   d9314:	b513      	push	{r0, r1, r4, lr}
   d9316:	4604      	mov	r4, r0
	if (cstr) copy(cstr, strlen(cstr));
   d9318:	b159      	cbz	r1, d9332 <_ZN6StringaSEPKc+0x1e>
   d931a:	4608      	mov	r0, r1
   d931c:	9101      	str	r1, [sp, #4]
   d931e:	f004 fcf2 	bl	ddd06 <strlen>
   d9322:	9901      	ldr	r1, [sp, #4]
   d9324:	4602      	mov	r2, r0
   d9326:	4620      	mov	r0, r4
   d9328:	f7ff ff88 	bl	d923c <_ZN6String4copyEPKcj>
	else invalidate();

	return *this;
}
   d932c:	4620      	mov	r0, r4
   d932e:	b002      	add	sp, #8
   d9330:	bd10      	pop	{r4, pc}
	else invalidate();
   d9332:	f7ff ff58 	bl	d91e6 <_ZN6String10invalidateEv>
   d9336:	e7f9      	b.n	d932c <_ZN6StringaSEPKc+0x18>

000d9338 <_ZN6String6concatEPKcj>:
{
	return concat(s.buffer, s.len);
}

unsigned char String::concat(const char *cstr, unsigned int length)
{
   d9338:	b570      	push	{r4, r5, r6, lr}
   d933a:	4605      	mov	r5, r0
	unsigned int newlen = len + length;
	if (!cstr) return 0;
   d933c:	460e      	mov	r6, r1
   d933e:	b909      	cbnz	r1, d9344 <_ZN6String6concatEPKcj+0xc>
   d9340:	2000      	movs	r0, #0
	if (length == 0) return 1;
	if (!reserve(newlen)) return 0;
	strcpy(buffer + len, cstr);
	len = newlen;
	return 1;
}
   d9342:	bd70      	pop	{r4, r5, r6, pc}
	if (length == 0) return 1;
   d9344:	b16a      	cbz	r2, d9362 <_ZN6String6concatEPKcj+0x2a>
	unsigned int newlen = len + length;
   d9346:	6884      	ldr	r4, [r0, #8]
   d9348:	4414      	add	r4, r2
	if (!reserve(newlen)) return 0;
   d934a:	4621      	mov	r1, r4
   d934c:	f7ff ff62 	bl	d9214 <_ZN6String7reserveEj>
   d9350:	2800      	cmp	r0, #0
   d9352:	d0f5      	beq.n	d9340 <_ZN6String6concatEPKcj+0x8>
	strcpy(buffer + len, cstr);
   d9354:	6828      	ldr	r0, [r5, #0]
   d9356:	68ab      	ldr	r3, [r5, #8]
   d9358:	4631      	mov	r1, r6
   d935a:	4418      	add	r0, r3
   d935c:	f004 fccb 	bl	ddcf6 <strcpy>
	len = newlen;
   d9360:	60ac      	str	r4, [r5, #8]
	if (length == 0) return 1;
   d9362:	2001      	movs	r0, #1
   d9364:	e7ed      	b.n	d9342 <_ZN6String6concatEPKcj+0xa>

000d9366 <_ZplRK15StringSumHelperRK6String>:
/*********************************************/
/*  Concatenate                              */
/*********************************************/

StringSumHelper & operator + (const StringSumHelper &lhs, const String &rhs)
{
   d9366:	b510      	push	{r4, lr}
	StringSumHelper &a = const_cast<StringSumHelper&>(lhs);
	if (!a.concat(rhs.buffer, rhs.len)) a.invalidate();
   d9368:	688a      	ldr	r2, [r1, #8]
   d936a:	6809      	ldr	r1, [r1, #0]
{
   d936c:	4604      	mov	r4, r0
	if (!a.concat(rhs.buffer, rhs.len)) a.invalidate();
   d936e:	f7ff ffe3 	bl	d9338 <_ZN6String6concatEPKcj>
   d9372:	b910      	cbnz	r0, d937a <_ZplRK15StringSumHelperRK6String+0x14>
   d9374:	4620      	mov	r0, r4
   d9376:	f7ff ff36 	bl	d91e6 <_ZN6String10invalidateEv>
	return a;
}
   d937a:	4620      	mov	r0, r4
   d937c:	bd10      	pop	{r4, pc}

000d937e <_ZplRK15StringSumHelperPKc>:

StringSumHelper & operator + (const StringSumHelper &lhs, const char *cstr)
{
   d937e:	b513      	push	{r0, r1, r4, lr}
   d9380:	4604      	mov	r4, r0
	StringSumHelper &a = const_cast<StringSumHelper&>(lhs);
	if (!cstr || !a.concat(cstr, strlen(cstr))) a.invalidate();
   d9382:	b929      	cbnz	r1, d9390 <_ZplRK15StringSumHelperPKc+0x12>
   d9384:	4620      	mov	r0, r4
   d9386:	f7ff ff2e 	bl	d91e6 <_ZN6String10invalidateEv>
	return a;
}
   d938a:	4620      	mov	r0, r4
   d938c:	b002      	add	sp, #8
   d938e:	bd10      	pop	{r4, pc}
	if (!cstr || !a.concat(cstr, strlen(cstr))) a.invalidate();
   d9390:	4608      	mov	r0, r1
   d9392:	9101      	str	r1, [sp, #4]
   d9394:	f004 fcb7 	bl	ddd06 <strlen>
   d9398:	9901      	ldr	r1, [sp, #4]
   d939a:	4602      	mov	r2, r0
   d939c:	4620      	mov	r0, r4
   d939e:	f7ff ffcb 	bl	d9338 <_ZN6String6concatEPKcj>
   d93a2:	2800      	cmp	r0, #0
   d93a4:	d0ee      	beq.n	d9384 <_ZplRK15StringSumHelperPKc+0x6>
   d93a6:	e7f0      	b.n	d938a <_ZplRK15StringSumHelperPKc+0xc>

000d93a8 <_ZNK6String8getBytesEPhjj>:
	if (index >= len || !buffer) return 0;
	return buffer[index];
}

void String::getBytes(unsigned char *buf, unsigned int bufsize, unsigned int index) const
{
   d93a8:	b558      	push	{r3, r4, r6, lr}
   d93aa:	460e      	mov	r6, r1
	if (!bufsize || !buf) return;
   d93ac:	b12a      	cbz	r2, d93ba <_ZNK6String8getBytesEPhjj+0x12>
   d93ae:	b121      	cbz	r1, d93ba <_ZNK6String8getBytesEPhjj+0x12>
	if (index >= len) {
   d93b0:	6884      	ldr	r4, [r0, #8]
   d93b2:	42a3      	cmp	r3, r4
   d93b4:	d302      	bcc.n	d93bc <_ZNK6String8getBytesEPhjj+0x14>
		buf[0] = 0;
   d93b6:	2300      	movs	r3, #0
   d93b8:	700b      	strb	r3, [r1, #0]
	}
	unsigned int n = bufsize - 1;
	if (n > len - index) n = len - index;
	strncpy((char *)buf, buffer + index, n);
	buf[n] = 0;
}
   d93ba:	bd58      	pop	{r3, r4, r6, pc}
	if (n > len - index) n = len - index;
   d93bc:	1ae4      	subs	r4, r4, r3
	unsigned int n = bufsize - 1;
   d93be:	3a01      	subs	r2, #1
	strncpy((char *)buf, buffer + index, n);
   d93c0:	6801      	ldr	r1, [r0, #0]
   d93c2:	4294      	cmp	r4, r2
   d93c4:	bf28      	it	cs
   d93c6:	4614      	movcs	r4, r2
   d93c8:	4419      	add	r1, r3
   d93ca:	4622      	mov	r2, r4
   d93cc:	4630      	mov	r0, r6
   d93ce:	f004 fca2 	bl	ddd16 <strncpy>
	buf[n] = 0;
   d93d2:	2300      	movs	r3, #0
   d93d4:	5533      	strb	r3, [r6, r4]
   d93d6:	e7f0      	b.n	d93ba <_ZNK6String8getBytesEPhjj+0x12>

000d93d8 <_ZNK6String5toIntEv>:
/*  Parsing / Conversion                     */
/*********************************************/

long String::toInt(void) const
{
	if (buffer) return atol(buffer);
   d93d8:	6800      	ldr	r0, [r0, #0]
   d93da:	b108      	cbz	r0, d93e0 <_ZNK6String5toIntEv+0x8>
   d93dc:	f004 bc00 	b.w	ddbe0 <atol>
	return 0;
}
   d93e0:	4770      	bx	lr

000d93e2 <_ZNSt23_Sp_counted_ptr_inplaceIN8particle17BlePeerDeviceImplESaIS1_ELN9__gnu_cxx12_Lock_policyE0EED1Ev>:
      ~_Sp_counted_ptr_inplace() noexcept { }
   d93e2:	4770      	bx	lr

000d93e4 <_ZNSt23_Sp_counted_ptr_inplaceIN8particle14BleServiceImplESaIS1_ELN9__gnu_cxx12_Lock_policyE0EED1Ev>:
   d93e4:	4770      	bx	lr

000d93e6 <_ZNSt23_Sp_counted_ptr_inplaceIN8particle14BleServiceImplESaIS1_ELN9__gnu_cxx12_Lock_policyE0EE10_M_disposeEv>:
      }
   d93e6:	4770      	bx	lr

000d93e8 <_ZNSt23_Sp_counted_ptr_inplaceIN8particle21BleCharacteristicImplESaIS1_ELN9__gnu_cxx12_Lock_policyE0EED1Ev>:
      ~_Sp_counted_ptr_inplace() noexcept { }
   d93e8:	4770      	bx	lr
	...

000d93ec <_ZNSt23_Sp_counted_ptr_inplaceIN8particle21BleCharacteristicImplESaIS1_ELN9__gnu_cxx12_Lock_policyE0EE14_M_get_deleterERKSt9type_info>:
	    ||
   d93ec:	4b06      	ldr	r3, [pc, #24]	; (d9408 <_ZNSt23_Sp_counted_ptr_inplaceIN8particle21BleCharacteristicImplESaIS1_ELN9__gnu_cxx12_Lock_policyE0EE14_M_get_deleterERKSt9type_info+0x1c>)
   d93ee:	4299      	cmp	r1, r3
      _M_get_deleter(const std::type_info& __ti) noexcept override
   d93f0:	b510      	push	{r4, lr}
      __aligned_buffer(std::nullptr_t) { }

      void*
      _M_addr() noexcept
      {
        return static_cast<void*>(&_M_storage);
   d93f2:	f100 040c 	add.w	r4, r0, #12
	    ||
   d93f6:	d005      	beq.n	d9404 <_ZNSt23_Sp_counted_ptr_inplaceIN8particle21BleCharacteristicImplESaIS1_ELN9__gnu_cxx12_Lock_policyE0EE14_M_get_deleterERKSt9type_info+0x18>
	    _Sp_make_shared_tag::_S_eq(__ti)
   d93f8:	4608      	mov	r0, r1
   d93fa:	f002 f97b 	bl	db6f4 <_ZNSt19_Sp_make_shared_tag5_S_eqERKSt9type_info>
	    ||
   d93fe:	2800      	cmp	r0, #0
	return nullptr;
   d9400:	bf08      	it	eq
   d9402:	2400      	moveq	r4, #0
      }
   d9404:	4620      	mov	r0, r4
   d9406:	bd10      	pop	{r4, pc}
   d9408:	000deab8 	.word	0x000deab8

000d940c <_ZNSt23_Sp_counted_ptr_inplaceIN8particle14BleServiceImplESaIS1_ELN9__gnu_cxx12_Lock_policyE0EE14_M_get_deleterERKSt9type_info>:
	    ||
   d940c:	4b06      	ldr	r3, [pc, #24]	; (d9428 <_ZNSt23_Sp_counted_ptr_inplaceIN8particle14BleServiceImplESaIS1_ELN9__gnu_cxx12_Lock_policyE0EE14_M_get_deleterERKSt9type_info+0x1c>)
   d940e:	4299      	cmp	r1, r3
      _M_get_deleter(const std::type_info& __ti) noexcept override
   d9410:	b510      	push	{r4, lr}
   d9412:	f100 040c 	add.w	r4, r0, #12
	    ||
   d9416:	d005      	beq.n	d9424 <_ZNSt23_Sp_counted_ptr_inplaceIN8particle14BleServiceImplESaIS1_ELN9__gnu_cxx12_Lock_policyE0EE14_M_get_deleterERKSt9type_info+0x18>
	    _Sp_make_shared_tag::_S_eq(__ti)
   d9418:	4608      	mov	r0, r1
   d941a:	f002 f96b 	bl	db6f4 <_ZNSt19_Sp_make_shared_tag5_S_eqERKSt9type_info>
	    ||
   d941e:	2800      	cmp	r0, #0
	return nullptr;
   d9420:	bf08      	it	eq
   d9422:	2400      	moveq	r4, #0
      }
   d9424:	4620      	mov	r0, r4
   d9426:	bd10      	pop	{r4, pc}
   d9428:	000deab8 	.word	0x000deab8

000d942c <_ZNSt23_Sp_counted_ptr_inplaceIN8particle17BlePeerDeviceImplESaIS1_ELN9__gnu_cxx12_Lock_policyE0EE14_M_get_deleterERKSt9type_info>:
	    ||
   d942c:	4b06      	ldr	r3, [pc, #24]	; (d9448 <_ZNSt23_Sp_counted_ptr_inplaceIN8particle17BlePeerDeviceImplESaIS1_ELN9__gnu_cxx12_Lock_policyE0EE14_M_get_deleterERKSt9type_info+0x1c>)
   d942e:	4299      	cmp	r1, r3
      _M_get_deleter(const std::type_info& __ti) noexcept override
   d9430:	b510      	push	{r4, lr}
   d9432:	f100 040c 	add.w	r4, r0, #12
	    ||
   d9436:	d005      	beq.n	d9444 <_ZNSt23_Sp_counted_ptr_inplaceIN8particle17BlePeerDeviceImplESaIS1_ELN9__gnu_cxx12_Lock_policyE0EE14_M_get_deleterERKSt9type_info+0x18>
	    _Sp_make_shared_tag::_S_eq(__ti)
   d9438:	4608      	mov	r0, r1
   d943a:	f002 f95b 	bl	db6f4 <_ZNSt19_Sp_make_shared_tag5_S_eqERKSt9type_info>
	    ||
   d943e:	2800      	cmp	r0, #0
	return nullptr;
   d9440:	bf08      	it	eq
   d9442:	2400      	moveq	r4, #0
      }
   d9444:	4620      	mov	r0, r4
   d9446:	bd10      	pop	{r4, pc}
   d9448:	000deab8 	.word	0x000deab8

000d944c <_ZNSt23_Sp_counted_ptr_inplaceIN8particle21BleCharacteristicImplESaIS1_ELN9__gnu_cxx12_Lock_policyE0EED0Ev>:
      ~_Sp_counted_ptr_inplace() noexcept { }
   d944c:	b510      	push	{r4, lr}
   d944e:	2168      	movs	r1, #104	; 0x68
   d9450:	4604      	mov	r4, r0
   d9452:	f002 f948 	bl	db6e6 <_ZdlPvj>
   d9456:	4620      	mov	r0, r4
   d9458:	bd10      	pop	{r4, pc}

000d945a <_ZNSt23_Sp_counted_ptr_inplaceIN8particle14BleServiceImplESaIS1_ELN9__gnu_cxx12_Lock_policyE0EED0Ev>:
   d945a:	b510      	push	{r4, lr}
   d945c:	2128      	movs	r1, #40	; 0x28
   d945e:	4604      	mov	r4, r0
   d9460:	f002 f941 	bl	db6e6 <_ZdlPvj>
   d9464:	4620      	mov	r0, r4
   d9466:	bd10      	pop	{r4, pc}

000d9468 <_ZNSt23_Sp_counted_ptr_inplaceIN8particle17BlePeerDeviceImplESaIS1_ELN9__gnu_cxx12_Lock_policyE0EED0Ev>:
   d9468:	b510      	push	{r4, lr}
   d946a:	2130      	movs	r1, #48	; 0x30
   d946c:	4604      	mov	r4, r0
   d946e:	f002 f93a 	bl	db6e6 <_ZdlPvj>
   d9472:	4620      	mov	r0, r4
   d9474:	bd10      	pop	{r4, pc}

000d9476 <_ZNSt23_Sp_counted_ptr_inplaceIN8particle21BleCharacteristicImplESaIS1_ELN9__gnu_cxx12_Lock_policyE0EE10_M_destroyEv>:
	  {
	    ::operator delete(__p, std::align_val_t(alignof(_Tp)));
	    return;
	  }
#endif
	::operator delete(__p);
   d9476:	f7fa be12 	b.w	d409e <_ZdlPv>

000d947a <_ZNSt23_Sp_counted_ptr_inplaceIN8particle14BleServiceImplESaIS1_ELN9__gnu_cxx12_Lock_policyE0EE10_M_destroyEv>:
   d947a:	f7fa be10 	b.w	d409e <_ZdlPv>

000d947e <_ZNSt23_Sp_counted_ptr_inplaceIN8particle17BlePeerDeviceImplESaIS1_ELN9__gnu_cxx12_Lock_policyE0EE10_M_destroyEv>:
   d947e:	f7fa be0e 	b.w	d409e <_ZdlPv>

000d9482 <_ZNSt16_Sp_counted_baseILN9__gnu_cxx12_Lock_policyE0EE10_M_releaseEv.part.0>:
    _Sp_counted_base<_S_single>::_M_release() noexcept
   d9482:	b510      	push	{r4, lr}
          _M_dispose();
   d9484:	6803      	ldr	r3, [r0, #0]
    _Sp_counted_base<_S_single>::_M_release() noexcept
   d9486:	4604      	mov	r4, r0
          _M_dispose();
   d9488:	689b      	ldr	r3, [r3, #8]
   d948a:	4798      	blx	r3
          if (--_M_weak_count == 0)
   d948c:	68a3      	ldr	r3, [r4, #8]
   d948e:	3b01      	subs	r3, #1
   d9490:	60a3      	str	r3, [r4, #8]
   d9492:	b92b      	cbnz	r3, d94a0 <_ZNSt16_Sp_counted_baseILN9__gnu_cxx12_Lock_policyE0EE10_M_releaseEv.part.0+0x1e>
            _M_destroy();
   d9494:	6823      	ldr	r3, [r4, #0]
   d9496:	4620      	mov	r0, r4
   d9498:	68db      	ldr	r3, [r3, #12]
    }
   d949a:	e8bd 4010 	ldmia.w	sp!, {r4, lr}
            _M_destroy();
   d949e:	4718      	bx	r3
    }
   d94a0:	bd10      	pop	{r4, pc}

000d94a2 <_ZN14RecursiveMutexD1Ev>:
    RecursiveMutex() : handle_(nullptr)
    {
        os_mutex_recursive_create(&handle_);
    }

    ~RecursiveMutex() {
   d94a2:	b510      	push	{r4, lr}
   d94a4:	4604      	mov	r4, r0
        dispose();
    }

    void dispose()
    {
        if (handle_) {
   d94a6:	6800      	ldr	r0, [r0, #0]
   d94a8:	b108      	cbz	r0, d94ae <_ZN14RecursiveMutexD1Ev+0xc>
            os_mutex_recursive_destroy(handle_);
   d94aa:	f7ff facd 	bl	d8a48 <os_mutex_recursive_destroy>
    }
   d94ae:	4620      	mov	r0, r4
   d94b0:	bd10      	pop	{r4, pc}
	...

000d94b4 <_ZN8particle3ble13WiringBleLock4lockEv.isra.0>:
    WiringBleLock(WiringBleLock&& lock) :
            locked_(lock.locked_) {
        lock.locked_ = false;
    }

    void lock() {
   d94b4:	b510      	push	{r4, lr}
        mutex_.lock();
   d94b6:	4b04      	ldr	r3, [pc, #16]	; (d94c8 <_ZN8particle3ble13WiringBleLock4lockEv.isra.0+0x14>)
    void lock() {
   d94b8:	4604      	mov	r4, r0
            handle_ = nullptr;
        }
    }

    void lock() { os_mutex_recursive_lock(handle_); }
   d94ba:	6818      	ldr	r0, [r3, #0]
   d94bc:	f7ff facc 	bl	d8a58 <os_mutex_recursive_lock>
        locked_ = true;
   d94c0:	2301      	movs	r3, #1
   d94c2:	7023      	strb	r3, [r4, #0]
    }
   d94c4:	bd10      	pop	{r4, pc}
   d94c6:	bf00      	nop
   d94c8:	2003e5e4 	.word	0x2003e5e4

000d94cc <_ZN8particle3ble13WiringBleLock6unlockEv.isra.0>:

    void unlock() {
   d94cc:	b510      	push	{r4, lr}
        mutex_.unlock();
   d94ce:	4b04      	ldr	r3, [pc, #16]	; (d94e0 <_ZN8particle3ble13WiringBleLock6unlockEv.isra.0+0x14>)
    void unlock() {
   d94d0:	4604      	mov	r4, r0
    bool trylock() { return os_mutex_recursive_trylock(handle_)==0; }
    bool try_lock() { return trylock(); }
    void unlock() { os_mutex_recursive_unlock(handle_); }
   d94d2:	6818      	ldr	r0, [r3, #0]
   d94d4:	f7ff fac8 	bl	d8a68 <os_mutex_recursive_unlock>
        locked_ = false;
   d94d8:	2300      	movs	r3, #0
   d94da:	7023      	strb	r3, [r4, #0]
    }
   d94dc:	bd10      	pop	{r4, pc}
   d94de:	bf00      	nop
   d94e0:	2003e5e4 	.word	0x2003e5e4

000d94e4 <_ZN8particle18BleAdvertisingData6locateEPKhjNS_22BleAdvertisingDataTypeEPj.part.0>:
        break;
    }
    return uuids;
}

size_t BleAdvertisingData::locate(const uint8_t* buf, size_t len, BleAdvertisingDataType type, size_t* offset) {
   d94e4:	b5f0      	push	{r4, r5, r6, r7, lr}
    if (offset == nullptr) {
        return 0;
    }
    uint8_t adsType = static_cast<uint8_t>(type);
    size_t adsLen;
    for (size_t i = 0; (i + 3) <= len; i = i) {
   d94e6:	2500      	movs	r5, #0
   d94e8:	1cec      	adds	r4, r5, #3
   d94ea:	428c      	cmp	r4, r1
   d94ec:	d80d      	bhi.n	d950a <_ZN8particle18BleAdvertisingData6locateEPKhjNS_22BleAdvertisingDataTypeEPj.part.0+0x26>
        adsLen = buf[i];
        if (buf[i + 1] == adsType) {
   d94ee:	1c6e      	adds	r6, r5, #1
        adsLen = buf[i];
   d94f0:	5d44      	ldrb	r4, [r0, r5]
        if (buf[i + 1] == adsType) {
   d94f2:	5d87      	ldrb	r7, [r0, r6]
   d94f4:	4297      	cmp	r7, r2
   d94f6:	d105      	bne.n	d9504 <_ZN8particle18BleAdvertisingData6locateEPKhjNS_22BleAdvertisingDataTypeEPj.part.0+0x20>
            // The value of adsLen doesn't include the length field of an AD structure.
            if ((i + adsLen + 1) <= len) {
   d94f8:	4426      	add	r6, r4
   d94fa:	42b1      	cmp	r1, r6
   d94fc:	d305      	bcc.n	d950a <_ZN8particle18BleAdvertisingData6locateEPKhjNS_22BleAdvertisingDataTypeEPj.part.0+0x26>
                *offset = i;
   d94fe:	601d      	str	r5, [r3, #0]
                adsLen += 1;
   d9500:	1c60      	adds	r0, r4, #1
            // Navigate to the next AD structure.
            i += (adsLen + 1);
        }
    }
    return 0;
}
   d9502:	bdf0      	pop	{r4, r5, r6, r7, pc}
            i += (adsLen + 1);
   d9504:	3401      	adds	r4, #1
   d9506:	4425      	add	r5, r4
    for (size_t i = 0; (i + 3) <= len; i = i) {
   d9508:	e7ee      	b.n	d94e8 <_ZN8particle18BleAdvertisingData6locateEPKhjNS_22BleAdvertisingDataTypeEPj.part.0+0x4>
    return 0;
   d950a:	2000      	movs	r0, #0
   d950c:	e7f9      	b.n	d9502 <_ZN8particle18BleAdvertisingData6locateEPKhjNS_22BleAdvertisingDataTypeEPj.part.0+0x1e>

000d950e <_ZN8particle18BleAdvertisingData6appendENS_22BleAdvertisingDataTypeEPKhjb.part.0>:
size_t BleAdvertisingData::append(BleAdvertisingDataType type, const uint8_t* buf, size_t len, bool force) {
   d950e:	e92d 47f3 	stmdb	sp!, {r0, r1, r4, r5, r6, r7, r8, r9, sl, lr}
   d9512:	4604      	mov	r4, r0
   d9514:	f89d 7028 	ldrb.w	r7, [sp, #40]	; 0x28
   d9518:	461e      	mov	r6, r3
   d951a:	4689      	mov	r9, r1
   d951c:	ab01      	add	r3, sp, #4
   d951e:	4690      	mov	r8, r2
   d9520:	460a      	mov	r2, r1
   d9522:	6a01      	ldr	r1, [r0, #32]
   d9524:	f7ff ffde 	bl	d94e4 <_ZN8particle18BleAdvertisingData6locateEPKhjNS_22BleAdvertisingDataTypeEPj.part.0>
    if (!force && adsLen > 0) {
   d9528:	6a25      	ldr	r5, [r4, #32]
   d952a:	1cb3      	adds	r3, r6, #2
   d952c:	bb17      	cbnz	r7, d9574 <_ZN8particle18BleAdvertisingData6appendENS_22BleAdvertisingDataTypeEPKhjb.part.0+0x66>
   d952e:	b308      	cbz	r0, d9574 <_ZN8particle18BleAdvertisingData6appendENS_22BleAdvertisingDataTypeEPKhjb.part.0+0x66>
        if ((staLen + len + 2) <= BLE_MAX_ADV_DATA_LEN) {
   d9530:	195f      	adds	r7, r3, r5
   d9532:	1a3f      	subs	r7, r7, r0
   d9534:	2f1f      	cmp	r7, #31
   d9536:	d819      	bhi.n	d956c <_ZN8particle18BleAdvertisingData6appendENS_22BleAdvertisingDataTypeEPKhjb.part.0+0x5e>
            uint16_t moveLen = selfLen_ - offset - adsLen;
   d9538:	f8dd 9004 	ldr.w	r9, [sp, #4]
            memmove(&selfData_[offset + len + 2], &selfData_[offset + adsLen], moveLen);
   d953c:	f109 0a02 	add.w	sl, r9, #2
            uint16_t moveLen = selfLen_ - offset - adsLen;
   d9540:	eba5 0209 	sub.w	r2, r5, r9
   d9544:	1a12      	subs	r2, r2, r0
            memmove(&selfData_[offset + len + 2], &selfData_[offset + adsLen], moveLen);
   d9546:	eb00 0109 	add.w	r1, r0, r9
   d954a:	eb06 000a 	add.w	r0, r6, sl
   d954e:	b292      	uxth	r2, r2
   d9550:	4421      	add	r1, r4
   d9552:	4420      	add	r0, r4
   d9554:	f004 fb72 	bl	ddc3c <memmove>
            selfData_[offset] = len + 1;
   d9558:	1c73      	adds	r3, r6, #1
   d955a:	f804 3009 	strb.w	r3, [r4, r9]
            memcpy(&selfData_[offset + 2], buf, len);
   d955e:	4632      	mov	r2, r6
   d9560:	4641      	mov	r1, r8
   d9562:	eb04 000a 	add.w	r0, r4, sl
   d9566:	f004 fb5b 	bl	ddc20 <memcpy>
            selfLen_ = staLen + len + 2;
   d956a:	6227      	str	r7, [r4, #32]
}
   d956c:	6a20      	ldr	r0, [r4, #32]
   d956e:	b002      	add	sp, #8
   d9570:	e8bd 87f0 	ldmia.w	sp!, {r4, r5, r6, r7, r8, r9, sl, pc}
    else if ((selfLen_ + len + 2) <= BLE_MAX_ADV_DATA_LEN) {
   d9574:	442b      	add	r3, r5
   d9576:	2b1f      	cmp	r3, #31
   d9578:	d8f8      	bhi.n	d956c <_ZN8particle18BleAdvertisingData6appendENS_22BleAdvertisingDataTypeEPKhjb.part.0+0x5e>
        selfData_[selfLen_++] = len + 1;
   d957a:	1c73      	adds	r3, r6, #1
   d957c:	5563      	strb	r3, [r4, r5]
        selfData_[selfLen_++] = static_cast<uint8_t>(type);
   d957e:	1ca8      	adds	r0, r5, #2
   d9580:	4425      	add	r5, r4
   d9582:	6220      	str	r0, [r4, #32]
        memcpy(&selfData_[selfLen_], buf, len);
   d9584:	4632      	mov	r2, r6
        selfData_[selfLen_++] = static_cast<uint8_t>(type);
   d9586:	f885 9001 	strb.w	r9, [r5, #1]
        memcpy(&selfData_[selfLen_], buf, len);
   d958a:	4641      	mov	r1, r8
   d958c:	4420      	add	r0, r4
   d958e:	f004 fb47 	bl	ddc20 <memcpy>
        selfLen_ += len;
   d9592:	6a23      	ldr	r3, [r4, #32]
   d9594:	4433      	add	r3, r6
   d9596:	6223      	str	r3, [r4, #32]
   d9598:	e7e8      	b.n	d956c <_ZN8particle18BleAdvertisingData6appendENS_22BleAdvertisingDataTypeEPKhjb.part.0+0x5e>
	...

000d959c <_ZN8particle10BleServiceC2ERKNS_7BleUuidE.part.0>:
}

BleCharacteristic::BleCharacteristic(const BleCharacteristic& characteristic)
        : impl_(characteristic.impl_) {
    if (!impl()) {
        SPARK_ASSERT(false);
   d959c:	4a02      	ldr	r2, [pc, #8]	; (d95a8 <_ZN8particle10BleServiceC2ERKNS_7BleUuidE.part.0+0xc>)
   d959e:	2100      	movs	r1, #0
   d95a0:	200a      	movs	r0, #10
   d95a2:	f7ff bbbd 	b.w	d8d20 <panic_>
   d95a6:	bf00      	nop
   d95a8:	000d88b5 	.word	0x000d88b5

000d95ac <_ZNSt14_Function_base13_Base_managerISt5_BindIFPFvPKhjRKN8particle13BlePeerDeviceEPvESt12_PlaceholderILi1EESB_ILi2EESB_ILi3EES8_EEE10_M_managerERSt9_Any_dataRKSI_St18_Manager_operation>:
      public:
	static bool
	_M_manager(_Any_data& __dest, const _Any_data& __source,
		   _Manager_operation __op)
	{
	  switch (__op)
   d95ac:	2a02      	cmp	r2, #2
	_M_manager(_Any_data& __dest, const _Any_data& __source,
   d95ae:	b538      	push	{r3, r4, r5, lr}
   d95b0:	4604      	mov	r4, r0
	  switch (__op)
   d95b2:	d007      	beq.n	d95c4 <_ZNSt14_Function_base13_Base_managerISt5_BindIFPFvPKhjRKN8particle13BlePeerDeviceEPvESt12_PlaceholderILi1EESB_ILi2EESB_ILi3EES8_EEE10_M_managerERSt9_Any_dataRKSI_St18_Manager_operation+0x18>
   d95b4:	2a03      	cmp	r2, #3
   d95b6:	d011      	beq.n	d95dc <_ZNSt14_Function_base13_Base_managerISt5_BindIFPFvPKhjRKN8particle13BlePeerDeviceEPvESt12_PlaceholderILi1EESB_ILi2EESB_ILi3EES8_EEE10_M_managerERSt9_Any_dataRKSI_St18_Manager_operation+0x30>
   d95b8:	2a01      	cmp	r2, #1
   d95ba:	d101      	bne.n	d95c0 <_ZNSt14_Function_base13_Base_managerISt5_BindIFPFvPKhjRKN8particle13BlePeerDeviceEPvESt12_PlaceholderILi1EESB_ILi2EESB_ILi3EES8_EEE10_M_managerERSt9_Any_dataRKSI_St18_Manager_operation+0x14>
	    return __source._M_access<_Functor*>();
   d95bc:	680b      	ldr	r3, [r1, #0]
	  __dest._M_access<_Functor*>() =
   d95be:	6023      	str	r3, [r4, #0]
	    case __destroy_functor:
	      _M_destroy(__dest, _Local_storage());
	      break;
	    }
	  return false;
	}
   d95c0:	2000      	movs	r0, #0
   d95c2:	bd38      	pop	{r3, r4, r5, pc}
	    new _Functor(*__source._M_access<const _Functor*>());
   d95c4:	2008      	movs	r0, #8
	  __dest._M_access<_Functor*>() =
   d95c6:	680d      	ldr	r5, [r1, #0]
	    new _Functor(*__source._M_access<const _Functor*>());
   d95c8:	f7fa fd65 	bl	d4096 <_Znwj>
   d95cc:	4603      	mov	r3, r0
   d95ce:	2800      	cmp	r0, #0
   d95d0:	d0f5      	beq.n	d95be <_ZNSt14_Function_base13_Base_managerISt5_BindIFPFvPKhjRKN8particle13BlePeerDeviceEPvESt12_PlaceholderILi1EESB_ILi2EESB_ILi3EES8_EEE10_M_managerERSt9_Any_dataRKSI_St18_Manager_operation+0x12>
   d95d2:	e895 0003 	ldmia.w	r5, {r0, r1}
   d95d6:	e883 0003 	stmia.w	r3, {r0, r1}
   d95da:	e7f0      	b.n	d95be <_ZNSt14_Function_base13_Base_managerISt5_BindIFPFvPKhjRKN8particle13BlePeerDeviceEPvESt12_PlaceholderILi1EESB_ILi2EESB_ILi3EES8_EEE10_M_managerERSt9_Any_dataRKSI_St18_Manager_operation+0x12>
	  delete __victim._M_access<_Functor*>();
   d95dc:	6800      	ldr	r0, [r0, #0]
   d95de:	2800      	cmp	r0, #0
   d95e0:	d0ee      	beq.n	d95c0 <_ZNSt14_Function_base13_Base_managerISt5_BindIFPFvPKhjRKN8particle13BlePeerDeviceEPvESt12_PlaceholderILi1EESB_ILi2EESB_ILi3EES8_EEE10_M_managerERSt9_Any_dataRKSI_St18_Manager_operation+0x14>
   d95e2:	2108      	movs	r1, #8
   d95e4:	f002 f87f 	bl	db6e6 <_ZdlPvj>
   d95e8:	e7ea      	b.n	d95c0 <_ZNSt14_Function_base13_Base_managerISt5_BindIFPFvPKhjRKN8particle13BlePeerDeviceEPvESt12_PlaceholderILi1EESB_ILi2EESB_ILi3EES8_EEE10_M_managerERSt9_Any_dataRKSI_St18_Manager_operation+0x14>

000d95ea <_ZNSt17_Function_handlerIFvPKhjRKN8particle13BlePeerDeviceEESt5_BindIFPFvS1_jS5_PvESt12_PlaceholderILi1EESB_ILi2EESB_ILi3EES8_EEE9_M_invokeERKSt9_Any_dataOS1_OjS5_>:
    {
      typedef _Function_base::_Base_manager<_Functor> _Base;

     public:
      static void
      _M_invoke(const _Any_data& __functor, _ArgTypes&&... __args)
   d95ea:	b430      	push	{r4, r5}
   d95ec:	460d      	mov	r5, r1
   d95ee:	4611      	mov	r1, r2
   d95f0:	461a      	mov	r2, r3
	    return __source._M_access<_Functor*>();
   d95f2:	6803      	ldr	r3, [r0, #0]
    { return static_cast<_Up&&>(__t); }

  template<typename _Res, typename _Fn, typename... _Args>
    constexpr _Res
    __invoke_impl(__invoke_other, _Fn&& __f, _Args&&... __args)
    { return std::forward<_Fn>(__f)(std::forward<_Args>(__args)...); }
   d95f4:	6809      	ldr	r1, [r1, #0]
   d95f6:	6828      	ldr	r0, [r5, #0]
   d95f8:	e9d3 4300 	ldrd	r4, r3, [r3]
   d95fc:	46a4      	mov	ip, r4
      {
	(*_Base::_M_get_pointer(__functor))(
	    std::forward<_ArgTypes>(__args)...);
      }
   d95fe:	bc30      	pop	{r4, r5}
   d9600:	4760      	bx	ip

000d9602 <_ZNSt14_Function_baseD1Ev>:
    ~_Function_base()
   d9602:	b510      	push	{r4, lr}
      if (_M_manager)
   d9604:	6883      	ldr	r3, [r0, #8]
    ~_Function_base()
   d9606:	4604      	mov	r4, r0
      if (_M_manager)
   d9608:	b113      	cbz	r3, d9610 <_ZNSt14_Function_baseD1Ev+0xe>
	_M_manager(_M_functor, _M_functor, __destroy_functor);
   d960a:	2203      	movs	r2, #3
   d960c:	4601      	mov	r1, r0
   d960e:	4798      	blx	r3
    }
   d9610:	4620      	mov	r0, r4
   d9612:	bd10      	pop	{r4, pc}

000d9614 <_ZNSt23_Sp_counted_ptr_inplaceIN8particle21BleCharacteristicImplESaIS1_ELN9__gnu_cxx12_Lock_policyE0EE10_M_disposeEv>:
      _M_dispose() noexcept
   d9614:	b510      	push	{r4, lr}
   d9616:	4604      	mov	r4, r0
   *  @ingroup functors
   *
   *  Polymorphic function wrapper.
   */
  template<typename _Res, typename... _ArgTypes>
    class function<_Res(_ArgTypes...)>
   d9618:	3058      	adds	r0, #88	; 0x58
   d961a:	f7ff fff2 	bl	d9602 <_ZNSt14_Function_baseD1Ev>
    ~BleCharacteristicImpl() = default;
   d961e:	f104 0048 	add.w	r0, r4, #72	; 0x48
      }
   d9622:	e8bd 4010 	ldmia.w	sp!, {r4, lr}
   d9626:	f7ff bdd7 	b.w	d91d8 <_ZN6StringD1Ev>

000d962a <_ZN8particle11hexToNibbleEc>:
#include <cstdint>

namespace particle {

inline int hexToNibble(char c) {
    if (c >= '0' && c <= '9') {
   d962a:	f1a0 0330 	sub.w	r3, r0, #48	; 0x30
   d962e:	b2da      	uxtb	r2, r3
   d9630:	2a09      	cmp	r2, #9
   d9632:	d801      	bhi.n	d9638 <_ZN8particle11hexToNibbleEc+0xe>
        return (c - '0');
   d9634:	4618      	mov	r0, r3
   d9636:	4770      	bx	lr
    } else if (c >= 'a' && c <= 'f') {
   d9638:	f1a0 0361 	sub.w	r3, r0, #97	; 0x61
   d963c:	2b05      	cmp	r3, #5
   d963e:	d801      	bhi.n	d9644 <_ZN8particle11hexToNibbleEc+0x1a>
        return (c - 'a' + 0x0a);
   d9640:	3857      	subs	r0, #87	; 0x57
   d9642:	4770      	bx	lr
    } else if (c >= 'A' && c <= 'F') {
   d9644:	f1a0 0341 	sub.w	r3, r0, #65	; 0x41
   d9648:	2b05      	cmp	r3, #5
        return (c - 'A' + 0x0a);
   d964a:	bf94      	ite	ls
   d964c:	3837      	subls	r0, #55	; 0x37
    }
    return -1;
   d964e:	f04f 30ff 	movhi.w	r0, #4294967295
}
   d9652:	4770      	bx	lr

000d9654 <_ZN8particle3ble13WiringBleLockC1Ev>:
    WiringBleLock() :
   d9654:	b510      	push	{r4, lr}
            locked_(false) {
   d9656:	2300      	movs	r3, #0
    WiringBleLock() :
   d9658:	4604      	mov	r4, r0
            locked_(false) {
   d965a:	7003      	strb	r3, [r0, #0]
        lock();
   d965c:	f7ff ff2a 	bl	d94b4 <_ZN8particle3ble13WiringBleLock4lockEv.isra.0>
    }
   d9660:	4620      	mov	r0, r4
   d9662:	bd10      	pop	{r4, pc}

000d9664 <_ZN8particle3ble13WiringBleLockD1Ev>:
    ~WiringBleLock() {
   d9664:	b510      	push	{r4, lr}
        if (locked_) {
   d9666:	7803      	ldrb	r3, [r0, #0]
    ~WiringBleLock() {
   d9668:	4604      	mov	r4, r0
        if (locked_) {
   d966a:	b10b      	cbz	r3, d9670 <_ZN8particle3ble13WiringBleLockD1Ev+0xc>
            unlock();
   d966c:	f7ff ff2e 	bl	d94cc <_ZN8particle3ble13WiringBleLock6unlockEv.isra.0>
    }
   d9670:	4620      	mov	r0, r4
   d9672:	bd10      	pop	{r4, pc}

000d9674 <_ZN8particle10BleAddressaSERK14hal_ble_addr_t>:
BleAddress& BleAddress::operator=(const hal_ble_addr_t& addr) {
   d9674:	b082      	sub	sp, #8
   d9676:	4603      	mov	r3, r0
    address_ = addr;
   d9678:	6808      	ldr	r0, [r1, #0]
   d967a:	6849      	ldr	r1, [r1, #4]
   d967c:	466a      	mov	r2, sp
   d967e:	c203      	stmia	r2!, {r0, r1}
    address_ = addr.address_;
   d9680:	466a      	mov	r2, sp
   d9682:	ca03      	ldmia	r2!, {r0, r1}
   d9684:	6018      	str	r0, [r3, #0]
}
   d9686:	4618      	mov	r0, r3
    address_ = addr.address_;
   d9688:	6059      	str	r1, [r3, #4]
}
   d968a:	b002      	add	sp, #8
   d968c:	4770      	bx	lr

000d968e <_ZNK8particle10BleAddresseqERKS0_>:
bool BleAddress::operator==(const BleAddress& addr) const {
   d968e:	b508      	push	{r3, lr}
    if (address_.addr_type == addr.address_.addr_type && !memcmp(address_.addr, addr.address_.addr, BLE_SIG_ADDR_LEN)) {
   d9690:	7982      	ldrb	r2, [r0, #6]
   d9692:	798b      	ldrb	r3, [r1, #6]
   d9694:	429a      	cmp	r2, r3
   d9696:	d106      	bne.n	d96a6 <_ZNK8particle10BleAddresseqERKS0_+0x18>
   d9698:	2206      	movs	r2, #6
   d969a:	f004 fab3 	bl	ddc04 <memcmp>
   d969e:	fab0 f080 	clz	r0, r0
   d96a2:	0940      	lsrs	r0, r0, #5
}
   d96a4:	bd08      	pop	{r3, pc}
    return false;
   d96a6:	2000      	movs	r0, #0
   d96a8:	e7fc      	b.n	d96a4 <_ZNK8particle10BleAddresseqERKS0_+0x16>

000d96aa <_ZN8particle10BleAddress5clearEv>:
    memset(address_.addr, 0xFF, BLE_SIG_ADDR_LEN);
   d96aa:	f04f 33ff 	mov.w	r3, #4294967295
   d96ae:	6003      	str	r3, [r0, #0]
   d96b0:	8083      	strh	r3, [r0, #4]
}
   d96b2:	2000      	movs	r0, #0
   d96b4:	4770      	bx	lr

000d96b6 <_ZN8particle10BleAddressC1Ev>:
        : address_{} {
   d96b6:	2100      	movs	r1, #0
BleAddress::BleAddress()
   d96b8:	b508      	push	{r3, lr}
        : address_{} {
   d96ba:	6001      	str	r1, [r0, #0]
   d96bc:	6041      	str	r1, [r0, #4]
BleAddress::BleAddress()
   d96be:	4602      	mov	r2, r0
    clear();
   d96c0:	f7ff fff3 	bl	d96aa <_ZN8particle10BleAddress5clearEv>
    address_.addr_type = BLE_SIG_ADDR_TYPE_PUBLIC;
   d96c4:	7191      	strb	r1, [r2, #6]
}
   d96c6:	4610      	mov	r0, r2
   d96c8:	bd08      	pop	{r3, pc}
	...

000d96cc <_ZN8particle7BleUuidC1Ev>:
        : type_(BleUuidType::LONG) {
   d96cc:	2201      	movs	r2, #1
   d96ce:	6102      	str	r2, [r0, #16]
    memcpy(uuid128_, BASE_UUID, BLE_SIG_UUID_128BIT_LEN);
   d96d0:	4a06      	ldr	r2, [pc, #24]	; (d96ec <_ZN8particle7BleUuidC1Ev+0x20>)
   d96d2:	6811      	ldr	r1, [r2, #0]
   d96d4:	6001      	str	r1, [r0, #0]
   d96d6:	6851      	ldr	r1, [r2, #4]
   d96d8:	6041      	str	r1, [r0, #4]
   d96da:	8911      	ldrh	r1, [r2, #8]
   d96dc:	7a92      	ldrb	r2, [r2, #10]
   d96de:	7282      	strb	r2, [r0, #10]
   d96e0:	2200      	movs	r2, #0
   d96e2:	8101      	strh	r1, [r0, #8]
   d96e4:	f8c0 200b 	str.w	r2, [r0, #11]
   d96e8:	73c2      	strb	r2, [r0, #15]
}
   d96ea:	4770      	bx	lr
   d96ec:	000deac0 	.word	0x000deac0

000d96f0 <_ZN8particle7BleUuidC1ERKS0_>:
BleUuid::BleUuid(const BleUuid& uuid)
   d96f0:	b510      	push	{r4, lr}
        : type_(uuid.type_) {
   d96f2:	690b      	ldr	r3, [r1, #16]
   d96f4:	6103      	str	r3, [r0, #16]
    memcpy(uuid128_, uuid.uuid128_, BLE_SIG_UUID_128BIT_LEN);
   d96f6:	f101 0210 	add.w	r2, r1, #16
   d96fa:	4603      	mov	r3, r0
   d96fc:	f851 4b04 	ldr.w	r4, [r1], #4
   d9700:	f843 4b04 	str.w	r4, [r3], #4
   d9704:	4291      	cmp	r1, r2
   d9706:	d1f9      	bne.n	d96fc <_ZN8particle7BleUuidC1ERKS0_+0xc>
}
   d9708:	bd10      	pop	{r4, pc}

000d970a <_ZN8particle7BleUuidC1EPKhNS_12BleUuidOrderE>:
BleUuid::BleUuid(const uint8_t* uuid128, BleUuidOrder order) {
   d970a:	b510      	push	{r4, lr}
    if (uuid128) {
   d970c:	460b      	mov	r3, r1
BleUuid::BleUuid(const uint8_t* uuid128, BleUuidOrder order) {
   d970e:	4604      	mov	r4, r0
    if (uuid128) {
   d9710:	b1b1      	cbz	r1, d9740 <_ZN8particle7BleUuidC1EPKhNS_12BleUuidOrderE+0x36>
        if (order == BleUuidOrder::LSB) {
   d9712:	2a01      	cmp	r2, #1
   d9714:	f101 0210 	add.w	r2, r1, #16
   d9718:	d10a      	bne.n	d9730 <_ZN8particle7BleUuidC1EPKhNS_12BleUuidOrderE+0x26>
            memcpy(uuid128_, uuid128, BLE_SIG_UUID_128BIT_LEN);
   d971a:	4601      	mov	r1, r0
   d971c:	f853 0b04 	ldr.w	r0, [r3], #4
   d9720:	f841 0b04 	str.w	r0, [r1], #4
   d9724:	4293      	cmp	r3, r2
   d9726:	d1f9      	bne.n	d971c <_ZN8particle7BleUuidC1EPKhNS_12BleUuidOrderE+0x12>
        type_ = BleUuidType::LONG;
   d9728:	2301      	movs	r3, #1
   d972a:	6123      	str	r3, [r4, #16]
}
   d972c:	4620      	mov	r0, r4
   d972e:	bd10      	pop	{r4, pc}
   d9730:	1e41      	subs	r1, r0, #1
                uuid128_[i] = uuid128[j];
   d9732:	f812 0d01 	ldrb.w	r0, [r2, #-1]!
   d9736:	f801 0f01 	strb.w	r0, [r1, #1]!
            for (uint8_t i = 0, j = BLE_SIG_UUID_128BIT_LEN - 1; i < BLE_SIG_UUID_128BIT_LEN; i++, j--) {
   d973a:	429a      	cmp	r2, r3
   d973c:	d1f9      	bne.n	d9732 <_ZN8particle7BleUuidC1EPKhNS_12BleUuidOrderE+0x28>
   d973e:	e7f3      	b.n	d9728 <_ZN8particle7BleUuidC1EPKhNS_12BleUuidOrderE+0x1e>
        memset(uuid128_, 0x00, BLE_SIG_UUID_128BIT_LEN);
   d9740:	2210      	movs	r2, #16
   d9742:	f004 fa95 	bl	ddc70 <memset>
   d9746:	e7f1      	b.n	d972c <_ZN8particle7BleUuidC1EPKhNS_12BleUuidOrderE+0x22>

000d9748 <_ZN8particle7BleUuidC1EPKhtNS_12BleUuidOrderE>:
BleUuid::BleUuid(const uint8_t* uuid128, uint16_t uuid16, BleUuidOrder order)
   d9748:	b538      	push	{r3, r4, r5, lr}
   d974a:	4604      	mov	r4, r0
   d974c:	4615      	mov	r5, r2
        : BleUuid(uuid128, order) {
   d974e:	461a      	mov	r2, r3
   d9750:	f7ff ffdb 	bl	d970a <_ZN8particle7BleUuidC1EPKhNS_12BleUuidOrderE>
    uuid128_[UUID16_LO] = (uint8_t)(uuid16 & 0x00FF);
   d9754:	81a5      	strh	r5, [r4, #12]
}
   d9756:	4620      	mov	r0, r4
   d9758:	bd38      	pop	{r3, r4, r5, pc}
	...

000d975c <_ZNK8particle7BleUuid7isValidEv>:
bool BleUuid::isValid() const {
   d975c:	b508      	push	{r3, lr}
    if (type() == BleUuidType::SHORT) {
   d975e:	6902      	ldr	r2, [r0, #16]
   d9760:	b922      	cbnz	r2, d976c <_ZNK8particle7BleUuid7isValidEv+0x10>
        return (uuid128_[UUID16_LO] != 0x00 || uuid128_[UUID16_HI] != 0x00);
   d9762:	8980      	ldrh	r0, [r0, #12]
        return memcmp(uuid128_, BASE_UUID, BLE_SIG_UUID_128BIT_LEN);
   d9764:	3800      	subs	r0, #0
   d9766:	bf18      	it	ne
   d9768:	2001      	movne	r0, #1
}
   d976a:	bd08      	pop	{r3, pc}
        return memcmp(uuid128_, BASE_UUID, BLE_SIG_UUID_128BIT_LEN);
   d976c:	4902      	ldr	r1, [pc, #8]	; (d9778 <_ZNK8particle7BleUuid7isValidEv+0x1c>)
   d976e:	2210      	movs	r2, #16
   d9770:	f004 fa48 	bl	ddc04 <memcmp>
   d9774:	e7f6      	b.n	d9764 <_ZNK8particle7BleUuid7isValidEv+0x8>
   d9776:	bf00      	nop
   d9778:	000deae0 	.word	0x000deae0

000d977c <_ZNK8particle7BleUuid4typeEv>:
}
   d977c:	6900      	ldr	r0, [r0, #16]
   d977e:	4770      	bx	lr

000d9780 <_ZN8particle7BleUuid7halUUIDEv>:
hal_ble_uuid_t BleUuid::halUUID() {
   d9780:	b538      	push	{r3, r4, r5, lr}
   d9782:	460c      	mov	r4, r1
    hal_ble_uuid_t uuid = {};
   d9784:	2214      	movs	r2, #20
   d9786:	2100      	movs	r1, #0
hal_ble_uuid_t BleUuid::halUUID() {
   d9788:	4605      	mov	r5, r0
    hal_ble_uuid_t uuid = {};
   d978a:	f004 fa71 	bl	ddc70 <memset>
    if (type_ == BleUuidType::SHORT) {
   d978e:	6923      	ldr	r3, [r4, #16]
   d9790:	b93b      	cbnz	r3, d97a2 <_ZN8particle7BleUuid7halUUIDEv+0x22>
        uuid.uuid16 = (uint16_t)uuid128_[UUID16_LO] | ((uint16_t)uuid128_[UUID16_HI] << 8);
   d9792:	7b62      	ldrb	r2, [r4, #13]
        uuid.type = BLE_UUID_TYPE_16BIT;
   d9794:	742b      	strb	r3, [r5, #16]
        uuid.uuid16 = (uint16_t)uuid128_[UUID16_LO] | ((uint16_t)uuid128_[UUID16_HI] << 8);
   d9796:	7b23      	ldrb	r3, [r4, #12]
   d9798:	ea43 2302 	orr.w	r3, r3, r2, lsl #8
   d979c:	802b      	strh	r3, [r5, #0]
}
   d979e:	4628      	mov	r0, r5
   d97a0:	bd38      	pop	{r3, r4, r5, pc}
        uuid.type = BLE_UUID_TYPE_128BIT;
   d97a2:	2301      	movs	r3, #1
   d97a4:	742b      	strb	r3, [r5, #16]
        memcpy(uuid.uuid128, uuid128_, BLE_SIG_UUID_128BIT_LEN);
   d97a6:	f104 0210 	add.w	r2, r4, #16
   d97aa:	462b      	mov	r3, r5
   d97ac:	f854 1b04 	ldr.w	r1, [r4], #4
   d97b0:	f843 1b04 	str.w	r1, [r3], #4
   d97b4:	4294      	cmp	r4, r2
   d97b6:	d1f9      	bne.n	d97ac <_ZN8particle7BleUuid7halUUIDEv+0x2c>
   d97b8:	e7f1      	b.n	d979e <_ZN8particle7BleUuid7halUUIDEv+0x1e>

000d97ba <_ZNK8particle7BleUuid7shortedEv>:
    return ((uint16_t)uuid128_[UUID16_LO] | ((uint16_t)uuid128_[UUID16_HI] << 8));
   d97ba:	7b42      	ldrb	r2, [r0, #13]
   d97bc:	7b00      	ldrb	r0, [r0, #12]
}
   d97be:	ea40 2002 	orr.w	r0, r0, r2, lsl #8
   d97c2:	4770      	bx	lr

000d97c4 <_ZNK8particle7BleUuid8rawBytesEv>:
}
   d97c4:	4770      	bx	lr

000d97c6 <_ZNK8particle7BleUuideqERKS0_>:
bool BleUuid::operator==(const BleUuid& uuid) const {
   d97c6:	b508      	push	{r3, lr}
    return ((type_ == uuid.type_) && !memcmp(uuid128_, uuid.uuid128_, BLE_SIG_UUID_128BIT_LEN));
   d97c8:	6902      	ldr	r2, [r0, #16]
   d97ca:	690b      	ldr	r3, [r1, #16]
   d97cc:	429a      	cmp	r2, r3
   d97ce:	d106      	bne.n	d97de <_ZNK8particle7BleUuideqERKS0_+0x18>
   d97d0:	2210      	movs	r2, #16
   d97d2:	f004 fa17 	bl	ddc04 <memcmp>
   d97d6:	fab0 f080 	clz	r0, r0
   d97da:	0940      	lsrs	r0, r0, #5
}
   d97dc:	bd08      	pop	{r3, pc}
    return ((type_ == uuid.type_) && !memcmp(uuid128_, uuid.uuid128_, BLE_SIG_UUID_128BIT_LEN));
   d97de:	2000      	movs	r0, #0
   d97e0:	e7fc      	b.n	d97dc <_ZNK8particle7BleUuideqERKS0_+0x16>
	...

000d97e4 <_ZN8particle7BleUuid9constructEPKc>:
    type_ = BleUuidType::LONG;
   d97e4:	2301      	movs	r3, #1
void BleUuid::construct(const char* uuid) {
   d97e6:	e92d 41f3 	stmdb	sp!, {r0, r1, r4, r5, r6, r7, r8, lr}
    type_ = BleUuidType::LONG;
   d97ea:	6103      	str	r3, [r0, #16]
    memcpy(uuid128_, BASE_UUID, BLE_SIG_UUID_128BIT_LEN);
   d97ec:	4b32      	ldr	r3, [pc, #200]	; (d98b8 <_ZN8particle7BleUuid9constructEPKc+0xd4>)
   d97ee:	681a      	ldr	r2, [r3, #0]
   d97f0:	6002      	str	r2, [r0, #0]
   d97f2:	685a      	ldr	r2, [r3, #4]
   d97f4:	6042      	str	r2, [r0, #4]
   d97f6:	2500      	movs	r5, #0
   d97f8:	891a      	ldrh	r2, [r3, #8]
   d97fa:	7a9b      	ldrb	r3, [r3, #10]
   d97fc:	8102      	strh	r2, [r0, #8]
void BleUuid::construct(const char* uuid) {
   d97fe:	4604      	mov	r4, r0
    memcpy(uuid128_, BASE_UUID, BLE_SIG_UUID_128BIT_LEN);
   d9800:	7283      	strb	r3, [r0, #10]
   d9802:	f8c0 500b 	str.w	r5, [r0, #11]
   d9806:	73c5      	strb	r5, [r0, #15]
    if (uuid == nullptr) {
   d9808:	460e      	mov	r6, r1
   d980a:	b321      	cbz	r1, d9856 <_ZN8particle7BleUuid9constructEPKc+0x72>
    if (strnlen(uuid, BLE_SIG_UUID_128BIT_LEN * 2 + 4) == (BLE_SIG_UUID_16BIT_LEN * 2)) {
   d980c:	2124      	movs	r1, #36	; 0x24
   d980e:	4630      	mov	r0, r6
   d9810:	f004 fa94 	bl	ddd3c <strnlen>
   d9814:	2804      	cmp	r0, #4
   d9816:	d121      	bne.n	d985c <_ZN8particle7BleUuid9constructEPKc+0x78>
        char buf[2] = {};
   d9818:	f8ad 5004 	strh.w	r5, [sp, #4]
   d981c:	af01      	add	r7, sp, #4
   d981e:	1cb5      	adds	r5, r6, #2
   d9820:	3606      	adds	r6, #6

inline size_t hexToBytes(const char* src, char* dest, size_t size) {
    size_t n = 0;
    while (n < size) {
        const int h = hexToNibble(*src++);
   d9822:	f815 0c02 	ldrb.w	r0, [r5, #-2]
   d9826:	f7ff ff00 	bl	d962a <_ZN8particle11hexToNibbleEc>
        if (h < 0) {
   d982a:	f1b0 0800 	subs.w	r8, r0, #0
   d982e:	db10      	blt.n	d9852 <_ZN8particle7BleUuid9constructEPKc+0x6e>
            break;
        }
        const int l = hexToNibble(*src++);
   d9830:	f815 0c01 	ldrb.w	r0, [r5, #-1]
   d9834:	f7ff fef9 	bl	d962a <_ZN8particle11hexToNibbleEc>
        if (l < 0) {
   d9838:	2800      	cmp	r0, #0
   d983a:	db0a      	blt.n	d9852 <_ZN8particle7BleUuid9constructEPKc+0x6e>
            break;
        }
        *dest++ = ((unsigned)h << 4) | (unsigned)l;
   d983c:	3502      	adds	r5, #2
   d983e:	ea40 1008 	orr.w	r0, r0, r8, lsl #4
    while (n < size) {
   d9842:	42ae      	cmp	r6, r5
        *dest++ = ((unsigned)h << 4) | (unsigned)l;
   d9844:	f807 0b01 	strb.w	r0, [r7], #1
    while (n < size) {
   d9848:	d1eb      	bne.n	d9822 <_ZN8particle7BleUuid9constructEPKc+0x3e>
            uuid128_[UUID16_LO] = buf[1];
   d984a:	f8bd 3004 	ldrh.w	r3, [sp, #4]
   d984e:	ba5b      	rev16	r3, r3
   d9850:	81a3      	strh	r3, [r4, #12]
        type_ = BleUuidType::SHORT;
   d9852:	2300      	movs	r3, #0
   d9854:	6123      	str	r3, [r4, #16]
}
   d9856:	b002      	add	sp, #8
   d9858:	e8bd 81f0 	ldmia.w	sp!, {r4, r5, r6, r7, r8, pc}
    size_t len = BLE_SIG_UUID_128BIT_LEN;
   d985c:	2710      	movs	r7, #16
    for (size_t i = 0; i < strnlen(uuid, BLE_SIG_UUID_128BIT_LEN * 2 + 4) && len > 0; i++) {
   d985e:	2124      	movs	r1, #36	; 0x24
   d9860:	4630      	mov	r0, r6
   d9862:	f004 fa6b 	bl	ddd3c <strnlen>
   d9866:	42a8      	cmp	r0, r5
   d9868:	d806      	bhi.n	d9878 <_ZN8particle7BleUuid9constructEPKc+0x94>
   d986a:	4427      	add	r7, r4
        uuid128_[len - 1] = 0x00;
   d986c:	2300      	movs	r3, #0
    while (len > 0) {
   d986e:	42bc      	cmp	r4, r7
   d9870:	d0f1      	beq.n	d9856 <_ZN8particle7BleUuid9constructEPKc+0x72>
        uuid128_[len - 1] = 0x00;
   d9872:	f807 3d01 	strb.w	r3, [r7, #-1]!
    while (len > 0) {
   d9876:	e7fa      	b.n	d986e <_ZN8particle7BleUuid9constructEPKc+0x8a>
    for (size_t i = 0; i < strnlen(uuid, BLE_SIG_UUID_128BIT_LEN * 2 + 4) && len > 0; i++) {
   d9878:	2f00      	cmp	r7, #0
   d987a:	d0ec      	beq.n	d9856 <_ZN8particle7BleUuid9constructEPKc+0x72>
        int8_t hi = hexToNibble(uuid[i]);
   d987c:	5d70      	ldrb	r0, [r6, r5]
   d987e:	f7ff fed4 	bl	d962a <_ZN8particle11hexToNibbleEc>
        if (hi >= 0) {
   d9882:	0603      	lsls	r3, r0, #24
   d9884:	d415      	bmi.n	d98b2 <_ZN8particle7BleUuid9constructEPKc+0xce>
            uuid128_[len - 1] = hi << 4;
   d9886:	0100      	lsls	r0, r0, #4
   d9888:	3f01      	subs	r7, #1
   d988a:	fa5f f880 	uxtb.w	r8, r0
   d988e:	f804 8007 	strb.w	r8, [r4, r7]
            if (++i < strnlen(uuid, BLE_SIG_UUID_128BIT_LEN * 2 + 4)) {
   d9892:	2124      	movs	r1, #36	; 0x24
   d9894:	4630      	mov	r0, r6
   d9896:	f004 fa51 	bl	ddd3c <strnlen>
   d989a:	3501      	adds	r5, #1
   d989c:	42a8      	cmp	r0, r5
   d989e:	d908      	bls.n	d98b2 <_ZN8particle7BleUuid9constructEPKc+0xce>
                int8_t lo = hexToNibble(uuid[i]);
   d98a0:	5d70      	ldrb	r0, [r6, r5]
   d98a2:	f7ff fec2 	bl	d962a <_ZN8particle11hexToNibbleEc>
   d98a6:	b240      	sxtb	r0, r0
                if (lo >= 0) {
   d98a8:	2800      	cmp	r0, #0
                    uuid128_[len - 1] |= lo;
   d98aa:	bfa4      	itt	ge
   d98ac:	ea40 0008 	orrge.w	r0, r0, r8
   d98b0:	55e0      	strbge	r0, [r4, r7]
    for (size_t i = 0; i < strnlen(uuid, BLE_SIG_UUID_128BIT_LEN * 2 + 4) && len > 0; i++) {
   d98b2:	3501      	adds	r5, #1
   d98b4:	e7d3      	b.n	d985e <_ZN8particle7BleUuid9constructEPKc+0x7a>
   d98b6:	bf00      	nop
   d98b8:	000deac0 	.word	0x000deac0

000d98bc <_ZN8particle7BleUuidC1EPKc>:
BleUuid::BleUuid(const char* uuid)
   d98bc:	b513      	push	{r0, r1, r4, lr}
   d98be:	4604      	mov	r4, r0
   d98c0:	9101      	str	r1, [sp, #4]
        : BleUuid() {
   d98c2:	f7ff ff03 	bl	d96cc <_ZN8particle7BleUuidC1Ev>
    construct(uuid);
   d98c6:	4620      	mov	r0, r4
   d98c8:	9901      	ldr	r1, [sp, #4]
   d98ca:	f7ff ff8b 	bl	d97e4 <_ZN8particle7BleUuid9constructEPKc>
}
   d98ce:	4620      	mov	r0, r4
   d98d0:	b002      	add	sp, #8
   d98d2:	bd10      	pop	{r4, pc}

000d98d4 <_ZN8particle18BleAdvertisingData6appendENS_22BleAdvertisingDataTypeEPKhjb>:
size_t BleAdvertisingData::append(BleAdvertisingDataType type, const uint8_t* buf, size_t len, bool force) {
   d98d4:	b430      	push	{r4, r5}
   d98d6:	f89d 5008 	ldrb.w	r5, [sp, #8]
    if (buf == nullptr) {
   d98da:	b912      	cbnz	r2, d98e2 <_ZN8particle18BleAdvertisingData6appendENS_22BleAdvertisingDataTypeEPKhjb+0xe>
        return selfLen_;
   d98dc:	6a00      	ldr	r0, [r0, #32]
}
   d98de:	bc30      	pop	{r4, r5}
   d98e0:	4770      	bx	lr
   d98e2:	9502      	str	r5, [sp, #8]
   d98e4:	bc30      	pop	{r4, r5}
   d98e6:	f7ff be12 	b.w	d950e <_ZN8particle18BleAdvertisingData6appendENS_22BleAdvertisingDataTypeEPKhjb.part.0>

000d98ea <_ZN8particle18BleAdvertisingDataC1Ev>:
BleAdvertisingData::BleAdvertisingData()
   d98ea:	b51f      	push	{r0, r1, r2, r3, r4, lr}
   d98ec:	4604      	mov	r4, r0
          selfLen_(0) {
   d98ee:	4602      	mov	r2, r0
   d98f0:	f100 011f 	add.w	r1, r0, #31
   d98f4:	2300      	movs	r3, #0
   d98f6:	f802 3b01 	strb.w	r3, [r2], #1
   d98fa:	4291      	cmp	r1, r2
   d98fc:	d1fb      	bne.n	d98f6 <_ZN8particle18BleAdvertisingDataC1Ev+0xc>
   d98fe:	6223      	str	r3, [r4, #32]
    append(BleAdvertisingDataType::FLAGS, &flag, sizeof(uint8_t));
   d9900:	9300      	str	r3, [sp, #0]
    uint8_t flag = BLE_SIG_ADV_FLAGS_LE_ONLY_GENERAL_DISC_MODE;
   d9902:	2206      	movs	r2, #6
    append(BleAdvertisingDataType::FLAGS, &flag, sizeof(uint8_t));
   d9904:	2301      	movs	r3, #1
    uint8_t flag = BLE_SIG_ADV_FLAGS_LE_ONLY_GENERAL_DISC_MODE;
   d9906:	f88d 200f 	strb.w	r2, [sp, #15]
    append(BleAdvertisingDataType::FLAGS, &flag, sizeof(uint8_t));
   d990a:	4619      	mov	r1, r3
   d990c:	f10d 020f 	add.w	r2, sp, #15
   d9910:	4620      	mov	r0, r4
   d9912:	f7ff ffdf 	bl	d98d4 <_ZN8particle18BleAdvertisingData6appendENS_22BleAdvertisingDataTypeEPKhjb>
}
   d9916:	4620      	mov	r0, r4
   d9918:	b004      	add	sp, #16
   d991a:	bd10      	pop	{r4, pc}

000d991c <_ZN8particle18BleAdvertisingData15appendLocalNameEPKc>:
size_t BleAdvertisingData::appendLocalName(const char* name) {
   d991c:	b51f      	push	{r0, r1, r2, r3, r4, lr}
   d991e:	460a      	mov	r2, r1
   d9920:	4604      	mov	r4, r0
    return append(BleAdvertisingDataType::COMPLETE_LOCAL_NAME, (const uint8_t*)name, strnlen(name, BLE_MAX_DEV_NAME_LEN), false);
   d9922:	2114      	movs	r1, #20
   d9924:	4610      	mov	r0, r2
   d9926:	9203      	str	r2, [sp, #12]
   d9928:	f004 fa08 	bl	ddd3c <strnlen>
   d992c:	2100      	movs	r1, #0
   d992e:	4603      	mov	r3, r0
   d9930:	9100      	str	r1, [sp, #0]
   d9932:	9a03      	ldr	r2, [sp, #12]
   d9934:	2109      	movs	r1, #9
   d9936:	4620      	mov	r0, r4
   d9938:	f7ff ffcc 	bl	d98d4 <_ZN8particle18BleAdvertisingData6appendENS_22BleAdvertisingDataTypeEPKhjb>
}
   d993c:	b004      	add	sp, #16
   d993e:	bd10      	pop	{r4, pc}

000d9940 <_ZN8particle18BleAdvertisingData15appendLocalNameERK6String>:
    return appendLocalName(name.c_str());
   d9940:	6809      	ldr	r1, [r1, #0]
   d9942:	f7ff bfeb 	b.w	d991c <_ZN8particle18BleAdvertisingData15appendLocalNameEPKc>

000d9946 <_ZN8particle18BleAdvertisingData16appendCustomDataEPKhjb>:
size_t BleAdvertisingData::appendCustomData(const uint8_t* buf, size_t len, bool force) {
   d9946:	b507      	push	{r0, r1, r2, lr}
    return append(BleAdvertisingDataType::MANUFACTURER_SPECIFIC_DATA, buf, len, force);
   d9948:	9300      	str	r3, [sp, #0]
   d994a:	4613      	mov	r3, r2
   d994c:	460a      	mov	r2, r1
   d994e:	21ff      	movs	r1, #255	; 0xff
   d9950:	f7ff ffc0 	bl	d98d4 <_ZN8particle18BleAdvertisingData6appendENS_22BleAdvertisingDataTypeEPKhjb>
}
   d9954:	b003      	add	sp, #12
   d9956:	f85d fb04 	ldr.w	pc, [sp], #4

000d995a <_ZN8particle18BleAdvertisingData6removeENS_22BleAdvertisingDataTypeE>:
void BleAdvertisingData::remove(BleAdvertisingDataType type) {
   d995a:	b573      	push	{r0, r1, r4, r5, r6, lr}
    if (offset == nullptr) {
   d995c:	460a      	mov	r2, r1
void BleAdvertisingData::remove(BleAdvertisingDataType type) {
   d995e:	460e      	mov	r6, r1
   d9960:	ab01      	add	r3, sp, #4
   d9962:	6a01      	ldr	r1, [r0, #32]
   d9964:	4604      	mov	r4, r0
   d9966:	f7ff fdbd 	bl	d94e4 <_ZN8particle18BleAdvertisingData6locateEPKhjNS_22BleAdvertisingDataTypeEPj.part.0>
    if (len > 0) {
   d996a:	4605      	mov	r5, r0
   d996c:	b178      	cbz	r0, d998e <_ZN8particle18BleAdvertisingData6removeENS_22BleAdvertisingDataTypeE+0x34>
        size_t moveLen = selfLen_ - offset - len;
   d996e:	9801      	ldr	r0, [sp, #4]
   d9970:	6a22      	ldr	r2, [r4, #32]
        memcpy(&selfData_[offset], &selfData_[offset + len], moveLen);
   d9972:	1941      	adds	r1, r0, r5
        size_t moveLen = selfLen_ - offset - len;
   d9974:	1a12      	subs	r2, r2, r0
        memcpy(&selfData_[offset], &selfData_[offset + len], moveLen);
   d9976:	4421      	add	r1, r4
   d9978:	1b52      	subs	r2, r2, r5
   d997a:	4420      	add	r0, r4
   d997c:	f004 f950 	bl	ddc20 <memcpy>
        selfLen_ -= len;
   d9980:	6a20      	ldr	r0, [r4, #32]
   d9982:	1b40      	subs	r0, r0, r5
   d9984:	6220      	str	r0, [r4, #32]
        remove(type);
   d9986:	4631      	mov	r1, r6
   d9988:	4620      	mov	r0, r4
   d998a:	f7ff ffe6 	bl	d995a <_ZN8particle18BleAdvertisingData6removeENS_22BleAdvertisingDataTypeE>
}
   d998e:	b002      	add	sp, #8
   d9990:	bd70      	pop	{r4, r5, r6, pc}
	...

000d9994 <_ZN8particle21BleCharacteristicImplC1Ev>:
    BleCharacteristicImpl()
   d9994:	b538      	push	{r3, r4, r5, lr}
              dataReceivedCallback_(nullptr) {
   d9996:	f64f 73ff 	movw	r3, #65535	; 0xffff
   d999a:	2500      	movs	r5, #0
    BleCharacteristicImpl()
   d999c:	4604      	mov	r4, r0
              dataReceivedCallback_(nullptr) {
   d999e:	8043      	strh	r3, [r0, #2]
   d99a0:	220e      	movs	r2, #14
   d99a2:	4629      	mov	r1, r5
   d99a4:	7005      	strb	r5, [r0, #0]
        : value_(0) {
}

template<typename T>
inline particle::EnumFlags<T, typename std::enable_if_t<std::is_enum<T>::value>>::EnumFlags(const T& value) {
    value_ = static_cast<ValueType>(value);
   d99a6:	7105      	strb	r5, [r0, #4]
   d99a8:	3006      	adds	r0, #6
   d99aa:	f004 f961 	bl	ddc70 <memset>
   d99ae:	f104 0014 	add.w	r0, r4, #20
   d99b2:	f7ff fe8b 	bl	d96cc <_ZN8particle7BleUuidC1Ev>
   d99b6:	f104 0028 	add.w	r0, r4, #40	; 0x28
   d99ba:	f7ff fe87 	bl	d96cc <_ZN8particle7BleUuidC1Ev>
   d99be:	4904      	ldr	r1, [pc, #16]	; (d99d0 <_ZN8particle21BleCharacteristicImplC1Ev+0x3c>)
   d99c0:	f104 003c 	add.w	r0, r4, #60	; 0x3c
   d99c4:	f7ff fc53 	bl	d926e <_ZN6StringC1EPKc>
    _Function_base() : _M_manager(nullptr) { }
   d99c8:	6565      	str	r5, [r4, #84]	; 0x54
    }
   d99ca:	4620      	mov	r0, r4
   d99cc:	bd38      	pop	{r3, r4, r5, pc}
   d99ce:	bf00      	nop
   d99d0:	000dded7 	.word	0x000dded7

000d99d4 <_ZN8particle18BleLocalDeviceImpl14findPeerDeviceEt>:
    BlePeerDevice* findPeerDevice(BleConnectionHandle connHandle) {
   d99d4:	b510      	push	{r4, lr}
    return data_;
}

template<typename T, typename AllocatorT>
T* spark::Vector<T, AllocatorT>::end() {
    return data_ + size_;
   d99d6:	e9d0 3206 	ldrd	r3, r2, [r0, #24]
   d99da:	eb03 02c2 	add.w	r2, r3, r2, lsl #3
        for (auto& peer : peers_) {
   d99de:	4293      	cmp	r3, r2
   d99e0:	4618      	mov	r0, r3
   d99e2:	d006      	beq.n	d99f2 <_ZN8particle18BleLocalDeviceImpl14findPeerDeviceEt+0x1e>
            if (peer.impl()->connHandle() == connHandle) {
   d99e4:	6804      	ldr	r4, [r0, #0]
   d99e6:	8824      	ldrh	r4, [r4, #0]
   d99e8:	428c      	cmp	r4, r1
   d99ea:	f103 0308 	add.w	r3, r3, #8
   d99ee:	d1f6      	bne.n	d99de <_ZN8particle18BleLocalDeviceImpl14findPeerDeviceEt+0xa>
    }
   d99f0:	bd10      	pop	{r4, pc}
        return nullptr;
   d99f2:	2000      	movs	r0, #0
   d99f4:	e7fc      	b.n	d99f0 <_ZN8particle18BleLocalDeviceImpl14findPeerDeviceEt+0x1c>
	...

000d99f8 <_ZN8particle17BleCharacteristic8setValueEPKhjNS_11BleTxRxTypeE>:
    len = std::min(len, desc.length());
    memcpy(buf, desc.c_str(), len);
    return len;
}

ssize_t BleCharacteristic::setValue(const uint8_t* buf, size_t len, BleTxRxType type) {
   d99f8:	b5f0      	push	{r4, r5, r6, r7, lr}
   d99fa:	4606      	mov	r6, r0
   d99fc:	b085      	sub	sp, #20
   d99fe:	461f      	mov	r7, r3
    if (buf == nullptr || len == 0) {
   d9a00:	460d      	mov	r5, r1
   d9a02:	2900      	cmp	r1, #0
   d9a04:	d050      	beq.n	d9aa8 <_ZN8particle17BleCharacteristic8setValueEPKhjNS_11BleTxRxTypeE+0xb0>
   d9a06:	2a00      	cmp	r2, #0
   d9a08:	d04e      	beq.n	d9aa8 <_ZN8particle17BleCharacteristic8setValueEPKhjNS_11BleTxRxTypeE+0xb0>
    void onDataReceived(void(T::*callback)(const uint8_t*, size_t, const BlePeerDevice& peer), T* instance) {
        onDataReceived((callback && instance) ? std::bind(callback, instance, _1, _2, _3) :(BleOnDataReceivedStdFunction) nullptr);
    }

    BleCharacteristicImpl* impl() const {
        return impl_.get();
   d9a0a:	6804      	ldr	r4, [r0, #0]
        return SYSTEM_ERROR_INVALID_ARGUMENT;
    }
    len = std::min(len, (size_t)BLE_MAX_ATTR_VALUE_PACKET_SIZE);
    if (impl()->isLocal()) {
   d9a0c:	7823      	ldrb	r3, [r4, #0]
   d9a0e:	2af4      	cmp	r2, #244	; 0xf4
   d9a10:	bf28      	it	cs
   d9a12:	22f4      	movcs	r2, #244	; 0xf4
   d9a14:	b343      	cbz	r3, d9a68 <_ZN8particle17BleCharacteristic8setValueEPKhjNS_11BleTxRxTypeE+0x70>
    return (value_ > 0);
}

template<typename T>
inline bool particle::EnumFlags<T, typename std::enable_if_t<std::is_enum<T>::value>>::isSet(const EnumFlags<T>& flags) const {
    return ((value_ & flags.value_) == flags.value_);
   d9a16:	7923      	ldrb	r3, [r4, #4]
        int ret = SYSTEM_ERROR_NOT_SUPPORTED;
        // Updates the local characteristic value for peer to read.
        if (impl()->properties().isSet(BleCharacteristicProperty::READ)) {
   d9a18:	0798      	lsls	r0, r3, #30
   d9a1a:	d509      	bpl.n	d9a30 <_ZN8particle17BleCharacteristic8setValueEPKhjNS_11BleTxRxTypeE+0x38>
            ret = CHECK(hal_ble_gatt_server_set_characteristic_value(impl()->attrHandles().value_handle, buf, len, nullptr));
   d9a1c:	89a0      	ldrh	r0, [r4, #12]
   d9a1e:	9203      	str	r2, [sp, #12]
   d9a20:	2300      	movs	r3, #0
   d9a22:	f7fe ffc3 	bl	d89ac <hal_ble_gatt_server_set_characteristic_value>
   d9a26:	2800      	cmp	r0, #0
   d9a28:	9a03      	ldr	r2, [sp, #12]
   d9a2a:	da03      	bge.n	d9a34 <_ZN8particle17BleCharacteristic8setValueEPKhjNS_11BleTxRxTypeE+0x3c>
            return hal_ble_gatt_client_write_with_response(impl()->connHandle(), impl()->attrHandles().value_handle, buf, len, nullptr);
        }
        return SYSTEM_ERROR_NOT_SUPPORTED;
    }
    return SYSTEM_ERROR_INVALID_STATE;
}
   d9a2c:	b005      	add	sp, #20
   d9a2e:	bdf0      	pop	{r4, r5, r6, r7, pc}
        int ret = SYSTEM_ERROR_NOT_SUPPORTED;
   d9a30:	f06f 0077 	mvn.w	r0, #119	; 0x77
   d9a34:	6834      	ldr	r4, [r6, #0]
        if (impl()->properties().isSet(BleCharacteristicProperty::NOTIFY) && type != BleTxRxType::ACK) {
   d9a36:	7923      	ldrb	r3, [r4, #4]
   d9a38:	06d9      	lsls	r1, r3, #27
   d9a3a:	d509      	bpl.n	d9a50 <_ZN8particle17BleCharacteristic8setValueEPKhjNS_11BleTxRxTypeE+0x58>
   d9a3c:	2f01      	cmp	r7, #1
   d9a3e:	d007      	beq.n	d9a50 <_ZN8particle17BleCharacteristic8setValueEPKhjNS_11BleTxRxTypeE+0x58>
            return hal_ble_gatt_server_notify_characteristic_value(impl()->attrHandles().value_handle, buf, len, nullptr);
   d9a40:	89a0      	ldrh	r0, [r4, #12]
   d9a42:	2300      	movs	r3, #0
   d9a44:	4629      	mov	r1, r5
}
   d9a46:	b005      	add	sp, #20
   d9a48:	e8bd 40f0 	ldmia.w	sp!, {r4, r5, r6, r7, lr}
            return hal_ble_gatt_server_notify_characteristic_value(impl()->attrHandles().value_handle, buf, len, nullptr);
   d9a4c:	f7fe bfe0 	b.w	d8a10 <hal_ble_gatt_server_notify_characteristic_value>
        if (impl()->properties().isSet(BleCharacteristicProperty::INDICATE) && type != BleTxRxType::NACK) {
   d9a50:	069b      	lsls	r3, r3, #26
   d9a52:	d5eb      	bpl.n	d9a2c <_ZN8particle17BleCharacteristic8setValueEPKhjNS_11BleTxRxTypeE+0x34>
   d9a54:	2f02      	cmp	r7, #2
   d9a56:	d0e9      	beq.n	d9a2c <_ZN8particle17BleCharacteristic8setValueEPKhjNS_11BleTxRxTypeE+0x34>
            return hal_ble_gatt_server_indicate_characteristic_value(impl()->attrHandles().value_handle, buf, len, nullptr);
   d9a58:	89a0      	ldrh	r0, [r4, #12]
   d9a5a:	2300      	movs	r3, #0
   d9a5c:	4629      	mov	r1, r5
}
   d9a5e:	b005      	add	sp, #20
   d9a60:	e8bd 40f0 	ldmia.w	sp!, {r4, r5, r6, r7, lr}
            return hal_ble_gatt_server_indicate_characteristic_value(impl()->attrHandles().value_handle, buf, len, nullptr);
   d9a64:	f7fe bfde 	b.w	d8a24 <hal_ble_gatt_server_indicate_characteristic_value>
    if (impl()->connHandle() != BLE_INVALID_CONN_HANDLE) {
   d9a68:	8860      	ldrh	r0, [r4, #2]
   d9a6a:	f64f 71ff 	movw	r1, #65535	; 0xffff
   d9a6e:	4288      	cmp	r0, r1
   d9a70:	d01c      	beq.n	d9aac <_ZN8particle17BleCharacteristic8setValueEPKhjNS_11BleTxRxTypeE+0xb4>
        if (impl()->properties().isSet(BleCharacteristicProperty::WRITE_WO_RSP) && type != BleTxRxType::ACK) {
   d9a72:	7921      	ldrb	r1, [r4, #4]
   d9a74:	074e      	lsls	r6, r1, #29
   d9a76:	d501      	bpl.n	d9a7c <_ZN8particle17BleCharacteristic8setValueEPKhjNS_11BleTxRxTypeE+0x84>
   d9a78:	2f01      	cmp	r7, #1
   d9a7a:	d104      	bne.n	d9a86 <_ZN8particle17BleCharacteristic8setValueEPKhjNS_11BleTxRxTypeE+0x8e>
        if (impl()->properties().isSet(BleCharacteristicProperty::WRITE) && type != BleTxRxType::NACK) {
   d9a7c:	070b      	lsls	r3, r1, #28
   d9a7e:	d409      	bmi.n	d9a94 <_ZN8particle17BleCharacteristic8setValueEPKhjNS_11BleTxRxTypeE+0x9c>
        return SYSTEM_ERROR_NOT_SUPPORTED;
   d9a80:	f06f 0077 	mvn.w	r0, #119	; 0x77
   d9a84:	e7d2      	b.n	d9a2c <_ZN8particle17BleCharacteristic8setValueEPKhjNS_11BleTxRxTypeE+0x34>
            return hal_ble_gatt_client_write_without_response(impl()->connHandle(), impl()->attrHandles().value_handle, buf, len, nullptr);
   d9a86:	89a1      	ldrh	r1, [r4, #12]
   d9a88:	9300      	str	r3, [sp, #0]
   d9a8a:	4613      	mov	r3, r2
   d9a8c:	462a      	mov	r2, r5
   d9a8e:	f7fe ffa1 	bl	d89d4 <hal_ble_gatt_client_write_without_response>
   d9a92:	e7cb      	b.n	d9a2c <_ZN8particle17BleCharacteristic8setValueEPKhjNS_11BleTxRxTypeE+0x34>
        if (impl()->properties().isSet(BleCharacteristicProperty::WRITE) && type != BleTxRxType::NACK) {
   d9a94:	2f02      	cmp	r7, #2
   d9a96:	d0f3      	beq.n	d9a80 <_ZN8particle17BleCharacteristic8setValueEPKhjNS_11BleTxRxTypeE+0x88>
            return hal_ble_gatt_client_write_with_response(impl()->connHandle(), impl()->attrHandles().value_handle, buf, len, nullptr);
   d9a98:	2300      	movs	r3, #0
   d9a9a:	89a1      	ldrh	r1, [r4, #12]
   d9a9c:	9300      	str	r3, [sp, #0]
   d9a9e:	4613      	mov	r3, r2
   d9aa0:	462a      	mov	r2, r5
   d9aa2:	f7fe ff8d 	bl	d89c0 <hal_ble_gatt_client_write_with_response>
   d9aa6:	e7c1      	b.n	d9a2c <_ZN8particle17BleCharacteristic8setValueEPKhjNS_11BleTxRxTypeE+0x34>
        return SYSTEM_ERROR_INVALID_ARGUMENT;
   d9aa8:	4802      	ldr	r0, [pc, #8]	; (d9ab4 <_ZN8particle17BleCharacteristic8setValueEPKhjNS_11BleTxRxTypeE+0xbc>)
   d9aaa:	e7bf      	b.n	d9a2c <_ZN8particle17BleCharacteristic8setValueEPKhjNS_11BleTxRxTypeE+0x34>
    return SYSTEM_ERROR_INVALID_STATE;
   d9aac:	f06f 00d1 	mvn.w	r0, #209	; 0xd1
   d9ab0:	e7bc      	b.n	d9a2c <_ZN8particle17BleCharacteristic8setValueEPKhjNS_11BleTxRxTypeE+0x34>
   d9ab2:	bf00      	nop
   d9ab4:	fffffef2 	.word	0xfffffef2

000d9ab8 <_ZN8particle10BleServiceC1ERKNS_7BleUuidE>:
    if (!impl()) {
        SPARK_ASSERT(false);
    }
}

BleService::BleService(const BleUuid& uuid)
   d9ab8:	e92d 41f0 	stmdb	sp!, {r4, r5, r6, r7, r8, lr}

    protected:
      // This constructor is non-standard, it is used by allocate_shared.
      template<typename _Alloc, typename... _Args>
	__shared_ptr(_Sp_alloc_shared_tag<_Alloc> __tag, _Args&&... __args)
	: _M_ptr(), _M_refcount(_M_ptr, __tag, std::forward<_Args>(__args)...)
   d9abc:	2600      	movs	r6, #0
   d9abe:	6006      	str	r6, [r0, #0]
   d9ac0:	4607      	mov	r7, r0
	return static_cast<_Tp*>(::operator new(__n * sizeof(_Tp)));
   d9ac2:	2028      	movs	r0, #40	; 0x28
   d9ac4:	460c      	mov	r4, r1
   d9ac6:	f7fa fae6 	bl	d4096 <_Znwj>
	  auto __pi = ::new (__mem)
   d9aca:	1e05      	subs	r5, r0, #0
   d9acc:	f105 080c 	add.w	r8, r5, #12
   d9ad0:	d00f      	beq.n	d9af2 <_ZN8particle10BleServiceC1ERKNS_7BleUuidE+0x3a>
      : _M_use_count(1), _M_weak_count(1) { }
   d9ad2:	2301      	movs	r3, #1
   d9ad4:	e9c5 3301 	strd	r3, r3, [r5, #4]
	: _M_impl(__a)
   d9ad8:	4b08      	ldr	r3, [pc, #32]	; (d9afc <_ZN8particle10BleServiceC1ERKNS_7BleUuidE+0x44>)
   d9ada:	602b      	str	r3, [r5, #0]
              characteristicsDiscovered_(false) {
   d9adc:	4640      	mov	r0, r8
   d9ade:	f7ff fdf5 	bl	d96cc <_ZN8particle7BleUuidC1Ev>
        uuid_ = svcUuid;
   d9ae2:	cc0f      	ldmia	r4!, {r0, r1, r2, r3}
              characteristicsDiscovered_(false) {
   d9ae4:	622e      	str	r6, [r5, #32]
   d9ae6:	f885 6024 	strb.w	r6, [r5, #36]	; 0x24
        uuid_ = svcUuid;
   d9aea:	4646      	mov	r6, r8
   d9aec:	c60f      	stmia	r6!, {r0, r1, r2, r3}
   d9aee:	6823      	ldr	r3, [r4, #0]
   d9af0:	6033      	str	r3, [r6, #0]
	  __p = __pi->_M_ptr();
   d9af2:	e9c7 8500 	strd	r8, r5, [r7]
        : impl_(std::make_shared<BleServiceImpl>(uuid)) {
    if (!impl()) {
        SPARK_ASSERT(false);
    }
}
   d9af6:	4638      	mov	r0, r7
   d9af8:	e8bd 81f0 	ldmia.w	sp!, {r4, r5, r6, r7, r8, pc}
   d9afc:	000dea88 	.word	0x000dea88

000d9b00 <_ZN8particle13BlePeerDeviceC1Ev>:


/*******************************************************
 * BlePeerDevice class
 */
BlePeerDevice::BlePeerDevice()
   d9b00:	b570      	push	{r4, r5, r6, lr}
	: _M_ptr(), _M_refcount(_M_ptr, __tag, std::forward<_Args>(__args)...)
   d9b02:	2500      	movs	r5, #0
   d9b04:	6005      	str	r5, [r0, #0]
   d9b06:	4606      	mov	r6, r0
   d9b08:	2030      	movs	r0, #48	; 0x30
   d9b0a:	f7fa fac4 	bl	d4096 <_Znwj>
	  auto __pi = ::new (__mem)
   d9b0e:	4604      	mov	r4, r0
   d9b10:	b188      	cbz	r0, d9b36 <_ZN8particle13BlePeerDeviceC1Ev+0x36>
      : _M_use_count(1), _M_weak_count(1) { }
   d9b12:	2301      	movs	r3, #1
   d9b14:	e9c0 3301 	strd	r3, r3, [r0, #4]
	: _M_impl(__a)
   d9b18:	4b09      	ldr	r3, [pc, #36]	; (d9b40 <_ZN8particle13BlePeerDeviceC1Ev+0x40>)
   d9b1a:	6003      	str	r3, [r0, #0]
              servicesDiscovered_(false) {
   d9b1c:	f64f 73ff 	movw	r3, #65535	; 0xffff
   d9b20:	8183      	strh	r3, [r0, #12]
   d9b22:	300e      	adds	r0, #14
   d9b24:	f7ff fdc7 	bl	d96b6 <_ZN8particle10BleAddressC1Ev>
        capacity_(0) {
   d9b28:	e9c4 5506 	strd	r5, r5, [r4, #24]
   d9b2c:	e9c4 5508 	strd	r5, r5, [r4, #32]
   d9b30:	e9c4 550a 	strd	r5, r5, [r4, #40]	; 0x28
   d9b34:	75a5      	strb	r5, [r4, #22]
	  _M_pi = __pi;
   d9b36:	6074      	str	r4, [r6, #4]
   d9b38:	340c      	adds	r4, #12
	  __p = __pi->_M_ptr();
   d9b3a:	6034      	str	r4, [r6, #0]
        : impl_(std::make_shared<BlePeerDeviceImpl>()) {
    if (!impl()) {
        SPARK_ASSERT(false);
    }
}
   d9b3c:	4630      	mov	r0, r6
   d9b3e:	bd70      	pop	{r4, r5, r6, pc}
   d9b40:	000deaa4 	.word	0x000deaa4

000d9b44 <_ZNK8particle13BlePeerDevice7addressEv>:
void BlePeerDevice::bind(const BleAddress& address) const {
    WiringBleLock lk;
    impl()->address() = address;
}

BleAddress BlePeerDevice::address() const {
   d9b44:	b537      	push	{r0, r1, r2, r4, r5, lr}
   d9b46:	460d      	mov	r5, r1
   d9b48:	4604      	mov	r4, r0
    WiringBleLock lk;
   d9b4a:	a801      	add	r0, sp, #4
   d9b4c:	f7ff fd82 	bl	d9654 <_ZN8particle3ble13WiringBleLockC1Ev>
    address_ = addr.address_;
   d9b50:	682a      	ldr	r2, [r5, #0]
   d9b52:	f852 3f02 	ldr.w	r3, [r2, #2]!
   d9b56:	6023      	str	r3, [r4, #0]
   d9b58:	6853      	ldr	r3, [r2, #4]
   d9b5a:	6063      	str	r3, [r4, #4]
    WiringBleLock lk;
   d9b5c:	a801      	add	r0, sp, #4
   d9b5e:	f7ff fd81 	bl	d9664 <_ZN8particle3ble13WiringBleLockD1Ev>
    return impl()->address();
}
   d9b62:	4620      	mov	r0, r4
   d9b64:	b003      	add	sp, #12
   d9b66:	bd30      	pop	{r4, r5, pc}

000d9b68 <_ZNK8particle13BlePeerDeviceeqERKS0_>:
bool BlePeerDevice::isValid() const {
    WiringBleLock lk;
    return impl()->connHandle() != BLE_INVALID_CONN_HANDLE;
}

bool BlePeerDevice::operator==(const BlePeerDevice& device) const {
   d9b68:	b530      	push	{r4, r5, lr}
   d9b6a:	4605      	mov	r5, r0
   d9b6c:	b087      	sub	sp, #28
   d9b6e:	460c      	mov	r4, r1
    WiringBleLock lk;
   d9b70:	a801      	add	r0, sp, #4
   d9b72:	f7ff fd6f 	bl	d9654 <_ZN8particle3ble13WiringBleLockC1Ev>
    if (impl()->connHandle() == device.impl()->connHandle() && address() == device.address()) {
   d9b76:	682a      	ldr	r2, [r5, #0]
   d9b78:	6823      	ldr	r3, [r4, #0]
   d9b7a:	8812      	ldrh	r2, [r2, #0]
   d9b7c:	881b      	ldrh	r3, [r3, #0]
   d9b7e:	429a      	cmp	r2, r3
   d9b80:	d10d      	bne.n	d9b9e <_ZNK8particle13BlePeerDeviceeqERKS0_+0x36>
   d9b82:	4629      	mov	r1, r5
   d9b84:	a802      	add	r0, sp, #8
   d9b86:	f7ff ffdd 	bl	d9b44 <_ZNK8particle13BlePeerDevice7addressEv>
   d9b8a:	4621      	mov	r1, r4
   d9b8c:	a804      	add	r0, sp, #16
   d9b8e:	f7ff ffd9 	bl	d9b44 <_ZNK8particle13BlePeerDevice7addressEv>
   d9b92:	a904      	add	r1, sp, #16
   d9b94:	a802      	add	r0, sp, #8
   d9b96:	f7ff fd7a 	bl	d968e <_ZNK8particle10BleAddresseqERKS0_>
   d9b9a:	4604      	mov	r4, r0
   d9b9c:	b900      	cbnz	r0, d9ba0 <_ZNK8particle13BlePeerDeviceeqERKS0_+0x38>
        return true;
    }
    return false;
   d9b9e:	2400      	movs	r4, #0
    WiringBleLock lk;
   d9ba0:	a801      	add	r0, sp, #4
   d9ba2:	f7ff fd5f 	bl	d9664 <_ZN8particle3ble13WiringBleLockD1Ev>
}
   d9ba6:	4620      	mov	r0, r4
   d9ba8:	b007      	add	sp, #28
   d9baa:	bd30      	pop	{r4, r5, pc}

000d9bac <_ZN8particle14BleLocalDeviceC1Ev>:


/*******************************************************
 * BleLocalDevice class
 */
BleLocalDevice::BleLocalDevice()
   d9bac:	b510      	push	{r4, lr}
   d9bae:	4604      	mov	r4, r0

  /// std::make_unique for single objects
  template<typename _Tp, typename... _Args>
    inline typename _MakeUniq<_Tp>::__single_object
    make_unique(_Args&&... __args)
    { return unique_ptr<_Tp>(new _Tp(std::forward<_Args>(__args)...)); }
   d9bb0:	2054      	movs	r0, #84	; 0x54
   d9bb2:	f7fa fa70 	bl	d4096 <_Znwj>
   d9bb6:	4601      	mov	r1, r0
   d9bb8:	b160      	cbz	r0, d9bd4 <_ZN8particle14BleLocalDeviceC1Ev+0x28>
   d9bba:	2300      	movs	r3, #0
   d9bbc:	e9c0 3300 	strd	r3, r3, [r0]
   d9bc0:	e9c0 3302 	strd	r3, r3, [r0, #8]
   d9bc4:	e9c0 3304 	strd	r3, r3, [r0, #16]
   d9bc8:	e9c0 3306 	strd	r3, r3, [r0, #24]
   d9bcc:	6203      	str	r3, [r0, #32]
   d9bce:	62c3      	str	r3, [r0, #44]	; 0x2c
   d9bd0:	63c3      	str	r3, [r0, #60]	; 0x3c
   d9bd2:	64c3      	str	r3, [r0, #76]	; 0x4c
      __uniq_ptr_impl(pointer __p) : _M_t() { _M_ptr() = __p; }
   d9bd4:	6021      	str	r1, [r4, #0]
        : impl_(std::make_unique<BleLocalDeviceImpl>()) {
    if (!impl()) {
   d9bd6:	b919      	cbnz	r1, d9be0 <_ZN8particle14BleLocalDeviceC1Ev+0x34>
        SPARK_ASSERT(false);
   d9bd8:	4a09      	ldr	r2, [pc, #36]	; (d9c00 <_ZN8particle14BleLocalDeviceC1Ev+0x54>)
   d9bda:	200a      	movs	r0, #10
   d9bdc:	f7ff f8a0 	bl	d8d20 <panic_>
    }
    SPARK_ASSERT(hal_ble_stack_init(nullptr) == SYSTEM_ERROR_NONE);
   d9be0:	2000      	movs	r0, #0
   d9be2:	f7fe feaf 	bl	d8944 <hal_ble_stack_init>
   d9be6:	b120      	cbz	r0, d9bf2 <_ZN8particle14BleLocalDeviceC1Ev+0x46>
   d9be8:	4a05      	ldr	r2, [pc, #20]	; (d9c00 <_ZN8particle14BleLocalDeviceC1Ev+0x54>)
   d9bea:	2100      	movs	r1, #0
   d9bec:	200a      	movs	r0, #10
   d9bee:	f7ff f897 	bl	d8d20 <panic_>
    hal_ble_set_callback_on_periph_link_events(impl()->onBleLinkEvents, impl(), nullptr);
   d9bf2:	6821      	ldr	r1, [r4, #0]
   d9bf4:	4803      	ldr	r0, [pc, #12]	; (d9c04 <_ZN8particle14BleLocalDeviceC1Ev+0x58>)
   d9bf6:	2200      	movs	r2, #0
   d9bf8:	f7fe ff00 	bl	d89fc <hal_ble_set_callback_on_periph_link_events>
}
   d9bfc:	4620      	mov	r0, r4
   d9bfe:	bd10      	pop	{r4, pc}
   d9c00:	000d88b5 	.word	0x000d88b5
   d9c04:	000d9f9d 	.word	0x000d9f9d

000d9c08 <_ZN8particle14BleLocalDevice11getInstanceEv>:

BleLocalDevice& BleLocalDevice::getInstance() {
   d9c08:	b510      	push	{r4, lr}
    static BleLocalDevice instance;
   d9c0a:	4c0b      	ldr	r4, [pc, #44]	; (d9c38 <_ZN8particle14BleLocalDevice11getInstanceEv+0x30>)
   d9c0c:	7823      	ldrb	r3, [r4, #0]
   d9c0e:	f3bf 8f5b 	dmb	ish
   d9c12:	07db      	lsls	r3, r3, #31
   d9c14:	d40e      	bmi.n	d9c34 <_ZN8particle14BleLocalDevice11getInstanceEv+0x2c>
   d9c16:	4620      	mov	r0, r4
   d9c18:	f7fa fa4e 	bl	d40b8 <__cxa_guard_acquire>
   d9c1c:	b150      	cbz	r0, d9c34 <_ZN8particle14BleLocalDevice11getInstanceEv+0x2c>
   d9c1e:	4807      	ldr	r0, [pc, #28]	; (d9c3c <_ZN8particle14BleLocalDevice11getInstanceEv+0x34>)
   d9c20:	f7ff ffc4 	bl	d9bac <_ZN8particle14BleLocalDeviceC1Ev>
   d9c24:	4620      	mov	r0, r4
   d9c26:	f7fa fa4c 	bl	d40c2 <__cxa_guard_release>
   d9c2a:	4a05      	ldr	r2, [pc, #20]	; (d9c40 <_ZN8particle14BleLocalDevice11getInstanceEv+0x38>)
   d9c2c:	4905      	ldr	r1, [pc, #20]	; (d9c44 <_ZN8particle14BleLocalDevice11getInstanceEv+0x3c>)
   d9c2e:	4803      	ldr	r0, [pc, #12]	; (d9c3c <_ZN8particle14BleLocalDevice11getInstanceEv+0x34>)
   d9c30:	f001 fd54 	bl	db6dc <__aeabi_atexit>
    return instance;
}
   d9c34:	4801      	ldr	r0, [pc, #4]	; (d9c3c <_ZN8particle14BleLocalDevice11getInstanceEv+0x34>)
   d9c36:	bd10      	pop	{r4, pc}
   d9c38:	2003e5dc 	.word	0x2003e5dc
   d9c3c:	2003e5e8 	.word	0x2003e5e8
   d9c40:	2003de20 	.word	0x2003de20
   d9c44:	000d9e1d 	.word	0x000d9e1d

000d9c48 <_ZN8particle21BleCharacteristicImpl15onBleCharEventsEPK18hal_ble_char_evt_tPv>:
void BleCharacteristicImpl::onBleCharEvents(const hal_ble_char_evt_t *event, void* context) {
   d9c48:	b530      	push	{r4, r5, lr}
    switch (event->type) {
   d9c4a:	6803      	ldr	r3, [r0, #0]
   d9c4c:	3b09      	subs	r3, #9
   d9c4e:	2b01      	cmp	r3, #1
void BleCharacteristicImpl::onBleCharEvents(const hal_ble_char_evt_t *event, void* context) {
   d9c50:	b08d      	sub	sp, #52	; 0x34
   d9c52:	4604      	mov	r4, r0
   d9c54:	460d      	mov	r5, r1
    switch (event->type) {
   d9c56:	d811      	bhi.n	d9c7c <_ZN8particle21BleCharacteristicImpl15onBleCharEventsEPK18hal_ble_char_evt_tPv+0x34>
            auto peer = BleLocalDevice::getInstance().impl()->findPeerDevice(event->conn_handle);
   d9c58:	f7ff ffd6 	bl	d9c08 <_ZN8particle14BleLocalDevice11getInstanceEv>
   d9c5c:	88a1      	ldrh	r1, [r4, #4]
   d9c5e:	6800      	ldr	r0, [r0, #0]
   d9c60:	f7ff feb8 	bl	d99d4 <_ZN8particle18BleLocalDeviceImpl14findPeerDeviceEt>
            if (!peer) {
   d9c64:	4603      	mov	r3, r0
   d9c66:	b958      	cbnz	r0, d9c80 <_ZN8particle21BleCharacteristicImpl15onBleCharEventsEPK18hal_ble_char_evt_tPv+0x38>
                LOG(ERROR, "Peer device is missing!");
   d9c68:	2220      	movs	r2, #32
   d9c6a:	e9cd 2004 	strd	r2, r0, [sp, #16]
   d9c6e:	4a0b      	ldr	r2, [pc, #44]	; (d9c9c <_ZN8particle21BleCharacteristicImpl15onBleCharEventsEPK18hal_ble_char_evt_tPv+0x54>)
   d9c70:	9200      	str	r2, [sp, #0]
   d9c72:	490b      	ldr	r1, [pc, #44]	; (d9ca0 <_ZN8particle21BleCharacteristicImpl15onBleCharEventsEPK18hal_ble_char_evt_tPv+0x58>)
   d9c74:	aa04      	add	r2, sp, #16
   d9c76:	2032      	movs	r0, #50	; 0x32
   d9c78:	f7ff f85a 	bl	d8d30 <log_message>
}
   d9c7c:	b00d      	add	sp, #52	; 0x34
   d9c7e:	bd30      	pop	{r4, r5, pc}
            if (impl->dataReceivedCallback_) {
   d9c80:	6d6a      	ldr	r2, [r5, #84]	; 0x54
   d9c82:	2a00      	cmp	r2, #0
   d9c84:	d0fa      	beq.n	d9c7c <_ZN8particle21BleCharacteristicImpl15onBleCharEventsEPK18hal_ble_char_evt_tPv+0x34>
                impl->dataReceivedCallback_(event->params.data_written.data, event->params.data_written.len, *peer);
   d9c86:	e9d4 2103 	ldrd	r2, r1, [r4, #12]
    function<_Res(_ArgTypes...)>::
    operator()(_ArgTypes... __args) const
    {
      if (_M_empty())
	__throw_bad_function_call();
      return _M_invoker(_M_functor, std::forward<_ArgTypes>(__args)...);
   d9c8a:	f105 004c 	add.w	r0, r5, #76	; 0x4c
   d9c8e:	e9cd 1203 	strd	r1, r2, [sp, #12]
   d9c92:	6dac      	ldr	r4, [r5, #88]	; 0x58
   d9c94:	aa04      	add	r2, sp, #16
   d9c96:	a903      	add	r1, sp, #12
   d9c98:	47a0      	blx	r4
}
   d9c9a:	e7ef      	b.n	d9c7c <_ZN8particle21BleCharacteristicImpl15onBleCharEventsEPK18hal_ble_char_evt_tPv+0x34>
   d9c9c:	000de997 	.word	0x000de997
   d9ca0:	000de970 	.word	0x000de970

000d9ca4 <_ZNK8particle14BleLocalDevice2onEv>:
    stopAdvertising(); // BLE HAL will guard that device keeps broadcasting if device is in the Listening mode.
    stopScanning();
    return SYSTEM_ERROR_NONE;
}

int BleLocalDevice::on() const {
   d9ca4:	b508      	push	{r3, lr}
    CHECK(hal_ble_stack_init(nullptr));
   d9ca6:	2000      	movs	r0, #0
   d9ca8:	f7fe fe4c 	bl	d8944 <hal_ble_stack_init>
    return SYSTEM_ERROR_NONE;
}
   d9cac:	ea00 70e0 	and.w	r0, r0, r0, asr #31
   d9cb0:	bd08      	pop	{r3, pc}

000d9cb2 <_ZNK8particle14BleLocalDevice18setAdvertisingDataEPNS_18BleAdvertisingDataE>:
int BleLocalDevice::getAdvertisingParameters(BleAdvertisingParams& params) const {
    return getAdvertisingParameters(&params);
}

int BleLocalDevice::setAdvertisingData(BleAdvertisingData* advertisingData) const {
    if (advertisingData == nullptr) {
   d9cb2:	4608      	mov	r0, r1
   d9cb4:	b911      	cbnz	r1, d9cbc <_ZNK8particle14BleLocalDevice18setAdvertisingDataEPNS_18BleAdvertisingDataE+0xa>
        return hal_ble_gap_set_advertising_data(nullptr, 0, nullptr);
   d9cb6:	460a      	mov	r2, r1
    } else {
        return hal_ble_gap_set_advertising_data(advertisingData->data(), advertisingData->length(), nullptr);
   d9cb8:	f7fe be4c 	b.w	d8954 <hal_ble_gap_set_advertising_data>
   d9cbc:	6a09      	ldr	r1, [r1, #32]
   d9cbe:	2200      	movs	r2, #0
   d9cc0:	e7fa      	b.n	d9cb8 <_ZNK8particle14BleLocalDevice18setAdvertisingDataEPNS_18BleAdvertisingDataE+0x6>

000d9cc2 <_ZNK8particle14BleLocalDevice19setScanResponseDataEPNS_18BleAdvertisingDataE>:

int BleLocalDevice::setAdvertisingData(BleAdvertisingData& advertisingData) const {
    return setAdvertisingData(&advertisingData);
}

int BleLocalDevice::setScanResponseData(BleAdvertisingData* scanResponse) const {
   d9cc2:	b507      	push	{r0, r1, r2, lr}
    if (scanResponse == nullptr) {
   d9cc4:	4608      	mov	r0, r1
   d9cc6:	b929      	cbnz	r1, d9cd4 <_ZNK8particle14BleLocalDevice19setScanResponseDataEPNS_18BleAdvertisingDataE+0x12>
        return hal_ble_gap_set_scan_response_data(nullptr, 0, nullptr);
   d9cc8:	460a      	mov	r2, r1
    } else {
        scanResponse->remove(BleAdvertisingDataType::FLAGS);
        return hal_ble_gap_set_scan_response_data(scanResponse->data(), scanResponse->length(), nullptr);
    }
}
   d9cca:	b003      	add	sp, #12
   d9ccc:	f85d eb04 	ldr.w	lr, [sp], #4
        return hal_ble_gap_set_scan_response_data(scanResponse->data(), scanResponse->length(), nullptr);
   d9cd0:	f7fe be48 	b.w	d8964 <hal_ble_gap_set_scan_response_data>
        scanResponse->remove(BleAdvertisingDataType::FLAGS);
   d9cd4:	2101      	movs	r1, #1
   d9cd6:	9001      	str	r0, [sp, #4]
   d9cd8:	f7ff fe3f 	bl	d995a <_ZN8particle18BleAdvertisingData6removeENS_22BleAdvertisingDataTypeE>
        return hal_ble_gap_set_scan_response_data(scanResponse->data(), scanResponse->length(), nullptr);
   d9cdc:	9801      	ldr	r0, [sp, #4]
   d9cde:	2200      	movs	r2, #0
   d9ce0:	6a01      	ldr	r1, [r0, #32]
   d9ce2:	e7f2      	b.n	d9cca <_ZNK8particle14BleLocalDevice19setScanResponseDataEPNS_18BleAdvertisingDataE+0x8>

000d9ce4 <_ZNK8particle14BleLocalDevice9advertiseEPNS_18BleAdvertisingDataES2_>:

int BleLocalDevice::advertise() const {
    return hal_ble_gap_start_advertising(nullptr);
}

int BleLocalDevice::advertise(BleAdvertisingData* advertisingData, BleAdvertisingData* scanResponse) const {
   d9ce4:	b538      	push	{r3, r4, r5, lr}
   d9ce6:	4604      	mov	r4, r0
   d9ce8:	4615      	mov	r5, r2
    CHECK(setAdvertisingData(advertisingData));
   d9cea:	f7ff ffe2 	bl	d9cb2 <_ZNK8particle14BleLocalDevice18setAdvertisingDataEPNS_18BleAdvertisingDataE>
   d9cee:	2800      	cmp	r0, #0
   d9cf0:	db0a      	blt.n	d9d08 <_ZNK8particle14BleLocalDevice9advertiseEPNS_18BleAdvertisingDataES2_+0x24>
    CHECK(setScanResponseData(scanResponse));
   d9cf2:	4629      	mov	r1, r5
   d9cf4:	4620      	mov	r0, r4
   d9cf6:	f7ff ffe4 	bl	d9cc2 <_ZNK8particle14BleLocalDevice19setScanResponseDataEPNS_18BleAdvertisingDataE>
   d9cfa:	2800      	cmp	r0, #0
   d9cfc:	db04      	blt.n	d9d08 <_ZNK8particle14BleLocalDevice9advertiseEPNS_18BleAdvertisingDataES2_+0x24>
    return advertise();
}
   d9cfe:	e8bd 4038 	ldmia.w	sp!, {r3, r4, r5, lr}
    return hal_ble_gap_start_advertising(nullptr);
   d9d02:	2000      	movs	r0, #0
   d9d04:	f7fe be36 	b.w	d8974 <hal_ble_gap_start_advertising>
}
   d9d08:	bd38      	pop	{r3, r4, r5, pc}

000d9d0a <_ZNK8particle14BleLocalDevice9connectedEv>:
    ppcp.conn_sup_timeout = timeout;
    return hal_ble_gap_set_ppcp(&ppcp, nullptr);
}

bool BleLocalDevice::connected() const {
    return (impl()->peers().size() > 0);
   d9d0a:	6803      	ldr	r3, [r0, #0]
   d9d0c:	69d8      	ldr	r0, [r3, #28]
}
   d9d0e:	2800      	cmp	r0, #0
   d9d10:	bfd4      	ite	le
   d9d12:	2000      	movle	r0, #0
   d9d14:	2001      	movgt	r0, #1
   d9d16:	4770      	bx	lr

000d9d18 <_ZNSt8functionIFvPKhjRKN8particle13BlePeerDeviceEEEC1ISt5_BindIFPFvS1_jS5_PvESt12_PlaceholderILi1EESD_ILi2EESD_ILi3EESA_EEvvEET_>:
      function<_Res(_ArgTypes...)>::
   d9d18:	b538      	push	{r3, r4, r5, lr}
    _Function_base() : _M_manager(nullptr) { }
   d9d1a:	2300      	movs	r3, #0
      function<_Res(_ArgTypes...)>::
   d9d1c:	4604      	mov	r4, r0
    _Function_base() : _M_manager(nullptr) { }
   d9d1e:	6083      	str	r3, [r0, #8]
	{ __functor._M_access<_Functor*>() = new _Functor(std::move(__f)); }
   d9d20:	2008      	movs	r0, #8
      function<_Res(_ArgTypes...)>::
   d9d22:	460d      	mov	r5, r1
	{ __functor._M_access<_Functor*>() = new _Functor(std::move(__f)); }
   d9d24:	f7fa f9b7 	bl	d4096 <_Znwj>
   d9d28:	b118      	cbz	r0, d9d32 <_ZNSt8functionIFvPKhjRKN8particle13BlePeerDeviceEEEC1ISt5_BindIFPFvS1_jS5_PvESt12_PlaceholderILi1EESD_ILi2EESD_ILi3EESA_EEvvEET_+0x1a>
	{ }

      _Bind(const _Bind&) = default;

      _Bind(_Bind&& __b)
      : _M_f(std::move(__b._M_f)), _M_bound_args(std::move(__b._M_bound_args))
   d9d2a:	682b      	ldr	r3, [r5, #0]
   d9d2c:	6003      	str	r3, [r0, #0]
      constexpr _Head_base(const _Head_base&) = default;
      constexpr _Head_base(_Head_base&&) = default;

      template<typename _UHead>
        constexpr _Head_base(_UHead&& __h)
	: _M_head_impl(std::forward<_UHead>(__h)) { }
   d9d2e:	686b      	ldr	r3, [r5, #4]
   d9d30:	6043      	str	r3, [r0, #4]
	    _M_invoker = &_My_handler::_M_invoke;
   d9d32:	4b03      	ldr	r3, [pc, #12]	; (d9d40 <_ZNSt8functionIFvPKhjRKN8particle13BlePeerDeviceEEEC1ISt5_BindIFPFvS1_jS5_PvESt12_PlaceholderILi1EESD_ILi2EESD_ILi3EESA_EEvvEET_+0x28>)
   d9d34:	60e3      	str	r3, [r4, #12]
	    _M_manager = &_My_handler::_M_manager;
   d9d36:	4b03      	ldr	r3, [pc, #12]	; (d9d44 <_ZNSt8functionIFvPKhjRKN8particle13BlePeerDeviceEEEC1ISt5_BindIFPFvS1_jS5_PvESt12_PlaceholderILi1EESD_ILi2EESD_ILi3EESA_EEvvEET_+0x2c>)
	{ __functor._M_access<_Functor*>() = new _Functor(std::move(__f)); }
   d9d38:	6020      	str	r0, [r4, #0]
	    _M_manager = &_My_handler::_M_manager;
   d9d3a:	60a3      	str	r3, [r4, #8]
      }
   d9d3c:	4620      	mov	r0, r4
   d9d3e:	bd38      	pop	{r3, r4, r5, pc}
   d9d40:	000d95eb 	.word	0x000d95eb
   d9d44:	000d95ad 	.word	0x000d95ad

000d9d48 <_ZNSt14__shared_countILN9__gnu_cxx12_Lock_policyE0EEC1ERKS2_>:
      : _M_pi(__r._M_pi)
   d9d48:	680b      	ldr	r3, [r1, #0]
   d9d4a:	6003      	str	r3, [r0, #0]
	if (_M_pi != 0)
   d9d4c:	b113      	cbz	r3, d9d54 <_ZNSt14__shared_countILN9__gnu_cxx12_Lock_policyE0EEC1ERKS2_+0xc>
    { ++_M_use_count; }
   d9d4e:	685a      	ldr	r2, [r3, #4]
   d9d50:	3201      	adds	r2, #1
   d9d52:	605a      	str	r2, [r3, #4]
      }
   d9d54:	4770      	bx	lr

000d9d56 <_ZN8particle17BleCharacteristicC1ERKS0_>:
BleCharacteristic::BleCharacteristic(const BleCharacteristic& characteristic)
   d9d56:	b510      	push	{r4, lr}
      __shared_ptr(const __shared_ptr&) noexcept = default;
   d9d58:	f851 3b04 	ldr.w	r3, [r1], #4
   d9d5c:	4604      	mov	r4, r0
   d9d5e:	f840 3b04 	str.w	r3, [r0], #4
   d9d62:	f7ff fff1 	bl	d9d48 <_ZNSt14__shared_countILN9__gnu_cxx12_Lock_policyE0EEC1ERKS2_>
    if (!impl()) {
   d9d66:	6823      	ldr	r3, [r4, #0]
   d9d68:	b90b      	cbnz	r3, d9d6e <_ZN8particle17BleCharacteristicC1ERKS0_+0x18>
   d9d6a:	f7ff fc17 	bl	d959c <_ZN8particle10BleServiceC2ERKNS_7BleUuidE.part.0>
}
   d9d6e:	4620      	mov	r0, r4
   d9d70:	bd10      	pop	{r4, pc}

000d9d72 <_ZNSt12__shared_ptrIN8particle14BleServiceImplELN9__gnu_cxx12_Lock_policyE0EEC1ERKS4_>:
   d9d72:	b510      	push	{r4, lr}
   d9d74:	f851 3b04 	ldr.w	r3, [r1], #4
   d9d78:	4604      	mov	r4, r0
   d9d7a:	f840 3b04 	str.w	r3, [r0], #4
   d9d7e:	f7ff ffe3 	bl	d9d48 <_ZNSt14__shared_countILN9__gnu_cxx12_Lock_policyE0EEC1ERKS2_>
   d9d82:	4620      	mov	r0, r4
   d9d84:	bd10      	pop	{r4, pc}

000d9d86 <_ZNSt12__shared_ptrIN8particle17BlePeerDeviceImplELN9__gnu_cxx12_Lock_policyE0EEC1ERKS4_>:
   d9d86:	b510      	push	{r4, lr}
   d9d88:	f851 3b04 	ldr.w	r3, [r1], #4
   d9d8c:	4604      	mov	r4, r0
   d9d8e:	f840 3b04 	str.w	r3, [r0], #4
   d9d92:	f7ff ffd9 	bl	d9d48 <_ZNSt14__shared_countILN9__gnu_cxx12_Lock_policyE0EEC1ERKS2_>
   d9d96:	4620      	mov	r0, r4
   d9d98:	bd10      	pop	{r4, pc}

000d9d9a <_ZNSt14__shared_countILN9__gnu_cxx12_Lock_policyE0EED1Ev>:
      ~__shared_count() noexcept
   d9d9a:	b510      	push	{r4, lr}
   d9d9c:	4604      	mov	r4, r0
	if (_M_pi != nullptr)
   d9d9e:	6800      	ldr	r0, [r0, #0]
   d9da0:	b128      	cbz	r0, d9dae <_ZNSt14__shared_countILN9__gnu_cxx12_Lock_policyE0EED1Ev+0x14>
      if (--_M_use_count == 0)
   d9da2:	6843      	ldr	r3, [r0, #4]
   d9da4:	3b01      	subs	r3, #1
   d9da6:	6043      	str	r3, [r0, #4]
   d9da8:	b90b      	cbnz	r3, d9dae <_ZNSt14__shared_countILN9__gnu_cxx12_Lock_policyE0EED1Ev+0x14>
   d9daa:	f7ff fb6a 	bl	d9482 <_ZNSt16_Sp_counted_baseILN9__gnu_cxx12_Lock_policyE0EE10_M_releaseEv.part.0>
      }
   d9dae:	4620      	mov	r0, r4
   d9db0:	bd10      	pop	{r4, pc}

000d9db2 <_ZN8particle17BleCharacteristicD1Ev>:
BleCharacteristic::~BleCharacteristic() {
   d9db2:	b510      	push	{r4, lr}
   d9db4:	4604      	mov	r4, r0
      ~__shared_ptr() = default;
   d9db6:	3004      	adds	r0, #4
   d9db8:	f7ff ffef 	bl	d9d9a <_ZNSt14__shared_countILN9__gnu_cxx12_Lock_policyE0EED1Ev>
}
   d9dbc:	4620      	mov	r0, r4
   d9dbe:	bd10      	pop	{r4, pc}

000d9dc0 <_ZN5spark6VectorIN8particle10BleServiceENS_16DefaultAllocatorEED1Ev>:
inline spark::Vector<T, AllocatorT>::~Vector() {
   d9dc0:	b570      	push	{r4, r5, r6, lr}
    destruct(data_, data_ + size_);
   d9dc2:	e9d0 5300 	ldrd	r5, r3, [r0]
inline spark::Vector<T, AllocatorT>::~Vector() {
   d9dc6:	4604      	mov	r4, r0
    destruct(data_, data_ + size_);
   d9dc8:	eb05 06c3 	add.w	r6, r5, r3, lsl #3
        for (; p != end; ++p) {
   d9dcc:	42ae      	cmp	r6, r5
   d9dce:	d004      	beq.n	d9dda <_ZN5spark6VectorIN8particle10BleServiceENS_16DefaultAllocatorEED1Ev+0x1a>
   d9dd0:	1d28      	adds	r0, r5, #4
   d9dd2:	f7ff ffe2 	bl	d9d9a <_ZNSt14__shared_countILN9__gnu_cxx12_Lock_policyE0EED1Ev>
   d9dd6:	3508      	adds	r5, #8
   d9dd8:	e7f8      	b.n	d9dcc <_ZN5spark6VectorIN8particle10BleServiceENS_16DefaultAllocatorEED1Ev+0xc>
    ::free(ptr);
   d9dda:	6820      	ldr	r0, [r4, #0]
   d9ddc:	f7ff f8a6 	bl	d8f2c <free>
}
   d9de0:	4620      	mov	r0, r4
   d9de2:	bd70      	pop	{r4, r5, r6, pc}

000d9de4 <_ZN5spark6VectorIN8particle17BleCharacteristicENS_16DefaultAllocatorEED1Ev>:
inline spark::Vector<T, AllocatorT>::~Vector() {
   d9de4:	b570      	push	{r4, r5, r6, lr}
    destruct(data_, data_ + size_);
   d9de6:	e9d0 5300 	ldrd	r5, r3, [r0]
inline spark::Vector<T, AllocatorT>::~Vector() {
   d9dea:	4604      	mov	r4, r0
    destruct(data_, data_ + size_);
   d9dec:	eb05 06c3 	add.w	r6, r5, r3, lsl #3
        for (; p != end; ++p) {
   d9df0:	42ae      	cmp	r6, r5
   d9df2:	d004      	beq.n	d9dfe <_ZN5spark6VectorIN8particle17BleCharacteristicENS_16DefaultAllocatorEED1Ev+0x1a>
   d9df4:	1d28      	adds	r0, r5, #4
   d9df6:	f7ff ffd0 	bl	d9d9a <_ZNSt14__shared_countILN9__gnu_cxx12_Lock_policyE0EED1Ev>
   d9dfa:	3508      	adds	r5, #8
   d9dfc:	e7f8      	b.n	d9df0 <_ZN5spark6VectorIN8particle17BleCharacteristicENS_16DefaultAllocatorEED1Ev+0xc>
    ::free(ptr);
   d9dfe:	6820      	ldr	r0, [r4, #0]
   d9e00:	f7ff f894 	bl	d8f2c <free>
}
   d9e04:	4620      	mov	r0, r4
   d9e06:	bd70      	pop	{r4, r5, r6, pc}

000d9e08 <_ZNSt23_Sp_counted_ptr_inplaceIN8particle17BlePeerDeviceImplESaIS1_ELN9__gnu_cxx12_Lock_policyE0EE10_M_disposeEv>:
      _M_dispose() noexcept
   d9e08:	b510      	push	{r4, lr}
   d9e0a:	4604      	mov	r4, r0
    ~BlePeerDeviceImpl() = default;
   d9e0c:	3024      	adds	r0, #36	; 0x24
   d9e0e:	f7ff ffe9 	bl	d9de4 <_ZN5spark6VectorIN8particle17BleCharacteristicENS_16DefaultAllocatorEED1Ev>
   d9e12:	f104 0018 	add.w	r0, r4, #24
   d9e16:	f7ff ffd3 	bl	d9dc0 <_ZN5spark6VectorIN8particle10BleServiceENS_16DefaultAllocatorEED1Ev>
      }
   d9e1a:	bd10      	pop	{r4, pc}

000d9e1c <_ZN8particle14BleLocalDeviceD1Ev>:
        return impl_.get();
    }

private:
    BleLocalDevice();
    ~BleLocalDevice() = default;
   d9e1c:	b5f8      	push	{r3, r4, r5, r6, r7, lr}
	if (__ptr != nullptr)
   d9e1e:	6804      	ldr	r4, [r0, #0]
   d9e20:	4606      	mov	r6, r0
   d9e22:	b324      	cbz	r4, d9e6e <_ZN8particle14BleLocalDeviceD1Ev+0x52>
    class function<_Res(_ArgTypes...)>
   d9e24:	f104 0044 	add.w	r0, r4, #68	; 0x44
   d9e28:	f7ff fbeb 	bl	d9602 <_ZNSt14_Function_baseD1Ev>
   d9e2c:	f104 0034 	add.w	r0, r4, #52	; 0x34
   d9e30:	f7ff fbe7 	bl	d9602 <_ZNSt14_Function_baseD1Ev>
   d9e34:	f104 0024 	add.w	r0, r4, #36	; 0x24
   d9e38:	f7ff fbe3 	bl	d9602 <_ZNSt14_Function_baseD1Ev>
    destruct(data_, data_ + size_);
   d9e3c:	e9d4 5306 	ldrd	r5, r3, [r4, #24]
   d9e40:	eb05 07c3 	add.w	r7, r5, r3, lsl #3
        for (; p != end; ++p) {
   d9e44:	42af      	cmp	r7, r5
   d9e46:	d004      	beq.n	d9e52 <_ZN8particle14BleLocalDeviceD1Ev+0x36>
      ~__shared_ptr() = default;
   d9e48:	1d28      	adds	r0, r5, #4
   d9e4a:	f7ff ffa6 	bl	d9d9a <_ZNSt14__shared_countILN9__gnu_cxx12_Lock_policyE0EED1Ev>
   d9e4e:	3508      	adds	r5, #8
   d9e50:	e7f8      	b.n	d9e44 <_ZN8particle14BleLocalDeviceD1Ev+0x28>
    ::free(ptr);
   d9e52:	69a0      	ldr	r0, [r4, #24]
   d9e54:	f7ff f86a 	bl	d8f2c <free>
    ~BleLocalDeviceImpl() = default;
   d9e58:	f104 000c 	add.w	r0, r4, #12
   d9e5c:	f7ff ffc2 	bl	d9de4 <_ZN5spark6VectorIN8particle17BleCharacteristicENS_16DefaultAllocatorEED1Ev>
   d9e60:	4620      	mov	r0, r4
   d9e62:	f7ff ffad 	bl	d9dc0 <_ZN5spark6VectorIN8particle10BleServiceENS_16DefaultAllocatorEED1Ev>
	delete __ptr;
   d9e66:	2154      	movs	r1, #84	; 0x54
   d9e68:	4620      	mov	r0, r4
   d9e6a:	f001 fc3c 	bl	db6e6 <_ZdlPvj>
   d9e6e:	4630      	mov	r0, r6
   d9e70:	bdf8      	pop	{r3, r4, r5, r6, r7, pc}

000d9e72 <_ZNKSt8functionIFvRKN8particle13BlePeerDeviceEEEclES3_>:
      if (_M_empty())
   d9e72:	6882      	ldr	r2, [r0, #8]
    function<_Res(_ArgTypes...)>::
   d9e74:	b510      	push	{r4, lr}
      if (_M_empty())
   d9e76:	b90a      	cbnz	r2, d9e7c <_ZNKSt8functionIFvRKN8particle13BlePeerDeviceEEEclES3_+0xa>
	__throw_bad_function_call();
   d9e78:	f001 fc39 	bl	db6ee <_ZSt25__throw_bad_function_callv>
    }
   d9e7c:	e8bd 4010 	ldmia.w	sp!, {r4, lr}
      return _M_invoker(_M_functor, std::forward<_ArgTypes>(__args)...);
   d9e80:	68c3      	ldr	r3, [r0, #12]
   d9e82:	4718      	bx	r3

000d9e84 <_ZN5spark6VectorIN8particle13BlePeerDeviceENS_16DefaultAllocatorEE4moveIS2_Li0EEEvPS2_S6_S6_>:
        if (dest > p && dest < end) {
   d9e84:	4288      	cmp	r0, r1
    static void move(T* dest, T* p, T* end) {
   d9e86:	b5f8      	push	{r3, r4, r5, r6, r7, lr}
   d9e88:	4604      	mov	r4, r0
   d9e8a:	460d      	mov	r5, r1
   d9e8c:	4616      	mov	r6, r2
        if (dest > p && dest < end) {
   d9e8e:	d914      	bls.n	d9eba <_ZN5spark6VectorIN8particle13BlePeerDeviceENS_16DefaultAllocatorEE4moveIS2_Li0EEEvPS2_S6_S6_+0x36>
   d9e90:	4290      	cmp	r0, r2
   d9e92:	d213      	bcs.n	d9ebc <_ZN5spark6VectorIN8particle13BlePeerDeviceENS_16DefaultAllocatorEE4moveIS2_Li0EEEvPS2_S6_S6_+0x38>
            --end;
   d9e94:	f1a2 0608 	sub.w	r6, r2, #8
            dest += end - p - 1;
   d9e98:	1a75      	subs	r5, r6, r1
   d9e9a:	f1a1 0708 	sub.w	r7, r1, #8
   d9e9e:	442c      	add	r4, r5
            for (; end != p; --end, --dest) {
   d9ea0:	42b7      	cmp	r7, r6
   d9ea2:	d018      	beq.n	d9ed6 <_ZN5spark6VectorIN8particle13BlePeerDeviceENS_16DefaultAllocatorEE4moveIS2_Li0EEEvPS2_S6_S6_+0x52>
                new(dest) T(std::move(*end));
   d9ea4:	b11c      	cbz	r4, d9eae <_ZN5spark6VectorIN8particle13BlePeerDeviceENS_16DefaultAllocatorEE4moveIS2_Li0EEEvPS2_S6_S6_+0x2a>
       *  @brief  Construct an empty %shared_ptr.
       *  @post   use_count()==0 && get()==0
       */
      constexpr shared_ptr() noexcept : __shared_ptr<_Tp>() { }

      shared_ptr(const shared_ptr&) noexcept = default;
   d9ea6:	4631      	mov	r1, r6
   d9ea8:	4620      	mov	r0, r4
   d9eaa:	f7ff ff6c 	bl	d9d86 <_ZNSt12__shared_ptrIN8particle17BlePeerDeviceImplELN9__gnu_cxx12_Lock_policyE0EEC1ERKS4_>
   d9eae:	1d30      	adds	r0, r6, #4
   d9eb0:	f7ff ff73 	bl	d9d9a <_ZNSt14__shared_countILN9__gnu_cxx12_Lock_policyE0EED1Ev>
            for (; end != p; --end, --dest) {
   d9eb4:	3e08      	subs	r6, #8
   d9eb6:	3c08      	subs	r4, #8
   d9eb8:	e7f2      	b.n	d9ea0 <_ZN5spark6VectorIN8particle13BlePeerDeviceENS_16DefaultAllocatorEE4moveIS2_Li0EEEvPS2_S6_S6_+0x1c>
        } else if (dest != p) {
   d9eba:	d00c      	beq.n	d9ed6 <_ZN5spark6VectorIN8particle13BlePeerDeviceENS_16DefaultAllocatorEE4moveIS2_Li0EEEvPS2_S6_S6_+0x52>
            for (; p != end; ++p, ++dest) {
   d9ebc:	42b5      	cmp	r5, r6
   d9ebe:	d00a      	beq.n	d9ed6 <_ZN5spark6VectorIN8particle13BlePeerDeviceENS_16DefaultAllocatorEE4moveIS2_Li0EEEvPS2_S6_S6_+0x52>
                new(dest) T(std::move(*p));
   d9ec0:	b11c      	cbz	r4, d9eca <_ZN5spark6VectorIN8particle13BlePeerDeviceENS_16DefaultAllocatorEE4moveIS2_Li0EEEvPS2_S6_S6_+0x46>
   d9ec2:	4629      	mov	r1, r5
   d9ec4:	4620      	mov	r0, r4
   d9ec6:	f7ff ff5e 	bl	d9d86 <_ZNSt12__shared_ptrIN8particle17BlePeerDeviceImplELN9__gnu_cxx12_Lock_policyE0EEC1ERKS4_>
   d9eca:	1d28      	adds	r0, r5, #4
   d9ecc:	f7ff ff65 	bl	d9d9a <_ZNSt14__shared_countILN9__gnu_cxx12_Lock_policyE0EED1Ev>
            for (; p != end; ++p, ++dest) {
   d9ed0:	3508      	adds	r5, #8
   d9ed2:	3408      	adds	r4, #8
   d9ed4:	e7f2      	b.n	d9ebc <_ZN5spark6VectorIN8particle13BlePeerDeviceENS_16DefaultAllocatorEE4moveIS2_Li0EEEvPS2_S6_S6_+0x38>
    }
   d9ed6:	bdf8      	pop	{r3, r4, r5, r6, r7, pc}

000d9ed8 <_ZN5spark6VectorIN8particle13BlePeerDeviceENS_16DefaultAllocatorEE9removeOneERKS2_>:
inline bool spark::Vector<T, AllocatorT>::removeOne(const T &value) {
   d9ed8:	e92d 41f0 	stmdb	sp!, {r4, r5, r6, r7, r8, lr}
    T* const p = find(data_, data_ + size_, value);
   d9edc:	e9d0 4300 	ldrd	r4, r3, [r0]
inline bool spark::Vector<T, AllocatorT>::removeOne(const T &value) {
   d9ee0:	4605      	mov	r5, r0
   d9ee2:	4688      	mov	r8, r1
    T* const p = find(data_, data_ + size_, value);
   d9ee4:	eb04 07c3 	add.w	r7, r4, r3, lsl #3
        for (; p != end; ++p) {
   d9ee8:	42a7      	cmp	r7, r4
   d9eea:	d103      	bne.n	d9ef4 <_ZN5spark6VectorIN8particle13BlePeerDeviceENS_16DefaultAllocatorEE9removeOneERKS2_+0x1c>
        return false;
   d9eec:	2600      	movs	r6, #0
}
   d9eee:	4630      	mov	r0, r6
   d9ef0:	e8bd 81f0 	ldmia.w	sp!, {r4, r5, r6, r7, r8, pc}
            if (*p == value) {
   d9ef4:	4641      	mov	r1, r8
   d9ef6:	4620      	mov	r0, r4
   d9ef8:	f7ff fe36 	bl	d9b68 <_ZNK8particle13BlePeerDeviceeqERKS0_>
   d9efc:	4606      	mov	r6, r0
   d9efe:	b908      	cbnz	r0, d9f04 <_ZN5spark6VectorIN8particle13BlePeerDeviceENS_16DefaultAllocatorEE9removeOneERKS2_+0x2c>
        for (; p != end; ++p) {
   d9f00:	3408      	adds	r4, #8
   d9f02:	e7f1      	b.n	d9ee8 <_ZN5spark6VectorIN8particle13BlePeerDeviceENS_16DefaultAllocatorEE9removeOneERKS2_+0x10>
    if (!p) {
   d9f04:	2c00      	cmp	r4, #0
   d9f06:	d0f1      	beq.n	d9eec <_ZN5spark6VectorIN8particle13BlePeerDeviceENS_16DefaultAllocatorEE9removeOneERKS2_+0x14>
   d9f08:	1d20      	adds	r0, r4, #4
   d9f0a:	f7ff ff46 	bl	d9d9a <_ZNSt14__shared_countILN9__gnu_cxx12_Lock_policyE0EED1Ev>
    move(p, p + 1, data_ + size_);
   d9f0e:	e9d5 3200 	ldrd	r3, r2, [r5]
   d9f12:	f104 0108 	add.w	r1, r4, #8
   d9f16:	eb03 02c2 	add.w	r2, r3, r2, lsl #3
   d9f1a:	4620      	mov	r0, r4
   d9f1c:	f7ff ffb2 	bl	d9e84 <_ZN5spark6VectorIN8particle13BlePeerDeviceENS_16DefaultAllocatorEE4moveIS2_Li0EEEvPS2_S6_S6_>
    --size_;
   d9f20:	686b      	ldr	r3, [r5, #4]
   d9f22:	3b01      	subs	r3, #1
   d9f24:	606b      	str	r3, [r5, #4]
    return true;
   d9f26:	e7e2      	b.n	d9eee <_ZN5spark6VectorIN8particle13BlePeerDeviceENS_16DefaultAllocatorEE9removeOneERKS2_+0x16>

000d9f28 <_ZN5spark6VectorIN8particle13BlePeerDeviceENS_16DefaultAllocatorEE6appendES2_>:
inline bool spark::Vector<T, AllocatorT>::append(T value) {
   d9f28:	b5f7      	push	{r0, r1, r2, r4, r5, r6, r7, lr}
   d9f2a:	4604      	mov	r4, r0
    return insert(size_, std::move(value));
   d9f2c:	6846      	ldr	r6, [r0, #4]
   d9f2e:	4668      	mov	r0, sp
   d9f30:	f7ff ff29 	bl	d9d86 <_ZNSt12__shared_ptrIN8particle17BlePeerDeviceImplELN9__gnu_cxx12_Lock_policyE0EEC1ERKS4_>
    if (size_ + 1 > capacity_ && !realloc(size_ + 1)) {
   d9f34:	e9d4 7301 	ldrd	r7, r3, [r4, #4]
   d9f38:	429f      	cmp	r7, r3
   d9f3a:	db12      	blt.n	d9f62 <_ZN5spark6VectorIN8particle13BlePeerDeviceENS_16DefaultAllocatorEE6appendES2_+0x3a>
   d9f3c:	3701      	adds	r7, #1
        if (n > 0) {
   d9f3e:	2f00      	cmp	r7, #0
   d9f40:	dd29      	ble.n	d9f96 <_ZN5spark6VectorIN8particle13BlePeerDeviceENS_16DefaultAllocatorEE6appendES2_+0x6e>
    return ::malloc(size);
   d9f42:	00f8      	lsls	r0, r7, #3
   d9f44:	f7fe ffea 	bl	d8f1c <malloc>
            if (!d) {
   d9f48:	4605      	mov	r5, r0
   d9f4a:	b1f0      	cbz	r0, d9f8a <_ZN5spark6VectorIN8particle13BlePeerDeviceENS_16DefaultAllocatorEE6appendES2_+0x62>
            move(d, data_, data_ + size_);
   d9f4c:	e9d4 1200 	ldrd	r1, r2, [r4]
   d9f50:	eb01 02c2 	add.w	r2, r1, r2, lsl #3
   d9f54:	f7ff ff96 	bl	d9e84 <_ZN5spark6VectorIN8particle13BlePeerDeviceENS_16DefaultAllocatorEE4moveIS2_Li0EEEvPS2_S6_S6_>
    ::free(ptr);
   d9f58:	6820      	ldr	r0, [r4, #0]
   d9f5a:	f7fe ffe7 	bl	d8f2c <free>
        data_ = d;
   d9f5e:	6025      	str	r5, [r4, #0]
        capacity_ = n;
   d9f60:	60a7      	str	r7, [r4, #8]
    T* const p = data_ + i;
   d9f62:	6823      	ldr	r3, [r4, #0]
    move(p + 1, p, data_ + size_);
   d9f64:	6862      	ldr	r2, [r4, #4]
    T* const p = data_ + i;
   d9f66:	eb03 06c6 	add.w	r6, r3, r6, lsl #3
    move(p + 1, p, data_ + size_);
   d9f6a:	eb03 02c2 	add.w	r2, r3, r2, lsl #3
   d9f6e:	4631      	mov	r1, r6
   d9f70:	f106 0008 	add.w	r0, r6, #8
   d9f74:	f7ff ff86 	bl	d9e84 <_ZN5spark6VectorIN8particle13BlePeerDeviceENS_16DefaultAllocatorEE4moveIS2_Li0EEEvPS2_S6_S6_>
    new(p) T(std::move(value));
   d9f78:	b11e      	cbz	r6, d9f82 <_ZN5spark6VectorIN8particle13BlePeerDeviceENS_16DefaultAllocatorEE6appendES2_+0x5a>
   d9f7a:	4669      	mov	r1, sp
   d9f7c:	4630      	mov	r0, r6
   d9f7e:	f7ff ff02 	bl	d9d86 <_ZNSt12__shared_ptrIN8particle17BlePeerDeviceImplELN9__gnu_cxx12_Lock_policyE0EEC1ERKS4_>
    ++size_;
   d9f82:	6863      	ldr	r3, [r4, #4]
   d9f84:	3301      	adds	r3, #1
   d9f86:	6063      	str	r3, [r4, #4]
    return true;
   d9f88:	2501      	movs	r5, #1
   d9f8a:	a801      	add	r0, sp, #4
   d9f8c:	f7ff ff05 	bl	d9d9a <_ZNSt14__shared_countILN9__gnu_cxx12_Lock_policyE0EED1Ev>
}
   d9f90:	4628      	mov	r0, r5
   d9f92:	b003      	add	sp, #12
   d9f94:	bdf0      	pop	{r4, r5, r6, r7, pc}
        T* d = nullptr;
   d9f96:	2500      	movs	r5, #0
   d9f98:	e7de      	b.n	d9f58 <_ZN5spark6VectorIN8particle13BlePeerDeviceENS_16DefaultAllocatorEE6appendES2_+0x30>
	...

000d9f9c <_ZN8particle18BleLocalDeviceImpl15onBleLinkEventsEPK18hal_ble_link_evt_tPv>:
    static void onBleLinkEvents(const hal_ble_link_evt_t* event, void* context) {
   d9f9c:	e92d 41f0 	stmdb	sp!, {r4, r5, r6, r7, r8, lr}
   d9fa0:	4605      	mov	r5, r0
   d9fa2:	b08e      	sub	sp, #56	; 0x38
        WiringBleLock lk;
   d9fa4:	a803      	add	r0, sp, #12
    static void onBleLinkEvents(const hal_ble_link_evt_t* event, void* context) {
   d9fa6:	460c      	mov	r4, r1
        WiringBleLock lk;
   d9fa8:	f7ff fb54 	bl	d9654 <_ZN8particle3ble13WiringBleLockC1Ev>
        switch (event->type) {
   d9fac:	682e      	ldr	r6, [r5, #0]
   d9fae:	2e04      	cmp	r6, #4
   d9fb0:	d06b      	beq.n	da08a <_ZN8particle18BleLocalDeviceImpl15onBleLinkEventsEPK18hal_ble_link_evt_tPv+0xee>
   d9fb2:	d807      	bhi.n	d9fc4 <_ZN8particle18BleLocalDeviceImpl15onBleLinkEventsEPK18hal_ble_link_evt_tPv+0x28>
   d9fb4:	2e03      	cmp	r6, #3
   d9fb6:	d028      	beq.n	da00a <_ZN8particle18BleLocalDeviceImpl15onBleLinkEventsEPK18hal_ble_link_evt_tPv+0x6e>
        WiringBleLock lk;
   d9fb8:	a803      	add	r0, sp, #12
   d9fba:	f7ff fb53 	bl	d9664 <_ZN8particle3ble13WiringBleLockD1Ev>
    }
   d9fbe:	b00e      	add	sp, #56	; 0x38
   d9fc0:	e8bd 81f0 	ldmia.w	sp!, {r4, r5, r6, r7, r8, pc}
        switch (event->type) {
   d9fc4:	f1a6 030c 	sub.w	r3, r6, #12
   d9fc8:	2b03      	cmp	r3, #3
   d9fca:	d8f5      	bhi.n	d9fb8 <_ZN8particle18BleLocalDeviceImpl15onBleLinkEventsEPK18hal_ble_link_evt_tPv+0x1c>
                BlePeerDevice* peer = impl->findPeerDevice(event->conn_handle);
   d9fcc:	89a9      	ldrh	r1, [r5, #12]
   d9fce:	4620      	mov	r0, r4
   d9fd0:	f7ff fd00 	bl	d99d4 <_ZN8particle18BleLocalDeviceImpl14findPeerDeviceEt>
                if (peer) {
   d9fd4:	4607      	mov	r7, r0
   d9fd6:	2800      	cmp	r0, #0
   d9fd8:	d0ee      	beq.n	d9fb8 <_ZN8particle18BleLocalDeviceImpl15onBleLinkEventsEPK18hal_ble_link_evt_tPv+0x1c>
                    if (impl->pairingEventCallback_) {
   d9fda:	6ce3      	ldr	r3, [r4, #76]	; 0x4c
   d9fdc:	2b00      	cmp	r3, #0
   d9fde:	d0eb      	beq.n	d9fb8 <_ZN8particle18BleLocalDeviceImpl15onBleLinkEventsEPK18hal_ble_link_evt_tPv+0x1c>
                        BlePairingEvent pairingEvent = {
   d9fe0:	2210      	movs	r2, #16
   d9fe2:	2100      	movs	r1, #0
   d9fe4:	a807      	add	r0, sp, #28
   d9fe6:	f003 fe43 	bl	ddc70 <memset>
                        if (event->type == BLE_EVT_PAIRING_PASSKEY_DISPLAY) {
   d9fea:	2e0d      	cmp	r6, #13
                        };
   d9fec:	9706      	str	r7, [sp, #24]
                            .type = static_cast<BlePairingEventType>(event->type)
   d9fee:	f88d 601c 	strb.w	r6, [sp, #28]
                        if (event->type == BLE_EVT_PAIRING_PASSKEY_DISPLAY) {
   d9ff2:	f040 8092 	bne.w	da11a <_ZN8particle18BleLocalDeviceImpl15onBleLinkEventsEPK18hal_ble_link_evt_tPv+0x17e>
                            pairingEvent.payload.passkey = event->params.passkey_display.passkey;
   d9ff6:	686b      	ldr	r3, [r5, #4]
   d9ff8:	9309      	str	r3, [sp, #36]	; 0x24
                            pairingEvent.payloadLen = BLE_PAIRING_PASSKEY_LEN;
   d9ffa:	2306      	movs	r3, #6
                            pairingEvent.payloadLen = sizeof(BlePairingStatus);
   d9ffc:	9308      	str	r3, [sp, #32]
   d9ffe:	6d23      	ldr	r3, [r4, #80]	; 0x50
   da000:	a906      	add	r1, sp, #24
   da002:	f104 0044 	add.w	r0, r4, #68	; 0x44
   da006:	4798      	blx	r3
   da008:	e7d6      	b.n	d9fb8 <_ZN8particle18BleLocalDeviceImpl15onBleLinkEventsEPK18hal_ble_link_evt_tPv+0x1c>
                BlePeerDevice peer;
   da00a:	a804      	add	r0, sp, #16
   da00c:	f7ff fd78 	bl	d9b00 <_ZN8particle13BlePeerDeviceC1Ev>
                peer.impl()->connHandle() = event->conn_handle;
   da010:	9b04      	ldr	r3, [sp, #16]
   da012:	89aa      	ldrh	r2, [r5, #12]
   da014:	801a      	strh	r2, [r3, #0]
                peer.impl()->address() = event->params.connected.info->address;
   da016:	6869      	ldr	r1, [r5, #4]
   da018:	9804      	ldr	r0, [sp, #16]
   da01a:	3108      	adds	r1, #8
   da01c:	3002      	adds	r0, #2
   da01e:	f7ff fb29 	bl	d9674 <_ZN8particle10BleAddressaSERK14hal_ble_addr_t>
   da022:	a904      	add	r1, sp, #16
   da024:	a806      	add	r0, sp, #24
   da026:	f7ff feae 	bl	d9d86 <_ZNSt12__shared_ptrIN8particle17BlePeerDeviceImplELN9__gnu_cxx12_Lock_policyE0EEC1ERKS4_>
                if (!impl->peers_.append(peer)) {
   da02a:	a906      	add	r1, sp, #24
   da02c:	f104 0018 	add.w	r0, r4, #24
   da030:	f7ff ff7a 	bl	d9f28 <_ZN5spark6VectorIN8particle13BlePeerDeviceENS_16DefaultAllocatorEE6appendES2_>
   da034:	4605      	mov	r5, r0
   da036:	a807      	add	r0, sp, #28
   da038:	f7ff feaf 	bl	d9d9a <_ZNSt14__shared_countILN9__gnu_cxx12_Lock_policyE0EED1Ev>
   da03c:	2320      	movs	r3, #32
                    LOG(ERROR, "Failed to append peer Central device.");
   da03e:	9306      	str	r3, [sp, #24]
                if (!impl->peers_.append(peer)) {
   da040:	b98d      	cbnz	r5, da066 <_ZN8particle18BleLocalDeviceImpl15onBleLinkEventsEPK18hal_ble_link_evt_tPv+0xca>
                    LOG(ERROR, "Failed to append peer Central device.");
   da042:	4b3e      	ldr	r3, [pc, #248]	; (da13c <_ZN8particle18BleLocalDeviceImpl15onBleLinkEventsEPK18hal_ble_link_evt_tPv+0x1a0>)
   da044:	493e      	ldr	r1, [pc, #248]	; (da140 <_ZN8particle18BleLocalDeviceImpl15onBleLinkEventsEPK18hal_ble_link_evt_tPv+0x1a4>)
   da046:	9300      	str	r3, [sp, #0]
   da048:	2032      	movs	r0, #50	; 0x32
   da04a:	462b      	mov	r3, r5
   da04c:	aa06      	add	r2, sp, #24
   da04e:	9507      	str	r5, [sp, #28]
   da050:	f7fe fe6e 	bl	d8d30 <log_message>
                    hal_ble_gap_disconnect(peer.impl()->connHandle(), nullptr);
   da054:	9b04      	ldr	r3, [sp, #16]
   da056:	4629      	mov	r1, r5
   da058:	8818      	ldrh	r0, [r3, #0]
   da05a:	f7fe fc93 	bl	d8984 <hal_ble_gap_disconnect>
   da05e:	a805      	add	r0, sp, #20
   da060:	f7ff fe9b 	bl	d9d9a <_ZNSt14__shared_countILN9__gnu_cxx12_Lock_policyE0EED1Ev>
   da064:	e7a8      	b.n	d9fb8 <_ZN8particle18BleLocalDeviceImpl15onBleLinkEventsEPK18hal_ble_link_evt_tPv+0x1c>
                LOG(TRACE, "Connected by Central device.");
   da066:	4a37      	ldr	r2, [pc, #220]	; (da144 <_ZN8particle18BleLocalDeviceImpl15onBleLinkEventsEPK18hal_ble_link_evt_tPv+0x1a8>)
   da068:	9200      	str	r2, [sp, #0]
   da06a:	2300      	movs	r3, #0
   da06c:	4934      	ldr	r1, [pc, #208]	; (da140 <_ZN8particle18BleLocalDeviceImpl15onBleLinkEventsEPK18hal_ble_link_evt_tPv+0x1a4>)
   da06e:	9307      	str	r3, [sp, #28]
   da070:	aa06      	add	r2, sp, #24
   da072:	2001      	movs	r0, #1
   da074:	f7fe fe5c 	bl	d8d30 <log_message>
                if (impl->connectedCallback_) {
   da078:	6ae3      	ldr	r3, [r4, #44]	; 0x2c
   da07a:	2b00      	cmp	r3, #0
   da07c:	d0ef      	beq.n	da05e <_ZN8particle18BleLocalDeviceImpl15onBleLinkEventsEPK18hal_ble_link_evt_tPv+0xc2>
                    impl->connectedCallback_(peer);
   da07e:	a904      	add	r1, sp, #16
   da080:	f104 0024 	add.w	r0, r4, #36	; 0x24
   da084:	f7ff fef5 	bl	d9e72 <_ZNKSt8functionIFvRKN8particle13BlePeerDeviceEEEclES3_>
   da088:	e7e9      	b.n	da05e <_ZN8particle18BleLocalDeviceImpl15onBleLinkEventsEPK18hal_ble_link_evt_tPv+0xc2>
                BlePeerDevice* peer = impl->findPeerDevice(event->conn_handle);
   da08a:	89a9      	ldrh	r1, [r5, #12]
   da08c:	4620      	mov	r0, r4
   da08e:	f7ff fca1 	bl	d99d4 <_ZN8particle18BleLocalDeviceImpl14findPeerDeviceEt>
                if (peer) {
   da092:	4606      	mov	r6, r0
   da094:	2800      	cmp	r0, #0
   da096:	d08f      	beq.n	d9fb8 <_ZN8particle18BleLocalDeviceImpl15onBleLinkEventsEPK18hal_ble_link_evt_tPv+0x1c>
        return impl_.get();
   da098:	6805      	ldr	r5, [r0, #0]
    return data_ + size_;
   da09a:	e9d5 3106 	ldrd	r3, r1, [r5, #24]
        connHandle_ = BLE_INVALID_CONN_HANDLE;
   da09e:	f64f 72ff 	movw	r2, #65535	; 0xffff
   da0a2:	802a      	strh	r2, [r5, #0]
   da0a4:	eb03 01c1 	add.w	r1, r3, r1, lsl #3
        for (auto& characteristic : characteristics()) {
   da0a8:	4299      	cmp	r1, r3
   da0aa:	d003      	beq.n	da0b4 <_ZN8particle18BleLocalDeviceImpl15onBleLinkEventsEPK18hal_ble_link_evt_tPv+0x118>
        return impl_.get();
   da0ac:	f853 0b08 	ldr.w	r0, [r3], #8
            characteristic.impl()->connHandle() = BLE_INVALID_CONN_HANDLE;
   da0b0:	8042      	strh	r2, [r0, #2]
        for (auto& characteristic : characteristics()) {
   da0b2:	e7f9      	b.n	da0a8 <_ZN8particle18BleLocalDeviceImpl15onBleLinkEventsEPK18hal_ble_link_evt_tPv+0x10c>
    destruct(data_, data_ + size_);
   da0b4:	e9d5 7303 	ldrd	r7, r3, [r5, #12]
   da0b8:	eb07 08c3 	add.w	r8, r7, r3, lsl #3
        for (; p != end; ++p) {
   da0bc:	45b8      	cmp	r8, r7
   da0be:	d004      	beq.n	da0ca <_ZN8particle18BleLocalDeviceImpl15onBleLinkEventsEPK18hal_ble_link_evt_tPv+0x12e>
   da0c0:	1d38      	adds	r0, r7, #4
   da0c2:	f7ff fe6a 	bl	d9d9a <_ZNSt14__shared_countILN9__gnu_cxx12_Lock_policyE0EED1Ev>
   da0c6:	3708      	adds	r7, #8
   da0c8:	e7f8      	b.n	da0bc <_ZN8particle18BleLocalDeviceImpl15onBleLinkEventsEPK18hal_ble_link_evt_tPv+0x120>
    size_ = 0;
   da0ca:	2300      	movs	r3, #0
   da0cc:	612b      	str	r3, [r5, #16]
    destruct(data_, data_ + size_);
   da0ce:	e9d5 7306 	ldrd	r7, r3, [r5, #24]
   da0d2:	eb07 08c3 	add.w	r8, r7, r3, lsl #3
        for (; p != end; ++p) {
   da0d6:	45b8      	cmp	r8, r7
   da0d8:	d004      	beq.n	da0e4 <_ZN8particle18BleLocalDeviceImpl15onBleLinkEventsEPK18hal_ble_link_evt_tPv+0x148>
   da0da:	1d38      	adds	r0, r7, #4
   da0dc:	f7ff fe5d 	bl	d9d9a <_ZNSt14__shared_countILN9__gnu_cxx12_Lock_policyE0EED1Ev>
   da0e0:	3708      	adds	r7, #8
   da0e2:	e7f8      	b.n	da0d6 <_ZN8particle18BleLocalDeviceImpl15onBleLinkEventsEPK18hal_ble_link_evt_tPv+0x13a>
    size_ = 0;
   da0e4:	2300      	movs	r3, #0
   da0e6:	61eb      	str	r3, [r5, #28]
        servicesDiscovered_ = false;
   da0e8:	72ab      	strb	r3, [r5, #10]
                    if (impl->disconnectedCallback_) {
   da0ea:	6be3      	ldr	r3, [r4, #60]	; 0x3c
   da0ec:	b123      	cbz	r3, da0f8 <_ZN8particle18BleLocalDeviceImpl15onBleLinkEventsEPK18hal_ble_link_evt_tPv+0x15c>
                        impl->disconnectedCallback_(*peer);
   da0ee:	4631      	mov	r1, r6
   da0f0:	f104 0034 	add.w	r0, r4, #52	; 0x34
   da0f4:	f7ff febd 	bl	d9e72 <_ZNKSt8functionIFvRKN8particle13BlePeerDeviceEEEclES3_>
                    LOG(TRACE, "Disconnected by remote device.");
   da0f8:	2300      	movs	r3, #0
   da0fa:	2220      	movs	r2, #32
   da0fc:	e9cd 2306 	strd	r2, r3, [sp, #24]
   da100:	4a11      	ldr	r2, [pc, #68]	; (da148 <_ZN8particle18BleLocalDeviceImpl15onBleLinkEventsEPK18hal_ble_link_evt_tPv+0x1ac>)
   da102:	9200      	str	r2, [sp, #0]
   da104:	490e      	ldr	r1, [pc, #56]	; (da140 <_ZN8particle18BleLocalDeviceImpl15onBleLinkEventsEPK18hal_ble_link_evt_tPv+0x1a4>)
   da106:	aa06      	add	r2, sp, #24
   da108:	2001      	movs	r0, #1
   da10a:	f7fe fe11 	bl	d8d30 <log_message>
                    impl->peers_.removeOne(*peer);
   da10e:	4631      	mov	r1, r6
   da110:	f104 0018 	add.w	r0, r4, #24
   da114:	f7ff fee0 	bl	d9ed8 <_ZN5spark6VectorIN8particle13BlePeerDeviceENS_16DefaultAllocatorEE9removeOneERKS2_>
   da118:	e74e      	b.n	d9fb8 <_ZN8particle18BleLocalDeviceImpl15onBleLinkEventsEPK18hal_ble_link_evt_tPv+0x1c>
                        } else if (event->type == BLE_EVT_PAIRING_STATUS_UPDATED) {
   da11a:	2e0f      	cmp	r6, #15
   da11c:	f47f af6f 	bne.w	d9ffe <_ZN8particle18BleLocalDeviceImpl15onBleLinkEventsEPK18hal_ble_link_evt_tPv+0x62>
                            pairingEvent.payload.status.status = event->params.pairing_status.status;
   da120:	686b      	ldr	r3, [r5, #4]
   da122:	9309      	str	r3, [sp, #36]	; 0x24
                            pairingEvent.payload.status.bonded = event->params.pairing_status.bonded;
   da124:	7a2b      	ldrb	r3, [r5, #8]
   da126:	f003 0201 	and.w	r2, r3, #1
                            pairingEvent.payload.status.lesc = event->params.pairing_status.lesc;
   da12a:	f3c3 0340 	ubfx	r3, r3, #1, #1
   da12e:	f88d 3029 	strb.w	r3, [sp, #41]	; 0x29
                            pairingEvent.payload.status.bonded = event->params.pairing_status.bonded;
   da132:	f88d 2028 	strb.w	r2, [sp, #40]	; 0x28
                            pairingEvent.payloadLen = sizeof(BlePairingStatus);
   da136:	2308      	movs	r3, #8
   da138:	e760      	b.n	d9ffc <_ZN8particle18BleLocalDeviceImpl15onBleLinkEventsEPK18hal_ble_link_evt_tPv+0x60>
   da13a:	bf00      	nop
   da13c:	000de9af 	.word	0x000de9af
   da140:	000de970 	.word	0x000de970
   da144:	000de9d5 	.word	0x000de9d5
   da148:	000de9f2 	.word	0x000de9f2

000da14c <_ZNSt12__shared_ptrIN8particle21BleCharacteristicImplELN9__gnu_cxx12_Lock_policyE0EEaSEOS4_>:
      operator=(__shared_ptr&& __r) noexcept
   da14c:	b513      	push	{r0, r1, r4, lr}
	__r._M_pi = _M_pi;
   da14e:	2300      	movs	r3, #0
      operator=(__shared_ptr&& __r) noexcept
   da150:	4604      	mov	r4, r0
	_Sp_counted_base<_Lp>* __tmp = __r._M_pi;
   da152:	e9d1 0200 	ldrd	r0, r2, [r1]
	__r._M_ptr = 0;
   da156:	e9c1 3300 	strd	r3, r3, [r1]
    {
      // concept requirements
      __glibcxx_function_requires(_SGIAssignableConcept<_Tp>)

      _Tp __tmp = _GLIBCXX_MOVE(__a);
      __a = _GLIBCXX_MOVE(__b);
   da15a:	6823      	ldr	r3, [r4, #0]
   da15c:	9300      	str	r3, [sp, #0]
      __b = _GLIBCXX_MOVE(__tmp);
   da15e:	6020      	str	r0, [r4, #0]
	_Sp_counted_base<_Lp>* __tmp = __r._M_pi;
   da160:	6863      	ldr	r3, [r4, #4]
	__r._M_pi = _M_pi;
   da162:	6062      	str	r2, [r4, #4]
      ~__shared_ptr() = default;
   da164:	a801      	add	r0, sp, #4
	_M_pi = __tmp;
   da166:	9301      	str	r3, [sp, #4]
      ~__shared_ptr() = default;
   da168:	f7ff fe17 	bl	d9d9a <_ZNSt14__shared_countILN9__gnu_cxx12_Lock_policyE0EED1Ev>
      }
   da16c:	4620      	mov	r0, r4
   da16e:	b002      	add	sp, #8
   da170:	bd10      	pop	{r4, pc}

000da172 <_ZSt4swapISt9_Any_dataENSt9enable_ifIXsrSt6__and_IJSt6__not_ISt15__is_tuple_likeIT_EESt21is_move_constructibleIS5_ESt18is_move_assignableIS5_EEE5valueEvE4typeERS5_SF_>:
    swap(_Tp& __a, _Tp& __b)
   da172:	b513      	push	{r0, r1, r4, lr}
   da174:	460b      	mov	r3, r1
   da176:	4602      	mov	r2, r0
      _Tp __tmp = _GLIBCXX_MOVE(__a);
   da178:	e9d0 0100 	ldrd	r0, r1, [r0]
   da17c:	466c      	mov	r4, sp
   da17e:	e884 0003 	stmia.w	r4, {r0, r1}
      __a = _GLIBCXX_MOVE(__b);
   da182:	e893 0003 	ldmia.w	r3, {r0, r1}
   da186:	e882 0003 	stmia.w	r2, {r0, r1}
      __b = _GLIBCXX_MOVE(__tmp);
   da18a:	e894 0003 	ldmia.w	r4, {r0, r1}
   da18e:	e883 0003 	stmia.w	r3, {r0, r1}
    }
   da192:	b002      	add	sp, #8
   da194:	bd10      	pop	{r4, pc}

000da196 <_ZNSt8functionIFvPKhjRKN8particle13BlePeerDeviceEEE4swapERS7_>:
      void swap(function& __x) noexcept
   da196:	b538      	push	{r3, r4, r5, lr}
   da198:	4605      	mov	r5, r0
   da19a:	460c      	mov	r4, r1
	std::swap(_M_functor, __x._M_functor);
   da19c:	f7ff ffe9 	bl	da172 <_ZSt4swapISt9_Any_dataENSt9enable_ifIXsrSt6__and_IJSt6__not_ISt15__is_tuple_likeIT_EESt21is_move_constructibleIS5_ESt18is_move_assignableIS5_EEE5valueEvE4typeERS5_SF_>
      _Tp __tmp = _GLIBCXX_MOVE(__a);
   da1a0:	68ab      	ldr	r3, [r5, #8]
      __a = _GLIBCXX_MOVE(__b);
   da1a2:	68a2      	ldr	r2, [r4, #8]
   da1a4:	60aa      	str	r2, [r5, #8]
      __b = _GLIBCXX_MOVE(__tmp);
   da1a6:	60a3      	str	r3, [r4, #8]
      _Tp __tmp = _GLIBCXX_MOVE(__a);
   da1a8:	68eb      	ldr	r3, [r5, #12]
      __a = _GLIBCXX_MOVE(__b);
   da1aa:	68e2      	ldr	r2, [r4, #12]
   da1ac:	60ea      	str	r2, [r5, #12]
      __b = _GLIBCXX_MOVE(__tmp);
   da1ae:	60e3      	str	r3, [r4, #12]
      }
   da1b0:	bd38      	pop	{r3, r4, r5, pc}

000da1b2 <_ZNSt8functionIFvPKhjRKN8particle13BlePeerDeviceEEEaSEOS7_>:
      operator=(function&& __x) noexcept
   da1b2:	b51f      	push	{r0, r1, r2, r3, r4, lr}
    _Function_base() : _M_manager(nullptr) { }
   da1b4:	2300      	movs	r3, #0
      operator=(function&& __x) noexcept
   da1b6:	4604      	mov	r4, r0
   da1b8:	4608      	mov	r0, r1
	__x.swap(*this);
   da1ba:	4669      	mov	r1, sp
    _Function_base() : _M_manager(nullptr) { }
   da1bc:	9302      	str	r3, [sp, #8]
	__x.swap(*this);
   da1be:	f7ff ffea 	bl	da196 <_ZNSt8functionIFvPKhjRKN8particle13BlePeerDeviceEEE4swapERS7_>
	function(std::move(__x)).swap(*this);
   da1c2:	4621      	mov	r1, r4
   da1c4:	4668      	mov	r0, sp
   da1c6:	f7ff ffe6 	bl	da196 <_ZNSt8functionIFvPKhjRKN8particle13BlePeerDeviceEEE4swapERS7_>
    class function<_Res(_ArgTypes...)>
   da1ca:	4668      	mov	r0, sp
   da1cc:	f7ff fa19 	bl	d9602 <_ZNSt14_Function_baseD1Ev>
      }
   da1d0:	4620      	mov	r0, r4
   da1d2:	b004      	add	sp, #16
   da1d4:	bd10      	pop	{r4, pc}

000da1d6 <_ZN8particle21BleCharacteristicImplC1ENS_9EnumFlagsINS_25BleCharacteristicPropertyEvEEPKcPFvPKhjRKNS_13BlePeerDeviceEPvESB_>:
    BleCharacteristicImpl(EnumFlags<BleCharacteristicProperty> properties, const char* desc, BleOnDataReceivedCallback callback, void* context)
   da1d6:	b570      	push	{r4, r5, r6, lr}
   da1d8:	460e      	mov	r6, r1
   da1da:	b088      	sub	sp, #32
   da1dc:	4604      	mov	r4, r0
   da1de:	9201      	str	r2, [sp, #4]
   da1e0:	461d      	mov	r5, r3
            : BleCharacteristicImpl() {
   da1e2:	f7ff fbd7 	bl	d9994 <_ZN8particle21BleCharacteristicImplC1Ev>
        properties_ = properties;
   da1e6:	7833      	ldrb	r3, [r6, #0]
        description_ = desc;
   da1e8:	9901      	ldr	r1, [sp, #4]
        properties_ = properties;
   da1ea:	7123      	strb	r3, [r4, #4]
        description_ = desc;
   da1ec:	f104 003c 	add.w	r0, r4, #60	; 0x3c
   da1f0:	f7ff f890 	bl	d9314 <_ZN6StringaSEPKc>
        dataReceivedCallback_ = callback ? std::bind(callback, _1, _2, _3, context) : (BleOnDataReceivedStdFunction)nullptr;
   da1f4:	f104 064c 	add.w	r6, r4, #76	; 0x4c
   da1f8:	b185      	cbz	r5, da21c <_ZN8particle21BleCharacteristicImplC1ENS_9EnumFlagsINS_25BleCharacteristicPropertyEvEEPKcPFvPKhjRKNS_13BlePeerDeviceEPvESB_+0x46>
   da1fa:	9b0c      	ldr	r3, [sp, #48]	; 0x30
	: _M_f(__f), _M_bound_args(std::forward<_Args>(__args)...)
   da1fc:	9502      	str	r5, [sp, #8]
   da1fe:	a902      	add	r1, sp, #8
   da200:	a804      	add	r0, sp, #16
   da202:	9303      	str	r3, [sp, #12]
   da204:	f7ff fd88 	bl	d9d18 <_ZNSt8functionIFvPKhjRKN8particle13BlePeerDeviceEEEC1ISt5_BindIFPFvS1_jS5_PvESt12_PlaceholderILi1EESD_ILi2EESD_ILi3EESA_EEvvEET_>
   da208:	a904      	add	r1, sp, #16
   da20a:	4630      	mov	r0, r6
   da20c:	f7ff ffd1 	bl	da1b2 <_ZNSt8functionIFvPKhjRKN8particle13BlePeerDeviceEEEaSEOS7_>
    class function<_Res(_ArgTypes...)>
   da210:	a804      	add	r0, sp, #16
   da212:	f7ff f9f6 	bl	d9602 <_ZNSt14_Function_baseD1Ev>
    }
   da216:	4620      	mov	r0, r4
   da218:	b008      	add	sp, #32
   da21a:	bd70      	pop	{r4, r5, r6, pc}
    _Function_base() : _M_manager(nullptr) { }
   da21c:	9506      	str	r5, [sp, #24]
      : _Function_base() { }
   da21e:	e7f3      	b.n	da208 <_ZN8particle21BleCharacteristicImplC1ENS_9EnumFlagsINS_25BleCharacteristicPropertyEvEEPKcPFvPKhjRKNS_13BlePeerDeviceEPvESB_+0x32>

000da220 <_ZN8particle17BleCharacteristic9constructEPKcNS_9EnumFlagsINS_25BleCharacteristicPropertyEvEERNS_7BleUuidES7_PFvPKhjRKNS_13BlePeerDeviceEPvESD_>:
void BleCharacteristic::construct(const char* desc, EnumFlags<BleCharacteristicProperty> properties, BleUuid& charUuid, BleUuid& svcUuid, BleOnDataReceivedCallback callback, void* context) {
   da220:	e92d 47f0 	stmdb	sp!, {r4, r5, r6, r7, r8, r9, sl, lr}
   da224:	b086      	sub	sp, #24
   da226:	4607      	mov	r7, r0
   da228:	461d      	mov	r5, r3
   da22a:	2068      	movs	r0, #104	; 0x68
	: _M_ptr(), _M_refcount(_M_ptr, __tag, std::forward<_Args>(__args)...)
   da22c:	2300      	movs	r3, #0
   da22e:	4689      	mov	r9, r1
   da230:	4692      	mov	sl, r2
   da232:	9304      	str	r3, [sp, #16]
   da234:	f7f9 ff2f 	bl	d4096 <_Znwj>
	  auto __pi = ::new (__mem)
   da238:	1e06      	subs	r6, r0, #0
   da23a:	f106 080c 	add.w	r8, r6, #12
   da23e:	d01d      	beq.n	da27c <_ZN8particle17BleCharacteristic9constructEPKcNS_9EnumFlagsINS_25BleCharacteristicPropertyEvEERNS_7BleUuidES7_PFvPKhjRKNS_13BlePeerDeviceEPvESD_+0x5c>
      : _M_use_count(1), _M_weak_count(1) { }
   da240:	2301      	movs	r3, #1
	: _M_impl(__a)
   da242:	4634      	mov	r4, r6
      : _M_use_count(1), _M_weak_count(1) { }
   da244:	e9c6 3301 	strd	r3, r3, [r6, #4]
	: _M_impl(__a)
   da248:	4b15      	ldr	r3, [pc, #84]	; (da2a0 <_ZN8particle17BleCharacteristic9constructEPKcNS_9EnumFlagsINS_25BleCharacteristicPropertyEvEERNS_7BleUuidES7_PFvPKhjRKNS_13BlePeerDeviceEPvESD_+0x80>)
   da24a:	f844 3b20 	str.w	r3, [r4], #32
      */
      template<typename _Up, typename... _Args>
	static void
	construct(allocator_type& __a, _Up* __p, _Args&&... __args)
	noexcept(noexcept(__a.construct(__p, std::forward<_Args>(__args)...)))
	{ __a.construct(__p, std::forward<_Args>(__args)...); }
   da24e:	f89a 3000 	ldrb.w	r3, [sl]
    value_ = flags.value_;
   da252:	f88d 300c 	strb.w	r3, [sp, #12]
            : BleCharacteristicImpl(properties, desc, callback, context) {
   da256:	9b10      	ldr	r3, [sp, #64]	; 0x40
   da258:	9300      	str	r3, [sp, #0]
   da25a:	464a      	mov	r2, r9
   da25c:	9b0f      	ldr	r3, [sp, #60]	; 0x3c
   da25e:	a903      	add	r1, sp, #12
   da260:	4640      	mov	r0, r8
   da262:	f7ff ffb8 	bl	da1d6 <_ZN8particle21BleCharacteristicImplC1ENS_9EnumFlagsINS_25BleCharacteristicPropertyEvEEPKcPFvPKhjRKNS_13BlePeerDeviceEPvESB_>
        charUuid_ = charUuid;
   da266:	cd0f      	ldmia	r5!, {r0, r1, r2, r3}
   da268:	c40f      	stmia	r4!, {r0, r1, r2, r3}
   da26a:	682b      	ldr	r3, [r5, #0]
        svcUuid_ = svcUuid;
   da26c:	9d0e      	ldr	r5, [sp, #56]	; 0x38
        charUuid_ = charUuid;
   da26e:	6023      	str	r3, [r4, #0]
        svcUuid_ = svcUuid;
   da270:	cd0f      	ldmia	r5!, {r0, r1, r2, r3}
   da272:	f106 0434 	add.w	r4, r6, #52	; 0x34
   da276:	c40f      	stmia	r4!, {r0, r1, r2, r3}
   da278:	682b      	ldr	r3, [r5, #0]
   da27a:	6023      	str	r3, [r4, #0]
#endif

      shared_ptr&
      operator=(shared_ptr&& __r) noexcept
      {
	this->__shared_ptr<_Tp>::operator=(std::move(__r));
   da27c:	a904      	add	r1, sp, #16
   da27e:	4638      	mov	r0, r7
	  __p = __pi->_M_ptr();
   da280:	e9cd 8604 	strd	r8, r6, [sp, #16]
   da284:	f7ff ff62 	bl	da14c <_ZNSt12__shared_ptrIN8particle21BleCharacteristicImplELN9__gnu_cxx12_Lock_policyE0EEaSEOS4_>
      ~__shared_ptr() = default;
   da288:	a805      	add	r0, sp, #20
   da28a:	f7ff fd86 	bl	d9d9a <_ZNSt14__shared_countILN9__gnu_cxx12_Lock_policyE0EED1Ev>
    if (!impl()) {
   da28e:	6839      	ldr	r1, [r7, #0]
   da290:	b919      	cbnz	r1, da29a <_ZN8particle17BleCharacteristic9constructEPKcNS_9EnumFlagsINS_25BleCharacteristicPropertyEvEERNS_7BleUuidES7_PFvPKhjRKNS_13BlePeerDeviceEPvESD_+0x7a>
        SPARK_ASSERT(false);
   da292:	4a04      	ldr	r2, [pc, #16]	; (da2a4 <_ZN8particle17BleCharacteristic9constructEPKcNS_9EnumFlagsINS_25BleCharacteristicPropertyEvEERNS_7BleUuidES7_PFvPKhjRKNS_13BlePeerDeviceEPvESD_+0x84>)
   da294:	200a      	movs	r0, #10
   da296:	f7fe fd43 	bl	d8d20 <panic_>
}
   da29a:	b006      	add	sp, #24
   da29c:	e8bd 87f0 	ldmia.w	sp!, {r4, r5, r6, r7, r8, r9, sl, pc}
   da2a0:	000dea6c 	.word	0x000dea6c
   da2a4:	000d88b5 	.word	0x000d88b5

000da2a8 <_ZN8particle17BleCharacteristic14onDataReceivedEPFvPKhjRKNS_13BlePeerDeviceEPvES6_>:
void BleCharacteristic::onDataReceived(BleOnDataReceivedCallback callback, void* context) {
   da2a8:	b510      	push	{r4, lr}
        dataReceivedCallback_ = callback ? std::bind(callback, _1, _2, _3, context) : (BleOnDataReceivedStdFunction)nullptr;
   da2aa:	6804      	ldr	r4, [r0, #0]
void BleCharacteristic::onDataReceived(BleOnDataReceivedCallback callback, void* context) {
   da2ac:	b086      	sub	sp, #24
        dataReceivedCallback_ = callback ? std::bind(callback, _1, _2, _3, context) : (BleOnDataReceivedStdFunction)nullptr;
   da2ae:	344c      	adds	r4, #76	; 0x4c
   da2b0:	b171      	cbz	r1, da2d0 <_ZN8particle17BleCharacteristic14onDataReceivedEPFvPKhjRKNS_13BlePeerDeviceEPvES6_+0x28>
   da2b2:	e9cd 1200 	strd	r1, r2, [sp]
   da2b6:	a802      	add	r0, sp, #8
   da2b8:	4669      	mov	r1, sp
   da2ba:	f7ff fd2d 	bl	d9d18 <_ZNSt8functionIFvPKhjRKN8particle13BlePeerDeviceEEEC1ISt5_BindIFPFvS1_jS5_PvESt12_PlaceholderILi1EESD_ILi2EESD_ILi3EESA_EEvvEET_>
   da2be:	a902      	add	r1, sp, #8
   da2c0:	4620      	mov	r0, r4
   da2c2:	f7ff ff76 	bl	da1b2 <_ZNSt8functionIFvPKhjRKN8particle13BlePeerDeviceEEEaSEOS7_>
    class function<_Res(_ArgTypes...)>
   da2c6:	a802      	add	r0, sp, #8
   da2c8:	f7ff f99b 	bl	d9602 <_ZNSt14_Function_baseD1Ev>
}
   da2cc:	b006      	add	sp, #24
   da2ce:	bd10      	pop	{r4, pc}
    _Function_base() : _M_manager(nullptr) { }
   da2d0:	9104      	str	r1, [sp, #16]
      : _Function_base() { }
   da2d2:	e7f4      	b.n	da2be <_ZN8particle17BleCharacteristic14onDataReceivedEPFvPKhjRKNS_13BlePeerDeviceEPvES6_+0x16>

000da2d4 <_ZN5spark6VectorIN8particle10BleServiceENS_16DefaultAllocatorEE4moveIS2_Li0EEEvPS2_S6_S6_>:
        if (dest > p && dest < end) {
   da2d4:	4288      	cmp	r0, r1
    static void move(T* dest, T* p, T* end) {
   da2d6:	b5f8      	push	{r3, r4, r5, r6, r7, lr}
   da2d8:	4604      	mov	r4, r0
   da2da:	460d      	mov	r5, r1
   da2dc:	4616      	mov	r6, r2
        if (dest > p && dest < end) {
   da2de:	d914      	bls.n	da30a <_ZN5spark6VectorIN8particle10BleServiceENS_16DefaultAllocatorEE4moveIS2_Li0EEEvPS2_S6_S6_+0x36>
   da2e0:	4290      	cmp	r0, r2
   da2e2:	d213      	bcs.n	da30c <_ZN5spark6VectorIN8particle10BleServiceENS_16DefaultAllocatorEE4moveIS2_Li0EEEvPS2_S6_S6_+0x38>
            --end;
   da2e4:	f1a2 0608 	sub.w	r6, r2, #8
            dest += end - p - 1;
   da2e8:	1a75      	subs	r5, r6, r1
   da2ea:	f1a1 0708 	sub.w	r7, r1, #8
   da2ee:	442c      	add	r4, r5
            for (; end != p; --end, --dest) {
   da2f0:	42b7      	cmp	r7, r6
   da2f2:	d018      	beq.n	da326 <_ZN5spark6VectorIN8particle10BleServiceENS_16DefaultAllocatorEE4moveIS2_Li0EEEvPS2_S6_S6_+0x52>
                new(dest) T(std::move(*end));
   da2f4:	b11c      	cbz	r4, da2fe <_ZN5spark6VectorIN8particle10BleServiceENS_16DefaultAllocatorEE4moveIS2_Li0EEEvPS2_S6_S6_+0x2a>
      shared_ptr(const shared_ptr&) noexcept = default;
   da2f6:	4631      	mov	r1, r6
   da2f8:	4620      	mov	r0, r4
   da2fa:	f7ff fd3a 	bl	d9d72 <_ZNSt12__shared_ptrIN8particle14BleServiceImplELN9__gnu_cxx12_Lock_policyE0EEC1ERKS4_>
   da2fe:	1d30      	adds	r0, r6, #4
   da300:	f7ff fd4b 	bl	d9d9a <_ZNSt14__shared_countILN9__gnu_cxx12_Lock_policyE0EED1Ev>
            for (; end != p; --end, --dest) {
   da304:	3e08      	subs	r6, #8
   da306:	3c08      	subs	r4, #8
   da308:	e7f2      	b.n	da2f0 <_ZN5spark6VectorIN8particle10BleServiceENS_16DefaultAllocatorEE4moveIS2_Li0EEEvPS2_S6_S6_+0x1c>
        } else if (dest != p) {
   da30a:	d00c      	beq.n	da326 <_ZN5spark6VectorIN8particle10BleServiceENS_16DefaultAllocatorEE4moveIS2_Li0EEEvPS2_S6_S6_+0x52>
            for (; p != end; ++p, ++dest) {
   da30c:	42b5      	cmp	r5, r6
   da30e:	d00a      	beq.n	da326 <_ZN5spark6VectorIN8particle10BleServiceENS_16DefaultAllocatorEE4moveIS2_Li0EEEvPS2_S6_S6_+0x52>
                new(dest) T(std::move(*p));
   da310:	b11c      	cbz	r4, da31a <_ZN5spark6VectorIN8particle10BleServiceENS_16DefaultAllocatorEE4moveIS2_Li0EEEvPS2_S6_S6_+0x46>
   da312:	4629      	mov	r1, r5
   da314:	4620      	mov	r0, r4
   da316:	f7ff fd2c 	bl	d9d72 <_ZNSt12__shared_ptrIN8particle14BleServiceImplELN9__gnu_cxx12_Lock_policyE0EEC1ERKS4_>
   da31a:	1d28      	adds	r0, r5, #4
   da31c:	f7ff fd3d 	bl	d9d9a <_ZNSt14__shared_countILN9__gnu_cxx12_Lock_policyE0EED1Ev>
            for (; p != end; ++p, ++dest) {
   da320:	3508      	adds	r5, #8
   da322:	3408      	adds	r4, #8
   da324:	e7f2      	b.n	da30c <_ZN5spark6VectorIN8particle10BleServiceENS_16DefaultAllocatorEE4moveIS2_Li0EEEvPS2_S6_S6_+0x38>
    }
   da326:	bdf8      	pop	{r3, r4, r5, r6, r7, pc}

000da328 <_ZN5spark6VectorIN8particle10BleServiceENS_16DefaultAllocatorEE7reallocIS2_Li0EEEbi>:
    bool realloc(int n) {
   da328:	b570      	push	{r4, r5, r6, lr}
        if (n > 0) {
   da32a:	1e0e      	subs	r6, r1, #0
    bool realloc(int n) {
   da32c:	4605      	mov	r5, r0
        if (n > 0) {
   da32e:	dd11      	ble.n	da354 <_ZN5spark6VectorIN8particle10BleServiceENS_16DefaultAllocatorEE7reallocIS2_Li0EEEbi+0x2c>
    return ::malloc(size);
   da330:	00f0      	lsls	r0, r6, #3
   da332:	f7fe fdf3 	bl	d8f1c <malloc>
            if (!d) {
   da336:	4604      	mov	r4, r0
   da338:	b158      	cbz	r0, da352 <_ZN5spark6VectorIN8particle10BleServiceENS_16DefaultAllocatorEE7reallocIS2_Li0EEEbi+0x2a>
            move(d, data_, data_ + size_);
   da33a:	e9d5 1200 	ldrd	r1, r2, [r5]
   da33e:	eb01 02c2 	add.w	r2, r1, r2, lsl #3
   da342:	f7ff ffc7 	bl	da2d4 <_ZN5spark6VectorIN8particle10BleServiceENS_16DefaultAllocatorEE4moveIS2_Li0EEEvPS2_S6_S6_>
    ::free(ptr);
   da346:	6828      	ldr	r0, [r5, #0]
   da348:	f7fe fdf0 	bl	d8f2c <free>
        data_ = d;
   da34c:	602c      	str	r4, [r5, #0]
        capacity_ = n;
   da34e:	60ae      	str	r6, [r5, #8]
        return true;
   da350:	2001      	movs	r0, #1
    }
   da352:	bd70      	pop	{r4, r5, r6, pc}
        T* d = nullptr;
   da354:	2400      	movs	r4, #0
   da356:	e7f6      	b.n	da346 <_ZN5spark6VectorIN8particle10BleServiceENS_16DefaultAllocatorEE7reallocIS2_Li0EEEbi+0x1e>

000da358 <_ZN5spark6VectorIN8particle10BleServiceENS_16DefaultAllocatorEE6appendES2_>:
inline bool spark::Vector<T, AllocatorT>::append(T value) {
   da358:	b573      	push	{r0, r1, r4, r5, r6, lr}
   da35a:	4604      	mov	r4, r0
    return insert(size_, std::move(value));
   da35c:	6845      	ldr	r5, [r0, #4]
   da35e:	4668      	mov	r0, sp
   da360:	f7ff fd07 	bl	d9d72 <_ZNSt12__shared_ptrIN8particle14BleServiceImplELN9__gnu_cxx12_Lock_policyE0EEC1ERKS4_>
    if (size_ + 1 > capacity_ && !realloc(size_ + 1)) {
   da364:	e9d4 1301 	ldrd	r1, r3, [r4, #4]
   da368:	4299      	cmp	r1, r3
   da36a:	da10      	bge.n	da38e <_ZN5spark6VectorIN8particle10BleServiceENS_16DefaultAllocatorEE6appendES2_+0x36>
    T* const p = data_ + i;
   da36c:	6823      	ldr	r3, [r4, #0]
    move(p + 1, p, data_ + size_);
   da36e:	6862      	ldr	r2, [r4, #4]
    T* const p = data_ + i;
   da370:	eb03 05c5 	add.w	r5, r3, r5, lsl #3
    move(p + 1, p, data_ + size_);
   da374:	eb03 02c2 	add.w	r2, r3, r2, lsl #3
   da378:	4629      	mov	r1, r5
   da37a:	f105 0008 	add.w	r0, r5, #8
   da37e:	f7ff ffa9 	bl	da2d4 <_ZN5spark6VectorIN8particle10BleServiceENS_16DefaultAllocatorEE4moveIS2_Li0EEEvPS2_S6_S6_>
    new(p) T(std::move(value));
   da382:	b98d      	cbnz	r5, da3a8 <_ZN5spark6VectorIN8particle10BleServiceENS_16DefaultAllocatorEE6appendES2_+0x50>
    ++size_;
   da384:	6863      	ldr	r3, [r4, #4]
   da386:	3301      	adds	r3, #1
   da388:	6063      	str	r3, [r4, #4]
    return true;
   da38a:	2601      	movs	r6, #1
   da38c:	e006      	b.n	da39c <_ZN5spark6VectorIN8particle10BleServiceENS_16DefaultAllocatorEE6appendES2_+0x44>
    if (size_ + 1 > capacity_ && !realloc(size_ + 1)) {
   da38e:	3101      	adds	r1, #1
   da390:	4620      	mov	r0, r4
   da392:	f7ff ffc9 	bl	da328 <_ZN5spark6VectorIN8particle10BleServiceENS_16DefaultAllocatorEE7reallocIS2_Li0EEEbi>
   da396:	4606      	mov	r6, r0
   da398:	2800      	cmp	r0, #0
   da39a:	d1e7      	bne.n	da36c <_ZN5spark6VectorIN8particle10BleServiceENS_16DefaultAllocatorEE6appendES2_+0x14>
   da39c:	a801      	add	r0, sp, #4
   da39e:	f7ff fcfc 	bl	d9d9a <_ZNSt14__shared_countILN9__gnu_cxx12_Lock_policyE0EED1Ev>
}
   da3a2:	4630      	mov	r0, r6
   da3a4:	b002      	add	sp, #8
   da3a6:	bd70      	pop	{r4, r5, r6, pc}
   da3a8:	4669      	mov	r1, sp
   da3aa:	4628      	mov	r0, r5
   da3ac:	f7ff fce1 	bl	d9d72 <_ZNSt12__shared_ptrIN8particle14BleServiceImplELN9__gnu_cxx12_Lock_policyE0EEC1ERKS4_>
   da3b0:	e7e8      	b.n	da384 <_ZN5spark6VectorIN8particle10BleServiceENS_16DefaultAllocatorEE6appendES2_+0x2c>

000da3b2 <_ZN5spark6VectorIN8particle17BleCharacteristicENS_16DefaultAllocatorEE4moveIS2_Li0EEEvPS2_S6_S6_>:
        if (dest > p && dest < end) {
   da3b2:	4288      	cmp	r0, r1
    static void move(T* dest, T* p, T* end) {
   da3b4:	b5f8      	push	{r3, r4, r5, r6, r7, lr}
   da3b6:	4604      	mov	r4, r0
   da3b8:	460d      	mov	r5, r1
   da3ba:	4616      	mov	r6, r2
        if (dest > p && dest < end) {
   da3bc:	d914      	bls.n	da3e8 <_ZN5spark6VectorIN8particle17BleCharacteristicENS_16DefaultAllocatorEE4moveIS2_Li0EEEvPS2_S6_S6_+0x36>
   da3be:	4290      	cmp	r0, r2
   da3c0:	d213      	bcs.n	da3ea <_ZN5spark6VectorIN8particle17BleCharacteristicENS_16DefaultAllocatorEE4moveIS2_Li0EEEvPS2_S6_S6_+0x38>
            --end;
   da3c2:	f1a2 0608 	sub.w	r6, r2, #8
            dest += end - p - 1;
   da3c6:	1a75      	subs	r5, r6, r1
   da3c8:	f1a1 0708 	sub.w	r7, r1, #8
   da3cc:	442c      	add	r4, r5
            for (; end != p; --end, --dest) {
   da3ce:	42b7      	cmp	r7, r6
   da3d0:	d018      	beq.n	da404 <_ZN5spark6VectorIN8particle17BleCharacteristicENS_16DefaultAllocatorEE4moveIS2_Li0EEEvPS2_S6_S6_+0x52>
                new(dest) T(std::move(*end));
   da3d2:	b11c      	cbz	r4, da3dc <_ZN5spark6VectorIN8particle17BleCharacteristicENS_16DefaultAllocatorEE4moveIS2_Li0EEEvPS2_S6_S6_+0x2a>
   da3d4:	4631      	mov	r1, r6
   da3d6:	4620      	mov	r0, r4
   da3d8:	f7ff fcbd 	bl	d9d56 <_ZN8particle17BleCharacteristicC1ERKS0_>
   da3dc:	1d30      	adds	r0, r6, #4
   da3de:	f7ff fcdc 	bl	d9d9a <_ZNSt14__shared_countILN9__gnu_cxx12_Lock_policyE0EED1Ev>
            for (; end != p; --end, --dest) {
   da3e2:	3e08      	subs	r6, #8
   da3e4:	3c08      	subs	r4, #8
   da3e6:	e7f2      	b.n	da3ce <_ZN5spark6VectorIN8particle17BleCharacteristicENS_16DefaultAllocatorEE4moveIS2_Li0EEEvPS2_S6_S6_+0x1c>
        } else if (dest != p) {
   da3e8:	d00c      	beq.n	da404 <_ZN5spark6VectorIN8particle17BleCharacteristicENS_16DefaultAllocatorEE4moveIS2_Li0EEEvPS2_S6_S6_+0x52>
            for (; p != end; ++p, ++dest) {
   da3ea:	42b5      	cmp	r5, r6
   da3ec:	d00a      	beq.n	da404 <_ZN5spark6VectorIN8particle17BleCharacteristicENS_16DefaultAllocatorEE4moveIS2_Li0EEEvPS2_S6_S6_+0x52>
                new(dest) T(std::move(*p));
   da3ee:	b11c      	cbz	r4, da3f8 <_ZN5spark6VectorIN8particle17BleCharacteristicENS_16DefaultAllocatorEE4moveIS2_Li0EEEvPS2_S6_S6_+0x46>
   da3f0:	4629      	mov	r1, r5
   da3f2:	4620      	mov	r0, r4
   da3f4:	f7ff fcaf 	bl	d9d56 <_ZN8particle17BleCharacteristicC1ERKS0_>
   da3f8:	1d28      	adds	r0, r5, #4
   da3fa:	f7ff fcce 	bl	d9d9a <_ZNSt14__shared_countILN9__gnu_cxx12_Lock_policyE0EED1Ev>
            for (; p != end; ++p, ++dest) {
   da3fe:	3508      	adds	r5, #8
   da400:	3408      	adds	r4, #8
   da402:	e7f2      	b.n	da3ea <_ZN5spark6VectorIN8particle17BleCharacteristicENS_16DefaultAllocatorEE4moveIS2_Li0EEEvPS2_S6_S6_+0x38>
    }
   da404:	bdf8      	pop	{r3, r4, r5, r6, r7, pc}

000da406 <_ZN5spark6VectorIN8particle17BleCharacteristicENS_16DefaultAllocatorEE7reallocIS2_Li0EEEbi>:
    bool realloc(int n) {
   da406:	b570      	push	{r4, r5, r6, lr}
        if (n > 0) {
   da408:	1e0e      	subs	r6, r1, #0
    bool realloc(int n) {
   da40a:	4605      	mov	r5, r0
        if (n > 0) {
   da40c:	dd11      	ble.n	da432 <_ZN5spark6VectorIN8particle17BleCharacteristicENS_16DefaultAllocatorEE7reallocIS2_Li0EEEbi+0x2c>
    return ::malloc(size);
   da40e:	00f0      	lsls	r0, r6, #3
   da410:	f7fe fd84 	bl	d8f1c <malloc>
            if (!d) {
   da414:	4604      	mov	r4, r0
   da416:	b158      	cbz	r0, da430 <_ZN5spark6VectorIN8particle17BleCharacteristicENS_16DefaultAllocatorEE7reallocIS2_Li0EEEbi+0x2a>
            move(d, data_, data_ + size_);
   da418:	e9d5 1200 	ldrd	r1, r2, [r5]
   da41c:	eb01 02c2 	add.w	r2, r1, r2, lsl #3
   da420:	f7ff ffc7 	bl	da3b2 <_ZN5spark6VectorIN8particle17BleCharacteristicENS_16DefaultAllocatorEE4moveIS2_Li0EEEvPS2_S6_S6_>
    ::free(ptr);
   da424:	6828      	ldr	r0, [r5, #0]
   da426:	f7fe fd81 	bl	d8f2c <free>
        data_ = d;
   da42a:	602c      	str	r4, [r5, #0]
        capacity_ = n;
   da42c:	60ae      	str	r6, [r5, #8]
        return true;
   da42e:	2001      	movs	r0, #1
    }
   da430:	bd70      	pop	{r4, r5, r6, pc}
        T* d = nullptr;
   da432:	2400      	movs	r4, #0
   da434:	e7f6      	b.n	da424 <_ZN5spark6VectorIN8particle17BleCharacteristicENS_16DefaultAllocatorEE7reallocIS2_Li0EEEbi+0x1e>

000da436 <_ZN5spark6VectorIN8particle17BleCharacteristicENS_16DefaultAllocatorEE6appendES2_>:
inline bool spark::Vector<T, AllocatorT>::append(T value) {
   da436:	b573      	push	{r0, r1, r4, r5, r6, lr}
   da438:	4604      	mov	r4, r0
    return insert(size_, std::move(value));
   da43a:	6845      	ldr	r5, [r0, #4]
   da43c:	4668      	mov	r0, sp
   da43e:	f7ff fc8a 	bl	d9d56 <_ZN8particle17BleCharacteristicC1ERKS0_>
    if (size_ + 1 > capacity_ && !realloc(size_ + 1)) {
   da442:	e9d4 1301 	ldrd	r1, r3, [r4, #4]
   da446:	4299      	cmp	r1, r3
   da448:	da10      	bge.n	da46c <_ZN5spark6VectorIN8particle17BleCharacteristicENS_16DefaultAllocatorEE6appendES2_+0x36>
    T* const p = data_ + i;
   da44a:	6823      	ldr	r3, [r4, #0]
    move(p + 1, p, data_ + size_);
   da44c:	6862      	ldr	r2, [r4, #4]
    T* const p = data_ + i;
   da44e:	eb03 05c5 	add.w	r5, r3, r5, lsl #3
    move(p + 1, p, data_ + size_);
   da452:	eb03 02c2 	add.w	r2, r3, r2, lsl #3
   da456:	4629      	mov	r1, r5
   da458:	f105 0008 	add.w	r0, r5, #8
   da45c:	f7ff ffa9 	bl	da3b2 <_ZN5spark6VectorIN8particle17BleCharacteristicENS_16DefaultAllocatorEE4moveIS2_Li0EEEvPS2_S6_S6_>
    new(p) T(std::move(value));
   da460:	b98d      	cbnz	r5, da486 <_ZN5spark6VectorIN8particle17BleCharacteristicENS_16DefaultAllocatorEE6appendES2_+0x50>
    ++size_;
   da462:	6863      	ldr	r3, [r4, #4]
   da464:	3301      	adds	r3, #1
   da466:	6063      	str	r3, [r4, #4]
    return true;
   da468:	2601      	movs	r6, #1
   da46a:	e006      	b.n	da47a <_ZN5spark6VectorIN8particle17BleCharacteristicENS_16DefaultAllocatorEE6appendES2_+0x44>
    if (size_ + 1 > capacity_ && !realloc(size_ + 1)) {
   da46c:	3101      	adds	r1, #1
   da46e:	4620      	mov	r0, r4
   da470:	f7ff ffc9 	bl	da406 <_ZN5spark6VectorIN8particle17BleCharacteristicENS_16DefaultAllocatorEE7reallocIS2_Li0EEEbi>
   da474:	4606      	mov	r6, r0
   da476:	2800      	cmp	r0, #0
   da478:	d1e7      	bne.n	da44a <_ZN5spark6VectorIN8particle17BleCharacteristicENS_16DefaultAllocatorEE6appendES2_+0x14>
   da47a:	a801      	add	r0, sp, #4
   da47c:	f7ff fc8d 	bl	d9d9a <_ZNSt14__shared_countILN9__gnu_cxx12_Lock_policyE0EED1Ev>
}
   da480:	4630      	mov	r0, r6
   da482:	b002      	add	sp, #8
   da484:	bd70      	pop	{r4, r5, r6, pc}
    new(p) T(std::move(value));
   da486:	4669      	mov	r1, sp
   da488:	4628      	mov	r0, r5
   da48a:	f7ff fc64 	bl	d9d56 <_ZN8particle17BleCharacteristicC1ERKS0_>
   da48e:	e7e8      	b.n	da462 <_ZN5spark6VectorIN8particle17BleCharacteristicENS_16DefaultAllocatorEE6appendES2_+0x2c>

000da490 <_ZN8particle14BleLocalDevice17addCharacteristicERKNS_17BleCharacteristicE>:
        }
    }
    return BlePeerDevice();
}

BleCharacteristic BleLocalDevice::addCharacteristic(const BleCharacteristic& characteristic) {
   da490:	e92d 4ff0 	stmdb	sp!, {r4, r5, r6, r7, r8, r9, sl, fp, lr}
   da494:	4617      	mov	r7, r2
   da496:	b0a1      	sub	sp, #132	; 0x84
   da498:	4680      	mov	r8, r0
    WiringBleLock lk;
   da49a:	a80a      	add	r0, sp, #40	; 0x28
BleCharacteristic BleLocalDevice::addCharacteristic(const BleCharacteristic& characteristic) {
   da49c:	460e      	mov	r6, r1
    WiringBleLock lk;
   da49e:	f7ff f8d9 	bl	d9654 <_ZN8particle3ble13WiringBleLockC1Ev>
   da4a2:	683c      	ldr	r4, [r7, #0]
    auto charImpl = characteristic.impl();
    if (charImpl->properties() == BleCharacteristicProperty::NONE) {
   da4a4:	7923      	ldrb	r3, [r4, #4]
   da4a6:	b953      	cbnz	r3, da4be <_ZN8particle14BleLocalDevice17addCharacteristicERKNS_17BleCharacteristicE+0x2e>
        return characteristic;
    }
    for (const auto& existChar : impl()->characteristics()) {
        if (*charImpl == *existChar.impl()) {
            LOG(ERROR, "Duplicated characteristic cannot be added.");
            return characteristic;
   da4a8:	4639      	mov	r1, r7
   da4aa:	4640      	mov	r0, r8
   da4ac:	f7ff fc53 	bl	d9d56 <_ZN8particle17BleCharacteristicC1ERKS0_>
    WiringBleLock lk;
   da4b0:	a80a      	add	r0, sp, #40	; 0x28
   da4b2:	f7ff f8d7 	bl	d9664 <_ZN8particle3ble13WiringBleLockD1Ev>
    LOG_DEBUG(TRACE, "Add new local characteristic.");
    if(!impl()->characteristics().append(characteristic)) {
        LOG(ERROR, "Failed to append local characteristic.");
    }
    return characteristic;
}
   da4b6:	4640      	mov	r0, r8
   da4b8:	b021      	add	sp, #132	; 0x84
   da4ba:	e8bd 8ff0 	ldmia.w	sp!, {r4, r5, r6, r7, r8, r9, sl, fp, pc}
      pointer    _M_ptr() const { return std::get<0>(_M_t); }
   da4be:	6833      	ldr	r3, [r6, #0]
    return data_ + size_;
   da4c0:	e9d3 5303 	ldrd	r5, r3, [r3, #12]
   da4c4:	eb05 03c3 	add.w	r3, r5, r3, lsl #3
   da4c8:	9303      	str	r3, [sp, #12]
   da4ca:	f104 0a28 	add.w	sl, r4, #40	; 0x28
        if (charUuid_ == impl.charUuid_ &&
   da4ce:	f104 0b14 	add.w	fp, r4, #20
    for (const auto& existChar : impl()->characteristics()) {
   da4d2:	9b03      	ldr	r3, [sp, #12]
   da4d4:	429d      	cmp	r5, r3
   da4d6:	d021      	beq.n	da51c <_ZN8particle14BleLocalDevice17addCharacteristicERKNS_17BleCharacteristicE+0x8c>
   da4d8:	f8d5 9000 	ldr.w	r9, [r5]
        if (charUuid_ == impl.charUuid_ &&
   da4dc:	4658      	mov	r0, fp
   da4de:	f109 0114 	add.w	r1, r9, #20
   da4e2:	f7ff f970 	bl	d97c6 <_ZNK8particle7BleUuideqERKS0_>
                isLocal_ == impl.isLocal_ &&
   da4e6:	b1b8      	cbz	r0, da518 <_ZN8particle14BleLocalDevice17addCharacteristicERKNS_17BleCharacteristicE+0x88>
                svcUuid_ == impl.svcUuid_ &&
   da4e8:	f109 0128 	add.w	r1, r9, #40	; 0x28
   da4ec:	4650      	mov	r0, sl
   da4ee:	f7ff f96a 	bl	d97c6 <_ZNK8particle7BleUuideqERKS0_>
        if (charUuid_ == impl.charUuid_ &&
   da4f2:	b188      	cbz	r0, da518 <_ZN8particle14BleLocalDevice17addCharacteristicERKNS_17BleCharacteristicE+0x88>
                isLocal_ == impl.isLocal_ &&
   da4f4:	6823      	ldr	r3, [r4, #0]
   da4f6:	f8d9 2000 	ldr.w	r2, [r9]
   da4fa:	4053      	eors	r3, r2
   da4fc:	f433 437f 	bics.w	r3, r3, #65280	; 0xff00
   da500:	d10a      	bne.n	da518 <_ZN8particle14BleLocalDevice17addCharacteristicERKNS_17BleCharacteristicE+0x88>
            LOG(ERROR, "Duplicated characteristic cannot be added.");
   da502:	2220      	movs	r2, #32
   da504:	e9cd 2315 	strd	r2, r3, [sp, #84]	; 0x54
   da508:	4a5e      	ldr	r2, [pc, #376]	; (da684 <_ZN8particle14BleLocalDevice17addCharacteristicERKNS_17BleCharacteristicE+0x1f4>)
   da50a:	9200      	str	r2, [sp, #0]
   da50c:	aa15      	add	r2, sp, #84	; 0x54
   da50e:	495e      	ldr	r1, [pc, #376]	; (da688 <_ZN8particle14BleLocalDevice17addCharacteristicERKNS_17BleCharacteristicE+0x1f8>)
   da510:	2032      	movs	r0, #50	; 0x32
   da512:	f7fe fc0d 	bl	d8d30 <log_message>
   da516:	e7c7      	b.n	da4a8 <_ZN8particle14BleLocalDevice17addCharacteristicERKNS_17BleCharacteristicE+0x18>
    for (const auto& existChar : impl()->characteristics()) {
   da518:	3508      	adds	r5, #8
   da51a:	e7da      	b.n	da4d2 <_ZN8particle14BleLocalDevice17addCharacteristicERKNS_17BleCharacteristicE+0x42>
    if (!charImpl->svcUUID().isValid()) {
   da51c:	4650      	mov	r0, sl
   da51e:	f7ff f91d 	bl	d975c <_ZNK8particle7BleUuid7isValidEv>
   da522:	b960      	cbnz	r0, da53e <_ZN8particle14BleLocalDevice17addCharacteristicERKNS_17BleCharacteristicE+0xae>
        return *this = BleUuid(uuid);
   da524:	4959      	ldr	r1, [pc, #356]	; (da68c <_ZN8particle14BleLocalDevice17addCharacteristicERKNS_17BleCharacteristicE+0x1fc>)
   da526:	2201      	movs	r2, #1
   da528:	a815      	add	r0, sp, #84	; 0x54
   da52a:	ad15      	add	r5, sp, #84	; 0x54
   da52c:	f7ff f8ed 	bl	d970a <_ZN8particle7BleUuidC1EPKhNS_12BleUuidOrderE>
   da530:	cd0f      	ldmia	r5!, {r0, r1, r2, r3}
   da532:	46d4      	mov	ip, sl
   da534:	e8ac 000f 	stmia.w	ip!, {r0, r1, r2, r3}
   da538:	682b      	ldr	r3, [r5, #0]
   da53a:	f8cc 3000 	str.w	r3, [ip]
   da53e:	6833      	ldr	r3, [r6, #0]
   da540:	e9d3 5300 	ldrd	r5, r3, [r3]
   da544:	eb05 0bc3 	add.w	fp, r5, r3, lsl #3
    for (auto& svc : impl()->services()) {
   da548:	455d      	cmp	r5, fp
   da54a:	46a9      	mov	r9, r5
        BleService svc(charImpl->svcUUID());
   da54c:	4651      	mov	r1, sl
    for (auto& svc : impl()->services()) {
   da54e:	d06e      	beq.n	da62e <_ZN8particle14BleLocalDevice17addCharacteristicERKNS_17BleCharacteristicE+0x19e>
        if (svc.impl()->UUID() == charImpl->svcUUID()) {
   da550:	f855 0b08 	ldr.w	r0, [r5], #8
   da554:	f7ff f937 	bl	d97c6 <_ZNK8particle7BleUuideqERKS0_>
   da558:	2800      	cmp	r0, #0
   da55a:	d0f5      	beq.n	da548 <_ZN8particle14BleLocalDevice17addCharacteristicERKNS_17BleCharacteristicE+0xb8>
        if (!charUuid_.isValid()) {
   da55c:	f104 0a14 	add.w	sl, r4, #20
   da560:	4650      	mov	r0, sl
   da562:	f7ff f8fb 	bl	d975c <_ZNK8particle7BleUuid7isValidEv>
   da566:	b988      	cbnz	r0, da58c <_ZN8particle14BleLocalDevice17addCharacteristicERKNS_17BleCharacteristicE+0xfc>
            defaultUuidCharCount_++;
   da568:	4b49      	ldr	r3, [pc, #292]	; (da690 <_ZN8particle14BleLocalDevice17addCharacteristicERKNS_17BleCharacteristicE+0x200>)
            BleUuid newUuid(PARTICLE_DEFAULT_BLE_SVC_UUID, defaultUuidCharCount_);
   da56a:	4948      	ldr	r1, [pc, #288]	; (da68c <_ZN8particle14BleLocalDevice17addCharacteristicERKNS_17BleCharacteristicE+0x1fc>)
            defaultUuidCharCount_++;
   da56c:	881a      	ldrh	r2, [r3, #0]
   da56e:	3201      	adds	r2, #1
   da570:	b292      	uxth	r2, r2
   da572:	801a      	strh	r2, [r3, #0]
            BleUuid newUuid(PARTICLE_DEFAULT_BLE_SVC_UUID, defaultUuidCharCount_);
   da574:	a815      	add	r0, sp, #84	; 0x54
   da576:	2301      	movs	r3, #1
            charUuid_ = newUuid;
   da578:	ad15      	add	r5, sp, #84	; 0x54
            BleUuid newUuid(PARTICLE_DEFAULT_BLE_SVC_UUID, defaultUuidCharCount_);
   da57a:	f7ff f8e5 	bl	d9748 <_ZN8particle7BleUuidC1EPKhtNS_12BleUuidOrderE>
            charUuid_ = newUuid;
   da57e:	cd0f      	ldmia	r5!, {r0, r1, r2, r3}
   da580:	46d4      	mov	ip, sl
   da582:	e8ac 000f 	stmia.w	ip!, {r0, r1, r2, r3}
   da586:	682b      	ldr	r3, [r5, #0]
   da588:	f8cc 3000 	str.w	r3, [ip]
    hal_ble_char_init_t charInit = {};
   da58c:	2228      	movs	r2, #40	; 0x28
   da58e:	2100      	movs	r1, #0
   da590:	a816      	add	r0, sp, #88	; 0x58
   da592:	f003 fb6d 	bl	ddc70 <memset>
    charInit.version = BLE_API_VERSION;
   da596:	4b3f      	ldr	r3, [pc, #252]	; (da694 <_ZN8particle14BleLocalDevice17addCharacteristicERKNS_17BleCharacteristicE+0x204>)
   da598:	9315      	str	r3, [sp, #84]	; 0x54
    charInit.uuid = charImpl->charUUID().halUUID();
   da59a:	4651      	mov	r1, sl
   da59c:	a804      	add	r0, sp, #16
   da59e:	f7ff f8ef 	bl	d9780 <_ZN8particle7BleUuid7halUUIDEv>
   da5a2:	ab04      	add	r3, sp, #16
   da5a4:	aa18      	add	r2, sp, #96	; 0x60
   da5a6:	f10d 0c20 	add.w	ip, sp, #32
   da5aa:	6818      	ldr	r0, [r3, #0]
   da5ac:	6859      	ldr	r1, [r3, #4]
   da5ae:	4615      	mov	r5, r2
   da5b0:	c503      	stmia	r5!, {r0, r1}
   da5b2:	3308      	adds	r3, #8
   da5b4:	4563      	cmp	r3, ip
   da5b6:	462a      	mov	r2, r5
   da5b8:	d1f7      	bne.n	da5aa <_ZN8particle14BleLocalDevice17addCharacteristicERKNS_17BleCharacteristicE+0x11a>
   da5ba:	6818      	ldr	r0, [r3, #0]
   da5bc:	6028      	str	r0, [r5, #0]
    charInit.properties = charImpl->properties().value();
   da5be:	7923      	ldrb	r3, [r4, #4]
   da5c0:	f88d 3058 	strb.w	r3, [sp, #88]	; 0x58
    charInit.service_handle = service->impl()->startHandle();
   da5c4:	f8d9 3000 	ldr.w	r3, [r9]
   da5c8:	8a9b      	ldrh	r3, [r3, #20]
   da5ca:	f8ad 3074 	strh.w	r3, [sp, #116]	; 0x74
    charInit.description = charImpl->description().c_str();
   da5ce:	6be3      	ldr	r3, [r4, #60]	; 0x3c
   da5d0:	9317      	str	r3, [sp, #92]	; 0x5c
    charInit.callback = charImpl->onBleCharEvents;
   da5d2:	4b31      	ldr	r3, [pc, #196]	; (da698 <_ZN8particle14BleLocalDevice17addCharacteristicERKNS_17BleCharacteristicE+0x208>)
    if (hal_ble_gatt_server_add_characteristic(&charInit, &charImpl->attrHandles(), nullptr) != SYSTEM_ERROR_NONE) {
   da5d4:	2200      	movs	r2, #0
   da5d6:	1da1      	adds	r1, r4, #6
   da5d8:	a815      	add	r0, sp, #84	; 0x54
    charInit.context = charImpl;
   da5da:	e9cd 341e 	strd	r3, r4, [sp, #120]	; 0x78
    if (hal_ble_gatt_server_add_characteristic(&charInit, &charImpl->attrHandles(), nullptr) != SYSTEM_ERROR_NONE) {
   da5de:	f7fe fa03 	bl	d89e8 <hal_ble_gatt_server_add_characteristic>
   da5e2:	2800      	cmp	r0, #0
   da5e4:	f47f af60 	bne.w	da4a8 <_ZN8particle14BleLocalDevice17addCharacteristicERKNS_17BleCharacteristicE+0x18>
        isLocal_ = local;
   da5e8:	2301      	movs	r3, #1
   da5ea:	7023      	strb	r3, [r4, #0]
        return characteristics_;
   da5ec:	6834      	ldr	r4, [r6, #0]
    if(!impl()->characteristics().append(characteristic)) {
   da5ee:	4639      	mov	r1, r7
        return characteristics_;
   da5f0:	340c      	adds	r4, #12
    if(!impl()->characteristics().append(characteristic)) {
   da5f2:	a80d      	add	r0, sp, #52	; 0x34
   da5f4:	f7ff fbaf 	bl	d9d56 <_ZN8particle17BleCharacteristicC1ERKS0_>
   da5f8:	4620      	mov	r0, r4
   da5fa:	a90d      	add	r1, sp, #52	; 0x34
   da5fc:	f7ff ff1b 	bl	da436 <_ZN5spark6VectorIN8particle17BleCharacteristicENS_16DefaultAllocatorEE6appendES2_>
   da600:	4604      	mov	r4, r0
   da602:	a80e      	add	r0, sp, #56	; 0x38
   da604:	f7ff fbc9 	bl	d9d9a <_ZNSt14__shared_countILN9__gnu_cxx12_Lock_policyE0EED1Ev>
   da608:	2c00      	cmp	r4, #0
   da60a:	f47f af4d 	bne.w	da4a8 <_ZN8particle14BleLocalDevice17addCharacteristicERKNS_17BleCharacteristicE+0x18>
        LOG(ERROR, "Failed to append local characteristic.");
   da60e:	2320      	movs	r3, #32
   da610:	e9cd 340d 	strd	r3, r4, [sp, #52]	; 0x34
   da614:	4b21      	ldr	r3, [pc, #132]	; (da69c <_ZN8particle14BleLocalDevice17addCharacteristicERKNS_17BleCharacteristicE+0x20c>)
   da616:	9300      	str	r3, [sp, #0]
   da618:	aa0d      	add	r2, sp, #52	; 0x34
   da61a:	4623      	mov	r3, r4
   da61c:	e777      	b.n	da50e <_ZN8particle14BleLocalDevice17addCharacteristicERKNS_17BleCharacteristicE+0x7e>
            return characteristic;
   da61e:	4639      	mov	r1, r7
   da620:	4640      	mov	r0, r8
   da622:	f7ff fb98 	bl	d9d56 <_ZN8particle17BleCharacteristicC1ERKS0_>
   da626:	a80c      	add	r0, sp, #48	; 0x30
   da628:	f7ff fbb7 	bl	d9d9a <_ZNSt14__shared_countILN9__gnu_cxx12_Lock_policyE0EED1Ev>
   da62c:	e740      	b.n	da4b0 <_ZN8particle14BleLocalDevice17addCharacteristicERKNS_17BleCharacteristicE+0x20>
        BleService svc(charImpl->svcUUID());
   da62e:	a80b      	add	r0, sp, #44	; 0x2c
   da630:	f7ff fa42 	bl	d9ab8 <_ZN8particle10BleServiceC1ERKNS_7BleUuidE>
        hal_ble_uuid_t halUuid = charImpl->svcUUID().halUUID();
   da634:	4651      	mov	r1, sl
   da636:	a815      	add	r0, sp, #84	; 0x54
   da638:	f7ff f8a2 	bl	d9780 <_ZN8particle7BleUuid7halUUIDEv>
        if (hal_ble_gatt_server_add_service(BLE_SERVICE_TYPE_PRIMARY, &halUuid, &svc.impl()->startHandle(), nullptr) != SYSTEM_ERROR_NONE) {
   da63c:	9a0b      	ldr	r2, [sp, #44]	; 0x2c
   da63e:	2300      	movs	r3, #0
   da640:	3214      	adds	r2, #20
   da642:	a915      	add	r1, sp, #84	; 0x54
   da644:	2001      	movs	r0, #1
   da646:	f7fe f9a7 	bl	d8998 <hal_ble_gatt_server_add_service>
   da64a:	2800      	cmp	r0, #0
   da64c:	d1e7      	bne.n	da61e <_ZN8particle14BleLocalDevice17addCharacteristicERKNS_17BleCharacteristicE+0x18e>
        return services_;
   da64e:	6835      	ldr	r5, [r6, #0]
   da650:	a90b      	add	r1, sp, #44	; 0x2c
   da652:	a80d      	add	r0, sp, #52	; 0x34
   da654:	f7ff fb8d 	bl	d9d72 <_ZNSt12__shared_ptrIN8particle14BleServiceImplELN9__gnu_cxx12_Lock_policyE0EEC1ERKS4_>
        if(!impl()->services().append(svc)) {
   da658:	4628      	mov	r0, r5
   da65a:	a90d      	add	r1, sp, #52	; 0x34
   da65c:	f7ff fe7c 	bl	da358 <_ZN5spark6VectorIN8particle10BleServiceENS_16DefaultAllocatorEE6appendES2_>
   da660:	4605      	mov	r5, r0
   da662:	a80e      	add	r0, sp, #56	; 0x38
   da664:	f7ff fb99 	bl	d9d9a <_ZNSt14__shared_countILN9__gnu_cxx12_Lock_policyE0EED1Ev>
   da668:	2d00      	cmp	r5, #0
   da66a:	d0d8      	beq.n	da61e <_ZN8particle14BleLocalDevice17addCharacteristicERKNS_17BleCharacteristicE+0x18e>
   da66c:	6832      	ldr	r2, [r6, #0]
    return data_[size_ - 1];
   da66e:	6853      	ldr	r3, [r2, #4]
   da670:	6812      	ldr	r2, [r2, #0]
   da672:	f103 5300 	add.w	r3, r3, #536870912	; 0x20000000
   da676:	3b01      	subs	r3, #1
   da678:	a80c      	add	r0, sp, #48	; 0x30
   da67a:	eb02 09c3 	add.w	r9, r2, r3, lsl #3
   da67e:	f7ff fb8c 	bl	d9d9a <_ZNSt14__shared_countILN9__gnu_cxx12_Lock_policyE0EED1Ev>
   da682:	e76b      	b.n	da55c <_ZN8particle14BleLocalDevice17addCharacteristicERKNS_17BleCharacteristicE+0xcc>
   da684:	000dea11 	.word	0x000dea11
   da688:	000de970 	.word	0x000de970
   da68c:	000dead0 	.word	0x000dead0
   da690:	2003e5e0 	.word	0x2003e5e0
   da694:	002c0001 	.word	0x002c0001
   da698:	000d9c49 	.word	0x000d9c49
   da69c:	000dea3c 	.word	0x000dea3c

000da6a0 <_GLOBAL__sub_I__ZN8particle3ble13WiringBleLock6mutex_E>:
BleCharacteristic BleLocalDevice::addCharacteristic(EnumFlags<BleCharacteristicProperty> properties, const String& desc, const BleOnDataReceivedStdFunction& callback) {
    WiringBleLock lk;
    return addCharacteristic(properties, desc.c_str(), callback);
}

} /* namespace particle */
   da6a0:	b510      	push	{r4, lr}
    RecursiveMutex() : handle_(nullptr)
   da6a2:	4c06      	ldr	r4, [pc, #24]	; (da6bc <_GLOBAL__sub_I__ZN8particle3ble13WiringBleLock6mutex_E+0x1c>)
   da6a4:	2300      	movs	r3, #0
        os_mutex_recursive_create(&handle_);
   da6a6:	4620      	mov	r0, r4
    RecursiveMutex() : handle_(nullptr)
   da6a8:	6023      	str	r3, [r4, #0]
        os_mutex_recursive_create(&handle_);
   da6aa:	f7fe f9c5 	bl	d8a38 <os_mutex_recursive_create>
RecursiveMutex WiringBleLock::mutex_;
   da6ae:	4620      	mov	r0, r4
   da6b0:	4a03      	ldr	r2, [pc, #12]	; (da6c0 <_GLOBAL__sub_I__ZN8particle3ble13WiringBleLock6mutex_E+0x20>)
   da6b2:	4904      	ldr	r1, [pc, #16]	; (da6c4 <_GLOBAL__sub_I__ZN8particle3ble13WiringBleLock6mutex_E+0x24>)
} /* namespace particle */
   da6b4:	e8bd 4010 	ldmia.w	sp!, {r4, lr}
RecursiveMutex WiringBleLock::mutex_;
   da6b8:	f001 b810 	b.w	db6dc <__aeabi_atexit>
   da6bc:	2003e5e4 	.word	0x2003e5e4
   da6c0:	2003de20 	.word	0x2003de20
   da6c4:	000d94a3 	.word	0x000d94a3

000da6c8 <_ZN5Print5writeEPKhj>:

// Public Methods //////////////////////////////////////////////////////////////

/* default implementation: may be overridden */
size_t Print::write(const uint8_t *buffer, size_t size)
{
   da6c8:	b5f8      	push	{r3, r4, r5, r6, r7, lr}
   da6ca:	4606      	mov	r6, r0
   da6cc:	460d      	mov	r5, r1
  size_t n = 0;
   da6ce:	188f      	adds	r7, r1, r2
   da6d0:	2400      	movs	r4, #0
  while (size--) {
   da6d2:	42bd      	cmp	r5, r7
   da6d4:	d00c      	beq.n	da6f0 <_ZN5Print5writeEPKhj+0x28>
     int chunk = write(*buffer++);
   da6d6:	6833      	ldr	r3, [r6, #0]
   da6d8:	f815 1b01 	ldrb.w	r1, [r5], #1
   da6dc:	689b      	ldr	r3, [r3, #8]
   da6de:	4630      	mov	r0, r6
   da6e0:	4798      	blx	r3
     if (chunk>=0)
   da6e2:	1e03      	subs	r3, r0, #0
   da6e4:	db01      	blt.n	da6ea <_ZN5Print5writeEPKhj+0x22>
         n += chunk;
   da6e6:	441c      	add	r4, r3
  while (size--) {
   da6e8:	e7f3      	b.n	da6d2 <_ZN5Print5writeEPKhj+0xa>
     int chunk = write(*buffer++);
   da6ea:	2c00      	cmp	r4, #0
   da6ec:	bf08      	it	eq
   da6ee:	461c      	moveq	r4, r3
             n = chunk;
         break;
     }
  }
  return n;
}
   da6f0:	4620      	mov	r0, r4
   da6f2:	bdf8      	pop	{r3, r4, r5, r6, r7, pc}

000da6f4 <_ZN5Print5printEPKc>:

size_t Print::print(const char str[])
{
   da6f4:	b508      	push	{r3, lr}
  return write(str);
   da6f6:	f7fc fe21 	bl	d733c <_ZN5Print5writeEPKc>
}
   da6fa:	bd08      	pop	{r3, pc}

000da6fc <_ZN5Print5printEc>:

size_t Print::print(char c)
{
  return write(c);
   da6fc:	6803      	ldr	r3, [r0, #0]
   da6fe:	689b      	ldr	r3, [r3, #8]
   da700:	4718      	bx	r3

000da702 <_ZN5Print7printlnEv>:
{
  return print(reinterpret_cast<const char*>(str));
}

size_t Print::println(void)
{
   da702:	b538      	push	{r3, r4, r5, lr}
  size_t n = print('\r');
   da704:	210d      	movs	r1, #13
{
   da706:	4605      	mov	r5, r0
  size_t n = print('\r');
   da708:	f7ff fff8 	bl	da6fc <_ZN5Print5printEc>
  n += print('\n');
   da70c:	210a      	movs	r1, #10
  size_t n = print('\r');
   da70e:	4604      	mov	r4, r0
  n += print('\n');
   da710:	4628      	mov	r0, r5
   da712:	f7ff fff3 	bl	da6fc <_ZN5Print5printEc>
  return n;
}
   da716:	4420      	add	r0, r4
   da718:	bd38      	pop	{r3, r4, r5, pc}

000da71a <_ZN5Print7printlnEPKc>:

size_t Print::println(const char c[])
{
   da71a:	b538      	push	{r3, r4, r5, lr}
   da71c:	4605      	mov	r5, r0
  return write(str);
   da71e:	f7fc fe0d 	bl	d733c <_ZN5Print5writeEPKc>
   da722:	4604      	mov	r4, r0
  size_t n = print(c);
  n += println();
   da724:	4628      	mov	r0, r5
   da726:	f7ff ffec 	bl	da702 <_ZN5Print7printlnEv>
  return n;
}
   da72a:	4420      	add	r0, r4
   da72c:	bd38      	pop	{r3, r4, r5, pc}

000da72e <_ZN5Print11printNumberEmh>:
  return println(reinterpret_cast<const char*>(str));
}

// Private Methods /////////////////////////////////////////////////////////////

size_t Print::printNumber(unsigned long n, uint8_t base) {
   da72e:	b530      	push	{r4, r5, lr}
   da730:	b08b      	sub	sp, #44	; 0x2c
  char buf[8 * sizeof(n) + 1]; // Assumes 8-bit chars plus zero byte.
  char *str = &buf[sizeof(buf) - 1];

  *str = '\0';
   da732:	2300      	movs	r3, #0
   da734:	f88d 3024 	strb.w	r3, [sp, #36]	; 0x24

  // prevent crash if called with base == 1
  if (base < 2) base = 10;
   da738:	2a01      	cmp	r2, #1
   da73a:	bf98      	it	ls
   da73c:	220a      	movls	r2, #10
   da73e:	ac09      	add	r4, sp, #36	; 0x24

  do {
   decltype(n) m = n;
   n /= base;
   da740:	460d      	mov	r5, r1
   da742:	fbb1 f1f2 	udiv	r1, r1, r2
   char c = m - base * n;
   da746:	fb01 5312 	mls	r3, r1, r2, r5
   da74a:	f003 03ff 	and.w	r3, r3, #255	; 0xff
   *--str = c < 10 ? c + '0' : c + 'A' - 10;
   da74e:	2b09      	cmp	r3, #9
   da750:	bf94      	ite	ls
   da752:	3330      	addls	r3, #48	; 0x30
   da754:	3337      	addhi	r3, #55	; 0x37
   da756:	b2db      	uxtb	r3, r3
  } while(n);
   da758:	42aa      	cmp	r2, r5
   *--str = c < 10 ? c + '0' : c + 'A' - 10;
   da75a:	f804 3d01 	strb.w	r3, [r4, #-1]!
  } while(n);
   da75e:	d9ef      	bls.n	da740 <_ZN5Print11printNumberEmh+0x12>

  return write(str);
   da760:	4621      	mov	r1, r4
   da762:	f7fc fdeb 	bl	d733c <_ZN5Print5writeEPKc>
}
   da766:	b00b      	add	sp, #44	; 0x2c
   da768:	bd30      	pop	{r4, r5, pc}
	...

000da76c <_ZN5Print10printFloatEdh>:

  return write(str);
}

size_t Print::printFloat(double number, uint8_t digits)
{
   da76c:	e92d 4ff7 	stmdb	sp!, {r0, r1, r2, r4, r5, r6, r7, r8, r9, sl, fp, lr}
   da770:	ec55 4b10 	vmov	r4, r5, d0
   da774:	4606      	mov	r6, r0
   da776:	460f      	mov	r7, r1
  size_t n = 0;

  if (isnan(number)) return print("nan");
   da778:	ee10 2a10 	vmov	r2, s0
   da77c:	ee10 0a10 	vmov	r0, s0
   da780:	462b      	mov	r3, r5
   da782:	4629      	mov	r1, r5
   da784:	f002 febc 	bl	dd500 <__aeabi_dcmpun>
   da788:	b140      	cbz	r0, da79c <_ZN5Print10printFloatEdh+0x30>
  return write(str);
   da78a:	4953      	ldr	r1, [pc, #332]	; (da8d8 <_ZN5Print10printFloatEdh+0x16c>)
   da78c:	4630      	mov	r0, r6
   da78e:	f7fc fdd5 	bl	d733c <_ZN5Print5writeEPKc>
   da792:	4682      	mov	sl, r0
    n += print(toPrint);
    remainder -= toPrint;
  }

  return n;
}
   da794:	4650      	mov	r0, sl
   da796:	b003      	add	sp, #12
   da798:	e8bd 8ff0 	ldmia.w	sp!, {r4, r5, r6, r7, r8, r9, sl, fp, pc}
  && !_GLIBCXX_NO_OBSOLETE_ISINF_ISNAN_DYNAMIC
  using ::isinf;
#else
  constexpr bool
  isinf(double __x)
  { return __builtin_isinf(__x); }
   da79c:	f025 4900 	bic.w	r9, r5, #2147483648	; 0x80000000
  if (isinf(number)) return print("inf");
   da7a0:	4b4e      	ldr	r3, [pc, #312]	; (da8dc <_ZN5Print10printFloatEdh+0x170>)
   da7a2:	f04f 32ff 	mov.w	r2, #4294967295
   da7a6:	4620      	mov	r0, r4
   da7a8:	4649      	mov	r1, r9
   da7aa:	f002 fea9 	bl	dd500 <__aeabi_dcmpun>
   da7ae:	b948      	cbnz	r0, da7c4 <_ZN5Print10printFloatEdh+0x58>
   da7b0:	4b4a      	ldr	r3, [pc, #296]	; (da8dc <_ZN5Print10printFloatEdh+0x170>)
   da7b2:	f04f 32ff 	mov.w	r2, #4294967295
   da7b6:	4620      	mov	r0, r4
   da7b8:	4649      	mov	r1, r9
   da7ba:	f002 fe83 	bl	dd4c4 <__aeabi_dcmple>
   da7be:	b908      	cbnz	r0, da7c4 <_ZN5Print10printFloatEdh+0x58>
  return write(str);
   da7c0:	4947      	ldr	r1, [pc, #284]	; (da8e0 <_ZN5Print10printFloatEdh+0x174>)
   da7c2:	e7e3      	b.n	da78c <_ZN5Print10printFloatEdh+0x20>
  if (number > 4294967040.0) return print ("ovf");  // constant determined empirically
   da7c4:	4b47      	ldr	r3, [pc, #284]	; (da8e4 <_ZN5Print10printFloatEdh+0x178>)
   da7c6:	f04f 4260 	mov.w	r2, #3758096384	; 0xe0000000
   da7ca:	4620      	mov	r0, r4
   da7cc:	4629      	mov	r1, r5
   da7ce:	f002 fe8d 	bl	dd4ec <__aeabi_dcmpgt>
   da7d2:	b108      	cbz	r0, da7d8 <_ZN5Print10printFloatEdh+0x6c>
  return write(str);
   da7d4:	4944      	ldr	r1, [pc, #272]	; (da8e8 <_ZN5Print10printFloatEdh+0x17c>)
   da7d6:	e7d9      	b.n	da78c <_ZN5Print10printFloatEdh+0x20>
  if (number <-4294967040.0) return print ("ovf");  // constant determined empirically
   da7d8:	4b44      	ldr	r3, [pc, #272]	; (da8ec <_ZN5Print10printFloatEdh+0x180>)
   da7da:	f04f 4260 	mov.w	r2, #3758096384	; 0xe0000000
   da7de:	4620      	mov	r0, r4
   da7e0:	4629      	mov	r1, r5
   da7e2:	f002 fe65 	bl	dd4b0 <__aeabi_dcmplt>
   da7e6:	2800      	cmp	r0, #0
   da7e8:	d1f4      	bne.n	da7d4 <_ZN5Print10printFloatEdh+0x68>
  if (number < 0.0)
   da7ea:	2200      	movs	r2, #0
   da7ec:	2300      	movs	r3, #0
   da7ee:	4620      	mov	r0, r4
   da7f0:	4629      	mov	r1, r5
   da7f2:	f002 fe5d 	bl	dd4b0 <__aeabi_dcmplt>
   da7f6:	b1d0      	cbz	r0, da82e <_ZN5Print10printFloatEdh+0xc2>
     n += print('-');
   da7f8:	212d      	movs	r1, #45	; 0x2d
   da7fa:	4630      	mov	r0, r6
   da7fc:	f7ff ff7e 	bl	da6fc <_ZN5Print5printEc>
     number = -number;
   da800:	f105 4300 	add.w	r3, r5, #2147483648	; 0x80000000
     n += print('-');
   da804:	4682      	mov	sl, r0
     number = -number;
   da806:	461d      	mov	r5, r3
  double rounding = 0.5;
   da808:	4939      	ldr	r1, [pc, #228]	; (da8f0 <_ZN5Print10printFloatEdh+0x184>)
    rounding /= 10.0;
   da80a:	f8df 90ec 	ldr.w	r9, [pc, #236]	; da8f8 <_ZN5Print10printFloatEdh+0x18c>
  size_t n = 0;
   da80e:	f04f 0b00 	mov.w	fp, #0
  double rounding = 0.5;
   da812:	2000      	movs	r0, #0
    rounding /= 10.0;
   da814:	f04f 0800 	mov.w	r8, #0
  for (uint8_t i=0; i<digits; ++i)
   da818:	fa5f f38b 	uxtb.w	r3, fp
   da81c:	429f      	cmp	r7, r3
   da81e:	d908      	bls.n	da832 <_ZN5Print10printFloatEdh+0xc6>
    rounding /= 10.0;
   da820:	4642      	mov	r2, r8
   da822:	464b      	mov	r3, r9
   da824:	f002 fcfc 	bl	dd220 <__aeabi_ddiv>
  for (uint8_t i=0; i<digits; ++i)
   da828:	f10b 0b01 	add.w	fp, fp, #1
   da82c:	e7f4      	b.n	da818 <_ZN5Print10printFloatEdh+0xac>
  size_t n = 0;
   da82e:	4682      	mov	sl, r0
   da830:	e7ea      	b.n	da808 <_ZN5Print10printFloatEdh+0x9c>
  number += rounding;
   da832:	4622      	mov	r2, r4
   da834:	462b      	mov	r3, r5
   da836:	f002 fa13 	bl	dcc60 <__adddf3>
   da83a:	460d      	mov	r5, r1
   da83c:	4604      	mov	r4, r0
  unsigned long int_part = (unsigned long)number;
   da83e:	f002 fe9d 	bl	dd57c <__aeabi_d2uiz>
   da842:	4680      	mov	r8, r0
  double remainder = number - (double)int_part;
   da844:	f002 fb48 	bl	dced8 <__aeabi_ui2d>
   da848:	4602      	mov	r2, r0
   da84a:	460b      	mov	r3, r1
   da84c:	4620      	mov	r0, r4
   da84e:	4629      	mov	r1, r5
   da850:	f002 fa04 	bl	dcc5c <__aeabi_dsub>
            val = n;
        }
#if __GNUC__ >= 9
#pragma GCC diagnostic pop
#endif // __GNUC__ >= 9
        return printNumber(val, base) + t;
   da854:	220a      	movs	r2, #10
   da856:	4604      	mov	r4, r0
   da858:	460d      	mov	r5, r1
   da85a:	4630      	mov	r0, r6
   da85c:	4641      	mov	r1, r8
   da85e:	f7ff ff66 	bl	da72e <_ZN5Print11printNumberEmh>
  n += print(int_part);
   da862:	4482      	add	sl, r0
  if (digits > 0) {
   da864:	b127      	cbz	r7, da870 <_ZN5Print10printFloatEdh+0x104>
  return write(str);
   da866:	4923      	ldr	r1, [pc, #140]	; (da8f4 <_ZN5Print10printFloatEdh+0x188>)
   da868:	4630      	mov	r0, r6
   da86a:	f7fc fd67 	bl	d733c <_ZN5Print5writeEPKc>
    n += print(".");
   da86e:	4482      	add	sl, r0
    remainder *= 10.0;
   da870:	f8df 9084 	ldr.w	r9, [pc, #132]	; da8f8 <_ZN5Print10printFloatEdh+0x18c>
   da874:	f04f 0800 	mov.w	r8, #0
  while (digits-- > 0)
   da878:	3f01      	subs	r7, #1
   da87a:	b2ff      	uxtb	r7, r7
   da87c:	2fff      	cmp	r7, #255	; 0xff
   da87e:	d089      	beq.n	da794 <_ZN5Print10printFloatEdh+0x28>
    remainder *= 10.0;
   da880:	4642      	mov	r2, r8
   da882:	464b      	mov	r3, r9
   da884:	4620      	mov	r0, r4
   da886:	4629      	mov	r1, r5
   da888:	f002 fba0 	bl	dcfcc <__aeabi_dmul>
   da88c:	4604      	mov	r4, r0
   da88e:	460d      	mov	r5, r1
    int toPrint = int(remainder);
   da890:	f002 fe4c 	bl	dd52c <__aeabi_d2iz>
        if (n < 0 && base == 10) {
   da894:	f1b0 0b00 	subs.w	fp, r0, #0
   da898:	da1a      	bge.n	da8d0 <_ZN5Print10printFloatEdh+0x164>
            t = print('-');
   da89a:	212d      	movs	r1, #45	; 0x2d
   da89c:	4630      	mov	r0, r6
   da89e:	f7ff ff2d 	bl	da6fc <_ZN5Print5printEc>
            val = -n;
   da8a2:	f1cb 0100 	rsb	r1, fp, #0
            t = print('-');
   da8a6:	4603      	mov	r3, r0
        return printNumber(val, base) + t;
   da8a8:	220a      	movs	r2, #10
   da8aa:	4630      	mov	r0, r6
   da8ac:	9301      	str	r3, [sp, #4]
   da8ae:	f7ff ff3e 	bl	da72e <_ZN5Print11printNumberEmh>
   da8b2:	9b01      	ldr	r3, [sp, #4]
   da8b4:	4418      	add	r0, r3
    n += print(toPrint);
   da8b6:	4482      	add	sl, r0
    remainder -= toPrint;
   da8b8:	4658      	mov	r0, fp
   da8ba:	f002 fb1d 	bl	dcef8 <__aeabi_i2d>
   da8be:	4602      	mov	r2, r0
   da8c0:	460b      	mov	r3, r1
   da8c2:	4620      	mov	r0, r4
   da8c4:	4629      	mov	r1, r5
   da8c6:	f002 f9c9 	bl	dcc5c <__aeabi_dsub>
   da8ca:	4604      	mov	r4, r0
   da8cc:	460d      	mov	r5, r1
  while (digits-- > 0)
   da8ce:	e7d3      	b.n	da878 <_ZN5Print10printFloatEdh+0x10c>
            val = n;
   da8d0:	4659      	mov	r1, fp
        size_t t = 0;
   da8d2:	2300      	movs	r3, #0
   da8d4:	e7e8      	b.n	da8a8 <_ZN5Print10printFloatEdh+0x13c>
   da8d6:	bf00      	nop
   da8d8:	000deaf0 	.word	0x000deaf0
   da8dc:	7fefffff 	.word	0x7fefffff
   da8e0:	000deaf4 	.word	0x000deaf4
   da8e4:	41efffff 	.word	0x41efffff
   da8e8:	000deaf8 	.word	0x000deaf8
   da8ec:	c1efffff 	.word	0xc1efffff
   da8f0:	3fe00000 	.word	0x3fe00000
   da8f4:	000dea61 	.word	0x000dea61
   da8f8:	40240000 	.word	0x40240000

000da8fc <_ZN5Print5printEfi>:
{
   da8fc:	b538      	push	{r3, r4, r5, lr}
   da8fe:	4604      	mov	r4, r0
   da900:	ee10 0a10 	vmov	r0, s0
  return printFloat((double)n, digits);
   da904:	b2cd      	uxtb	r5, r1
   da906:	f002 fb09 	bl	dcf1c <__aeabi_f2d>
   da90a:	ec41 0b10 	vmov	d0, r0, r1
   da90e:	4629      	mov	r1, r5
   da910:	4620      	mov	r0, r4
}
   da912:	e8bd 4038 	ldmia.w	sp!, {r3, r4, r5, lr}
  return printFloat((double)n, digits);
   da916:	f7ff bf29 	b.w	da76c <_ZN5Print10printFloatEdh>

000da91a <_ZN5Print7vprintfEbPKcSt9__va_list>:

size_t Print::vprintf(bool newline, const char* format, va_list args)
{
   da91a:	e92d 41f0 	stmdb	sp!, {r4, r5, r6, r7, r8, lr}
   da91e:	b086      	sub	sp, #24
   da920:	af00      	add	r7, sp, #0
   da922:	4605      	mov	r5, r0
   da924:	460e      	mov	r6, r1
    const int bufsize = 20;
    char test[bufsize];
    va_list args2;
    va_copy(args2, args);
    size_t n = vsnprintf(test, bufsize, format, args);
   da926:	1d38      	adds	r0, r7, #4
   da928:	2114      	movs	r1, #20
{
   da92a:	4614      	mov	r4, r2
    va_copy(args2, args);
   da92c:	603b      	str	r3, [r7, #0]
    size_t n = vsnprintf(test, bufsize, format, args);
   da92e:	f7fe fb0d 	bl	d8f4c <vsnprintf>

    if (n<bufsize)
   da932:	2813      	cmp	r0, #19
   da934:	d80e      	bhi.n	da954 <_ZN5Print7vprintfEbPKcSt9__va_list+0x3a>
  return write(str);
   da936:	1d39      	adds	r1, r7, #4
   da938:	4628      	mov	r0, r5
   da93a:	f7fc fcff 	bl	d733c <_ZN5Print5writeEPKc>
   da93e:	4604      	mov	r4, r0
    {
        char bigger[n+1];
        n = vsnprintf(bigger, n+1, format, args2);
        n = print(bigger);
    }
    if (newline)
   da940:	b11e      	cbz	r6, da94a <_ZN5Print7vprintfEbPKcSt9__va_list+0x30>
        n += println();
   da942:	4628      	mov	r0, r5
   da944:	f7ff fedd 	bl	da702 <_ZN5Print7printlnEv>
   da948:	4404      	add	r4, r0

    va_end(args2);
    return n;
}
   da94a:	4620      	mov	r0, r4
   da94c:	3718      	adds	r7, #24
   da94e:	46bd      	mov	sp, r7
   da950:	e8bd 81f0 	ldmia.w	sp!, {r4, r5, r6, r7, r8, pc}
        char bigger[n+1];
   da954:	f100 0308 	add.w	r3, r0, #8
   da958:	f023 0307 	bic.w	r3, r3, #7
        n = print(bigger);
   da95c:	46e8      	mov	r8, sp
        char bigger[n+1];
   da95e:	ebad 0d03 	sub.w	sp, sp, r3
        n = vsnprintf(bigger, n+1, format, args2);
   da962:	4622      	mov	r2, r4
   da964:	1c41      	adds	r1, r0, #1
   da966:	683b      	ldr	r3, [r7, #0]
   da968:	4668      	mov	r0, sp
   da96a:	f7fe faef 	bl	d8f4c <vsnprintf>
  return write(str);
   da96e:	4669      	mov	r1, sp
   da970:	4628      	mov	r0, r5
   da972:	f7fc fce3 	bl	d733c <_ZN5Print5writeEPKc>
   da976:	4604      	mov	r4, r0
   da978:	46c5      	mov	sp, r8
   da97a:	e7e1      	b.n	da940 <_ZN5Print7vprintfEbPKcSt9__va_list+0x26>

000da97c <_GLOBAL__sub_I__ZN5spark3LogE>:
    // This handler doesn't support direct logging
}

// spark::Logger
inline spark::Logger::Logger(const char *name) :
        name_(name) {
   da97c:	4b01      	ldr	r3, [pc, #4]	; (da984 <_GLOBAL__sub_I__ZN5spark3LogE+0x8>)
   da97e:	4a02      	ldr	r2, [pc, #8]	; (da988 <_GLOBAL__sub_I__ZN5spark3LogE+0xc>)
   da980:	601a      	str	r2, [r3, #0]
#if Wiring_LogConfig

// spark::
void spark::logProcessControlRequest(ctrl_request* req) {
    JSONRequestHandler::process(req);
}
   da982:	4770      	bx	lr
   da984:	2003e5ec 	.word	0x2003e5ec
   da988:	000deafc 	.word	0x000deafc

000da98c <_ZL22Refresh_UnixTime_Cachex>:
	return calendar_time;
}

/* Refresh Unix/RTC time cache */
static void Refresh_UnixTime_Cache(time_t unix_time)
{
   da98c:	e92d 41f0 	stmdb	sp!, {r4, r5, r6, r7, r8, lr}
    unix_time += time_zone_cache;
   da990:	4a15      	ldr	r2, [pc, #84]	; (da9e8 <_ZL22Refresh_UnixTime_Cachex+0x5c>)
    unix_time += dst_current_cache;
    if(unix_time != unix_time_cache)
   da992:	f8df 8060 	ldr.w	r8, [pc, #96]	; da9f4 <_ZL22Refresh_UnixTime_Cachex+0x68>
    unix_time += time_zone_cache;
   da996:	e9d2 3200 	ldrd	r3, r2, [r2]
   da99a:	18c0      	adds	r0, r0, r3
   da99c:	eb42 0101 	adc.w	r1, r2, r1
    unix_time += dst_current_cache;
   da9a0:	4a12      	ldr	r2, [pc, #72]	; (da9ec <_ZL22Refresh_UnixTime_Cachex+0x60>)
   da9a2:	e9d2 3200 	ldrd	r3, r2, [r2]
   da9a6:	18c6      	adds	r6, r0, r3
   da9a8:	eb41 0702 	adc.w	r7, r1, r2
    if(unix_time != unix_time_cache)
   da9ac:	e9d8 2300 	ldrd	r2, r3, [r8]
   da9b0:	42bb      	cmp	r3, r7
   da9b2:	bf08      	it	eq
   da9b4:	42b2      	cmpeq	r2, r6
{
   da9b6:	b08c      	sub	sp, #48	; 0x30
    if(unix_time != unix_time_cache)
   da9b8:	d013      	beq.n	da9e2 <_ZL22Refresh_UnixTime_Cachex+0x56>
	localtime_r(&unix_time, &calendar_time);
   da9ba:	a903      	add	r1, sp, #12
   da9bc:	4668      	mov	r0, sp
   da9be:	e9cd 6700 	strd	r6, r7, [sp]
   da9c2:	f7fe fae3 	bl	d8f8c <localtime_r>
	calendar_time.tm_year += 1900;
   da9c6:	9b08      	ldr	r3, [sp, #32]
    {
            calendar_time_cache = Convert_UnixTime_To_CalendarTime(unix_time);
   da9c8:	4d09      	ldr	r5, [pc, #36]	; (da9f0 <_ZL22Refresh_UnixTime_Cachex+0x64>)
	calendar_time.tm_year += 1900;
   da9ca:	f203 736c 	addw	r3, r3, #1900	; 0x76c
            calendar_time_cache = Convert_UnixTime_To_CalendarTime(unix_time);
   da9ce:	ac03      	add	r4, sp, #12
	calendar_time.tm_year += 1900;
   da9d0:	9308      	str	r3, [sp, #32]
            calendar_time_cache = Convert_UnixTime_To_CalendarTime(unix_time);
   da9d2:	cc0f      	ldmia	r4!, {r0, r1, r2, r3}
   da9d4:	c50f      	stmia	r5!, {r0, r1, r2, r3}
   da9d6:	cc0f      	ldmia	r4!, {r0, r1, r2, r3}
   da9d8:	c50f      	stmia	r5!, {r0, r1, r2, r3}
            unix_time_cache = unix_time;
   da9da:	e9c8 6700 	strd	r6, r7, [r8]
            calendar_time_cache = Convert_UnixTime_To_CalendarTime(unix_time);
   da9de:	6823      	ldr	r3, [r4, #0]
   da9e0:	602b      	str	r3, [r5, #0]
    }
}
   da9e2:	b00c      	add	sp, #48	; 0x30
   da9e4:	e8bd 81f0 	ldmia.w	sp!, {r4, r5, r6, r7, r8, pc}
   da9e8:	2003e620 	.word	0x2003e620
   da9ec:	2003e618 	.word	0x2003e618
   da9f0:	2003e5f4 	.word	0x2003e5f4
   da9f4:	2003e628 	.word	0x2003e628

000da9f8 <_ZN10CloudClass12syncTimeDoneEv.isra.0>:
    bool syncTimePending(void)
    {
        return connected() && spark_sync_time_pending(nullptr);
    }

    bool syncTimeDone(void)
   da9f8:	b508      	push	{r3, lr}
    {
        return !spark_sync_time_pending(nullptr) || disconnected();
   da9fa:	2000      	movs	r0, #0
   da9fc:	f7fe fa76 	bl	d8eec <spark_sync_time_pending>
   daa00:	b128      	cbz	r0, daa0e <_ZN10CloudClass12syncTimeDoneEv.isra.0+0x16>
    static void sleep(Spark_Sleep_TypeDef sleepMode, long seconds=0) __attribute__ ((deprecated("Please use System.sleep() instead.")))
    { SystemClass::sleep(sleepMode, seconds); }
    static void sleep(uint16_t wakeUpPin, InterruptMode edgeTriggerMode, long seconds=0) __attribute__ ((deprecated("Please use System.sleep() instead.")))
    { SystemClass::sleep(wakeUpPin, edgeTriggerMode, seconds); }

    static bool connected(void) { return spark_cloud_flag_connected(); }
   daa02:	f7fe fa5b 	bl	d8ebc <spark_cloud_flag_connected>
        return !spark_sync_time_pending(nullptr) || disconnected();
   daa06:	f080 0001 	eor.w	r0, r0, #1
   daa0a:	b2c0      	uxtb	r0, r0
    }
   daa0c:	bd08      	pop	{r3, pc}
        return !spark_sync_time_pending(nullptr) || disconnected();
   daa0e:	2001      	movs	r0, #1
   daa10:	e7fc      	b.n	daa0c <_ZN10CloudClass12syncTimeDoneEv.isra.0+0x14>
	...

000daa14 <_ZN9TimeClass5monthEx>:
	return month(now());
}

/* the month for the given time */
int TimeClass::month(time_t t)
{
   daa14:	b508      	push	{r3, lr}
	Refresh_UnixTime_Cache(t);
   daa16:	f7ff ffb9 	bl	da98c <_ZL22Refresh_UnixTime_Cachex>
	return (calendar_time_cache.tm_mon + 1);//Arduino's month representation
   daa1a:	4b02      	ldr	r3, [pc, #8]	; (daa24 <_ZN9TimeClass5monthEx+0x10>)
   daa1c:	6918      	ldr	r0, [r3, #16]
}
   daa1e:	3001      	adds	r0, #1
   daa20:	bd08      	pop	{r3, pc}
   daa22:	bf00      	nop
   daa24:	2003e5f4 	.word	0x2003e5f4

000daa28 <_ZN9TimeClass7isValidEv>:
    strftime(buf, sizeof(buf), format_str, calendar_time);
    return String(buf);
}

bool TimeClass::isValid()
{
   daa28:	b510      	push	{r4, lr}
    bool rtcstate = hal_rtc_time_is_valid(nullptr);
   daa2a:	2000      	movs	r0, #0
   daa2c:	f7fd ff72 	bl	d8914 <hal_rtc_time_is_valid>
    if (rtcstate)
   daa30:	4604      	mov	r4, r0
   daa32:	b9a0      	cbnz	r0, daa5e <_ZN9TimeClass7isValidEv+0x36>
    }

    static System_Mode_TypeDef mode(void) {
        return system_mode();
   daa34:	f7fe f98e 	bl	d8d54 <system_mode>
        return rtcstate;
    if (System.mode() == AUTOMATIC && system_thread_get_state(nullptr) == spark::feature::DISABLED)
   daa38:	2801      	cmp	r0, #1
   daa3a:	d110      	bne.n	daa5e <_ZN9TimeClass7isValidEv+0x36>
   daa3c:	4620      	mov	r0, r4
   daa3e:	f7fe f9a9 	bl	d8d94 <system_thread_get_state>
   daa42:	b960      	cbnz	r0, daa5e <_ZN9TimeClass7isValidEv+0x36>
    {
        waitUntil(Particle.syncTimeDone);
   daa44:	f7ff ffd8 	bl	da9f8 <_ZN10CloudClass12syncTimeDoneEv.isra.0>

    static uint32_t freeMemory();

    template<typename Condition, typename While>
    static bool waitConditionWhile(Condition _condition, While _while) {
        while (_while() && !_condition()) {
   daa48:	b910      	cbnz	r0, daa50 <_ZN9TimeClass7isValidEv+0x28>
            spark_process();
   daa4a:	f7fe fa2f 	bl	d8eac <spark_process>
        while (_while() && !_condition()) {
   daa4e:	e7f9      	b.n	daa44 <_ZN9TimeClass7isValidEv+0x1c>
   daa50:	f7ff ffd2 	bl	da9f8 <_ZN10CloudClass12syncTimeDoneEv.isra.0>
        return hal_rtc_time_is_valid(nullptr);
    }
    return rtcstate;
}
   daa54:	e8bd 4010 	ldmia.w	sp!, {r4, lr}
        return hal_rtc_time_is_valid(nullptr);
   daa58:	2000      	movs	r0, #0
   daa5a:	f7fd bf5b 	b.w	d8914 <hal_rtc_time_is_valid>
}
   daa5e:	4620      	mov	r0, r4
   daa60:	bd10      	pop	{r4, pc}

000daa62 <_ZN9TimeClass3nowEv>:
{
   daa62:	b51f      	push	{r0, r1, r2, r3, r4, lr}
    (void)isValid();
   daa64:	f7ff ffe0 	bl	daa28 <_ZN9TimeClass7isValidEv>
    struct timeval tv = {};
   daa68:	2210      	movs	r2, #16
   daa6a:	2100      	movs	r1, #0
   daa6c:	4668      	mov	r0, sp
   daa6e:	f003 f8ff 	bl	ddc70 <memset>
    hal_rtc_get_time(&tv, nullptr);
   daa72:	2100      	movs	r1, #0
   daa74:	4668      	mov	r0, sp
   daa76:	f7fd ff5d 	bl	d8934 <hal_rtc_get_time>
}
   daa7a:	9800      	ldr	r0, [sp, #0]
   daa7c:	b005      	add	sp, #20
   daa7e:	f85d fb04 	ldr.w	pc, [sp], #4
	...

000daa84 <_ZN9TimeClass4hourEv>:
{
   daa84:	b508      	push	{r3, lr}
	return hour(now());
   daa86:	f7ff ffec 	bl	daa62 <_ZN9TimeClass3nowEv>
	Refresh_UnixTime_Cache(t);
   daa8a:	17c1      	asrs	r1, r0, #31
   daa8c:	f7ff ff7e 	bl	da98c <_ZL22Refresh_UnixTime_Cachex>
}
   daa90:	4b01      	ldr	r3, [pc, #4]	; (daa98 <_ZN9TimeClass4hourEv+0x14>)
   daa92:	6898      	ldr	r0, [r3, #8]
   daa94:	bd08      	pop	{r3, pc}
   daa96:	bf00      	nop
   daa98:	2003e5f4 	.word	0x2003e5f4

000daa9c <_ZN9TimeClass6minuteEv>:
{
   daa9c:	b508      	push	{r3, lr}
	return minute(now());
   daa9e:	f7ff ffe0 	bl	daa62 <_ZN9TimeClass3nowEv>
	Refresh_UnixTime_Cache(t);
   daaa2:	17c1      	asrs	r1, r0, #31
   daaa4:	f7ff ff72 	bl	da98c <_ZL22Refresh_UnixTime_Cachex>
}
   daaa8:	4b01      	ldr	r3, [pc, #4]	; (daab0 <_ZN9TimeClass6minuteEv+0x14>)
   daaaa:	6858      	ldr	r0, [r3, #4]
   daaac:	bd08      	pop	{r3, pc}
   daaae:	bf00      	nop
   daab0:	2003e5f4 	.word	0x2003e5f4

000daab4 <_ZN9TimeClass6secondEv>:
{
   daab4:	b508      	push	{r3, lr}
	return second(now());
   daab6:	f7ff ffd4 	bl	daa62 <_ZN9TimeClass3nowEv>
	Refresh_UnixTime_Cache(t);
   daaba:	17c1      	asrs	r1, r0, #31
   daabc:	f7ff ff66 	bl	da98c <_ZL22Refresh_UnixTime_Cachex>
}
   daac0:	4b01      	ldr	r3, [pc, #4]	; (daac8 <_ZN9TimeClass6secondEv+0x14>)
   daac2:	6818      	ldr	r0, [r3, #0]
   daac4:	bd08      	pop	{r3, pc}
   daac6:	bf00      	nop
   daac8:	2003e5f4 	.word	0x2003e5f4

000daacc <_ZN9TimeClass3dayEv>:
{
   daacc:	b508      	push	{r3, lr}
	return day(now());
   daace:	f7ff ffc8 	bl	daa62 <_ZN9TimeClass3nowEv>
	Refresh_UnixTime_Cache(t);
   daad2:	17c1      	asrs	r1, r0, #31
   daad4:	f7ff ff5a 	bl	da98c <_ZL22Refresh_UnixTime_Cachex>
}
   daad8:	4b01      	ldr	r3, [pc, #4]	; (daae0 <_ZN9TimeClass3dayEv+0x14>)
   daada:	68d8      	ldr	r0, [r3, #12]
   daadc:	bd08      	pop	{r3, pc}
   daade:	bf00      	nop
   daae0:	2003e5f4 	.word	0x2003e5f4

000daae4 <_ZN9TimeClass5monthEv>:
{
   daae4:	b508      	push	{r3, lr}
	return month(now());
   daae6:	f7ff ffbc 	bl	daa62 <_ZN9TimeClass3nowEv>
}
   daaea:	e8bd 4008 	ldmia.w	sp!, {r3, lr}
	return month(now());
   daaee:	17c1      	asrs	r1, r0, #31
   daaf0:	f7ff bf90 	b.w	daa14 <_ZN9TimeClass5monthEx>

000daaf4 <_ZN9TimeClass4yearEv>:
{
   daaf4:	b508      	push	{r3, lr}
	return year(now());
   daaf6:	f7ff ffb4 	bl	daa62 <_ZN9TimeClass3nowEv>
	Refresh_UnixTime_Cache(t);
   daafa:	17c1      	asrs	r1, r0, #31
   daafc:	f7ff ff46 	bl	da98c <_ZL22Refresh_UnixTime_Cachex>
}
   dab00:	4b01      	ldr	r3, [pc, #4]	; (dab08 <_ZN9TimeClass4yearEv+0x14>)
   dab02:	6958      	ldr	r0, [r3, #20]
   dab04:	bd08      	pop	{r3, pc}
   dab06:	bf00      	nop
   dab08:	2003e5f4 	.word	0x2003e5f4

000dab0c <_GLOBAL__sub_I_TIME_FORMAT_DEFAULT>:
const char* TimeClass::format_spec = TIME_FORMAT_DEFAULT;
   dab0c:	4b02      	ldr	r3, [pc, #8]	; (dab18 <_GLOBAL__sub_I_TIME_FORMAT_DEFAULT+0xc>)
   dab0e:	681a      	ldr	r2, [r3, #0]
   dab10:	4b02      	ldr	r3, [pc, #8]	; (dab1c <_GLOBAL__sub_I_TIME_FORMAT_DEFAULT+0x10>)
   dab12:	601a      	str	r2, [r3, #0]
{
  return isValid();
}


TimeClass Time;
   dab14:	4770      	bx	lr
   dab16:	bf00      	nop
   dab18:	2003ddb0 	.word	0x2003ddb0
   dab1c:	2003e5f0 	.word	0x2003e5f0

000dab20 <delay>:
    return (value - fromStart) * (toEnd - toStart) / (fromEnd - fromStart) + toStart;
}

void delay(unsigned long ms)
{
    system_delay_ms(ms, false);
   dab20:	2100      	movs	r1, #0
   dab22:	f7fe b927 	b.w	d8d74 <system_delay_ms>

000dab26 <_ZN8RGBClassD1Ev>:
#include "rgbled.h"

typedef void (raw_rgb_change_handler_t)(uint8_t, uint8_t, uint8_t);
typedef std::function<raw_rgb_change_handler_t> wiring_rgb_change_handler_t;

class RGBClass {
   dab26:	b510      	push	{r4, lr}
   dab28:	4604      	mov	r4, r0
    class function<_Res(_ArgTypes...)>
   dab2a:	f7fe fd6a 	bl	d9602 <_ZNSt14_Function_baseD1Ev>
   dab2e:	4620      	mov	r0, r4
   dab30:	bd10      	pop	{r4, pc}
	...

000dab34 <_GLOBAL__sub_I_RGB>:
    _Function_base() : _M_manager(nullptr) { }
   dab34:	4803      	ldr	r0, [pc, #12]	; (dab44 <_GLOBAL__sub_I_RGB+0x10>)
#include "spark_wiring_rgb.h"
#include "spark_wiring_interrupts.h"

#include "core_hal.h"

RGBClass RGB;
   dab36:	4a04      	ldr	r2, [pc, #16]	; (dab48 <_GLOBAL__sub_I_RGB+0x14>)
   dab38:	4904      	ldr	r1, [pc, #16]	; (dab4c <_GLOBAL__sub_I_RGB+0x18>)
   dab3a:	2300      	movs	r3, #0
   dab3c:	6083      	str	r3, [r0, #8]
   dab3e:	f000 bdcd 	b.w	db6dc <__aeabi_atexit>
   dab42:	bf00      	nop
   dab44:	2003e630 	.word	0x2003e630
   dab48:	2003de20 	.word	0x2003de20
   dab4c:	000dab27 	.word	0x000dab27

000dab50 <_ZN14CellularSignalD1Ev>:
 */
class CellularSignal : public particle::Signal, public Printable {
public:
    CellularSignal() {}
    CellularSignal(const cellular_signal_t& sig);
    virtual ~CellularSignal() {};
   dab50:	4770      	bx	lr

000dab52 <_ZNK14CellularSignal19getAccessTechnologyEv>:
}

hal_net_access_tech_t CellularSignal::getAccessTechnology() const
{
    return static_cast<hal_net_access_tech_t>(sig_.rat);
}
   dab52:	7b00      	ldrb	r0, [r0, #12]
   dab54:	4770      	bx	lr

000dab56 <_ZNK14CellularSignal7isValidEv>:
}

bool CellularSignal::isValid() const
{
    return (sig_.rat != NET_ACCESS_TECHNOLOGY_NONE &&
            sig_.rssi != std::numeric_limits<int32_t>::min() &&
   dab56:	7b03      	ldrb	r3, [r0, #12]
   dab58:	b14b      	cbz	r3, dab6e <_ZNK14CellularSignal7isValidEv+0x18>
    return (sig_.rat != NET_ACCESS_TECHNOLOGY_NONE &&
   dab5a:	6903      	ldr	r3, [r0, #16]
   dab5c:	f1b3 4f00 	cmp.w	r3, #2147483648	; 0x80000000
   dab60:	d005      	beq.n	dab6e <_ZNK14CellularSignal7isValidEv+0x18>
            sig_.rssi != std::numeric_limits<int32_t>::min() &&
   dab62:	6980      	ldr	r0, [r0, #24]
   dab64:	f1b0 4000 	subs.w	r0, r0, #2147483648	; 0x80000000
   dab68:	bf18      	it	ne
   dab6a:	2001      	movne	r0, #1
   dab6c:	4770      	bx	lr
   dab6e:	2000      	movs	r0, #0
            // Hence, `isValid()` can return "true" for invalid signal value. To add a note in docs.
            (sig_.rat == NET_ACCESS_TECHNOLOGY_GSM || sig_.qual != std::numeric_limits<int32_t>::min()));
#else
            sig_.qual != std::numeric_limits<int32_t>::min());
#endif
}
   dab70:	4770      	bx	lr

000dab72 <_ZNK14CellularSignalcvbEv>:

CellularSignal::operator bool() const
{
    return isValid();
   dab72:	6803      	ldr	r3, [r0, #0]
   dab74:	6a1b      	ldr	r3, [r3, #32]
   dab76:	4718      	bx	r3

000dab78 <_ZNK14CellularSignal7printToER5Print>:
{
   dab78:	b570      	push	{r4, r5, r6, lr}
    n += p.print(this->getStrengthValue(), 2);
   dab7a:	6803      	ldr	r3, [r0, #0]
{
   dab7c:	460d      	mov	r5, r1
    n += p.print(this->getStrengthValue(), 2);
   dab7e:	691b      	ldr	r3, [r3, #16]
{
   dab80:	4606      	mov	r6, r0
    n += p.print(this->getStrengthValue(), 2);
   dab82:	4798      	blx	r3
   dab84:	2102      	movs	r1, #2
   dab86:	4628      	mov	r0, r5
   dab88:	f7ff feb8 	bl	da8fc <_ZN5Print5printEfi>
    n += p.print(',');
   dab8c:	212c      	movs	r1, #44	; 0x2c
    n += p.print(this->getStrengthValue(), 2);
   dab8e:	4604      	mov	r4, r0
    n += p.print(',');
   dab90:	4628      	mov	r0, r5
   dab92:	f7ff fdb3 	bl	da6fc <_ZN5Print5printEc>
    n += p.print(this->getQualityValue(), 2);
   dab96:	6833      	ldr	r3, [r6, #0]
    n += p.print(',');
   dab98:	4404      	add	r4, r0
    n += p.print(this->getQualityValue(), 2);
   dab9a:	699b      	ldr	r3, [r3, #24]
   dab9c:	4630      	mov	r0, r6
   dab9e:	4798      	blx	r3
   daba0:	2102      	movs	r1, #2
   daba2:	4628      	mov	r0, r5
   daba4:	f7ff feaa 	bl	da8fc <_ZN5Print5printEfi>
}
   daba8:	4420      	add	r0, r4
   dabaa:	bd70      	pop	{r4, r5, r6, pc}

000dabac <_ZThn4_NK14CellularSignal7printToER5Print>:
    virtual float getStrength() const;
    virtual float getStrengthValue() const;
    virtual float getQuality() const;
    virtual float getQualityValue() const;

    virtual size_t printTo(Print& p) const;
   dabac:	f1a0 0004 	sub.w	r0, r0, #4
   dabb0:	f7ff bfe2 	b.w	dab78 <_ZNK14CellularSignal7printToER5Print>

000dabb4 <_ZN14CellularSignalD0Ev>:
    virtual ~CellularSignal() {};
   dabb4:	b510      	push	{r4, lr}
   dabb6:	2120      	movs	r1, #32
   dabb8:	4604      	mov	r4, r0
   dabba:	f000 fd94 	bl	db6e6 <_ZdlPvj>
   dabbe:	4620      	mov	r0, r4
   dabc0:	bd10      	pop	{r4, pc}
	...

000dabc4 <_ZNK14CellularSignal11getStrengthEv>:
    if (sig_.rat != NET_ACCESS_TECHNOLOGY_NONE && sig_.strength >= 0) {
   dabc4:	7b03      	ldrb	r3, [r0, #12]
   dabc6:	b17b      	cbz	r3, dabe8 <_ZNK14CellularSignal11getStrengthEv+0x24>
   dabc8:	6943      	ldr	r3, [r0, #20]
   dabca:	2b00      	cmp	r3, #0
   dabcc:	db0c      	blt.n	dabe8 <_ZNK14CellularSignal11getStrengthEv+0x24>
        return (float)sig_.strength / 65535.0f * 100.0f;
   dabce:	ee07 3a90 	vmov	s15, r3
   dabd2:	ed9f 7a07 	vldr	s14, [pc, #28]	; dabf0 <_ZNK14CellularSignal11getStrengthEv+0x2c>
   dabd6:	eef8 7ae7 	vcvt.f32.s32	s15, s15
   dabda:	ee87 0a87 	vdiv.f32	s0, s15, s14
   dabde:	eddf 7a05 	vldr	s15, [pc, #20]	; dabf4 <_ZNK14CellularSignal11getStrengthEv+0x30>
   dabe2:	ee20 0a27 	vmul.f32	s0, s0, s15
   dabe6:	4770      	bx	lr
    return -1.0f;
   dabe8:	eebf 0a00 	vmov.f32	s0, #240	; 0xbf800000 -1.0
}
   dabec:	4770      	bx	lr
   dabee:	bf00      	nop
   dabf0:	477fff00 	.word	0x477fff00
   dabf4:	42c80000 	.word	0x42c80000

000dabf8 <_ZNK14CellularSignal16getStrengthValueEv>:
    if (sig_.rat != NET_ACCESS_TECHNOLOGY_NONE && sig_.rssi != std::numeric_limits<int32_t>::min()) {
   dabf8:	7b03      	ldrb	r3, [r0, #12]
   dabfa:	b163      	cbz	r3, dac16 <_ZNK14CellularSignal16getStrengthValueEv+0x1e>
   dabfc:	6903      	ldr	r3, [r0, #16]
   dabfe:	f1b3 4f00 	cmp.w	r3, #2147483648	; 0x80000000
   dac02:	d008      	beq.n	dac16 <_ZNK14CellularSignal16getStrengthValueEv+0x1e>
        return (float)sig_.rssi / 100.0f;
   dac04:	ee07 3a90 	vmov	s15, r3
   dac08:	ed9f 7a04 	vldr	s14, [pc, #16]	; dac1c <_ZNK14CellularSignal16getStrengthValueEv+0x24>
   dac0c:	eef8 7ae7 	vcvt.f32.s32	s15, s15
   dac10:	ee87 0a87 	vdiv.f32	s0, s15, s14
   dac14:	4770      	bx	lr
    return 0.0f;
   dac16:	ed9f 0a02 	vldr	s0, [pc, #8]	; dac20 <_ZNK14CellularSignal16getStrengthValueEv+0x28>
}
   dac1a:	4770      	bx	lr
   dac1c:	42c80000 	.word	0x42c80000
   dac20:	00000000 	.word	0x00000000

000dac24 <_ZNK14CellularSignal10getQualityEv>:
    if (sig_.rat != NET_ACCESS_TECHNOLOGY_NONE && sig_.quality >= 0) {
   dac24:	7b03      	ldrb	r3, [r0, #12]
   dac26:	b17b      	cbz	r3, dac48 <_ZNK14CellularSignal10getQualityEv+0x24>
   dac28:	69c3      	ldr	r3, [r0, #28]
   dac2a:	2b00      	cmp	r3, #0
   dac2c:	db0c      	blt.n	dac48 <_ZNK14CellularSignal10getQualityEv+0x24>
        return (float)sig_.quality / 65535.0f * 100.0f;
   dac2e:	ee07 3a90 	vmov	s15, r3
   dac32:	ed9f 7a07 	vldr	s14, [pc, #28]	; dac50 <_ZNK14CellularSignal10getQualityEv+0x2c>
   dac36:	eef8 7ae7 	vcvt.f32.s32	s15, s15
   dac3a:	ee87 0a87 	vdiv.f32	s0, s15, s14
   dac3e:	eddf 7a05 	vldr	s15, [pc, #20]	; dac54 <_ZNK14CellularSignal10getQualityEv+0x30>
   dac42:	ee20 0a27 	vmul.f32	s0, s0, s15
   dac46:	4770      	bx	lr
    return -1.0f;
   dac48:	eebf 0a00 	vmov.f32	s0, #240	; 0xbf800000 -1.0
}
   dac4c:	4770      	bx	lr
   dac4e:	bf00      	nop
   dac50:	477fff00 	.word	0x477fff00
   dac54:	42c80000 	.word	0x42c80000

000dac58 <_ZNK14CellularSignal15getQualityValueEv>:
    if (sig_.rat != NET_ACCESS_TECHNOLOGY_NONE && sig_.qual != std::numeric_limits<int32_t>::min()) {
   dac58:	7b03      	ldrb	r3, [r0, #12]
   dac5a:	b163      	cbz	r3, dac76 <_ZNK14CellularSignal15getQualityValueEv+0x1e>
   dac5c:	6983      	ldr	r3, [r0, #24]
   dac5e:	f1b3 4f00 	cmp.w	r3, #2147483648	; 0x80000000
   dac62:	d008      	beq.n	dac76 <_ZNK14CellularSignal15getQualityValueEv+0x1e>
        return (float)sig_.qual / 100.0f;
   dac64:	ee07 3a90 	vmov	s15, r3
   dac68:	ed9f 7a04 	vldr	s14, [pc, #16]	; dac7c <_ZNK14CellularSignal15getQualityValueEv+0x24>
   dac6c:	eef8 7ae7 	vcvt.f32.s32	s15, s15
   dac70:	ee87 0a87 	vdiv.f32	s0, s15, s14
   dac74:	4770      	bx	lr
    return 0.0f;
   dac76:	ed9f 0a02 	vldr	s0, [pc, #8]	; dac80 <_ZNK14CellularSignal15getQualityValueEv+0x28>
}
   dac7a:	4770      	bx	lr
   dac7c:	42c80000 	.word	0x42c80000
   dac80:	00000000 	.word	0x00000000

000dac84 <_ZN14CellularSignal21fromHalCellularSignalERK17cellular_signal_t>:
{
   dac84:	b530      	push	{r4, r5, lr}
    sig_ = sig;
   dac86:	460d      	mov	r5, r1
   dac88:	f100 0408 	add.w	r4, r0, #8
   dac8c:	cd0f      	ldmia	r5!, {r0, r1, r2, r3}
   dac8e:	c40f      	stmia	r4!, {r0, r1, r2, r3}
   dac90:	e895 0003 	ldmia.w	r5, {r0, r1}
   dac94:	e884 0003 	stmia.w	r4, {r0, r1}
}
   dac98:	2001      	movs	r0, #1
   dac9a:	bd30      	pop	{r4, r5, pc}

000dac9c <_ZN9FuelGauge4lockEv>:
    CHECK_TRUE(i2c_.endTransmission(true) == 0, SYSTEM_ERROR_TIMEOUT);
    return SYSTEM_ERROR_NONE;
}

bool FuelGauge::lock() {
    return i2c_.lock();
   dac9c:	6800      	ldr	r0, [r0, #0]
   dac9e:	f000 bb44 	b.w	db32a <_ZN7TwoWire4lockEv>

000daca2 <_ZN9FuelGaugeC1ER7TwoWireb>:
FuelGauge::FuelGauge(TwoWire& i2c, bool _lock)
   daca2:	b510      	push	{r4, lr}
   daca4:	4604      	mov	r4, r0
      lock_(_lock) {
   daca6:	6001      	str	r1, [r0, #0]
   daca8:	7102      	strb	r2, [r0, #4]
    if (lock_) {
   dacaa:	b10a      	cbz	r2, dacb0 <_ZN9FuelGaugeC1ER7TwoWireb+0xe>
        lock();
   dacac:	f7ff fff6 	bl	dac9c <_ZN9FuelGauge4lockEv>
}
   dacb0:	4620      	mov	r0, r4
   dacb2:	bd10      	pop	{r4, pc}

000dacb4 <_ZN9FuelGaugeC1Eb>:
FuelGauge::FuelGauge(bool _lock)
   dacb4:	b513      	push	{r0, r1, r4, lr}
   dacb6:	4604      	mov	r4, r0
   dacb8:	9101      	str	r1, [sp, #4]
            return &Wire1;
   dacba:	f000 fce7 	bl	db68c <_Z20__fetch_global_Wire1v>
        : FuelGauge(*fuelWireInstance(), _lock)
   dacbe:	9a01      	ldr	r2, [sp, #4]
            return &Wire1;
   dacc0:	4601      	mov	r1, r0
        : FuelGauge(*fuelWireInstance(), _lock)
   dacc2:	4620      	mov	r0, r4
   dacc4:	f7ff ffed 	bl	daca2 <_ZN9FuelGaugeC1ER7TwoWireb>
}
   dacc8:	4620      	mov	r0, r4
   dacca:	b002      	add	sp, #8
   daccc:	bd10      	pop	{r4, pc}

000dacce <_ZN9FuelGauge6unlockEv>:
}

bool FuelGauge::unlock() {
    return i2c_.unlock();
   dacce:	6800      	ldr	r0, [r0, #0]
   dacd0:	f000 bb34 	b.w	db33c <_ZN7TwoWire6unlockEv>

000dacd4 <_ZN9FuelGaugeD1Ev>:
FuelGauge::~FuelGauge()
   dacd4:	b510      	push	{r4, lr}
    if (lock_) {
   dacd6:	7903      	ldrb	r3, [r0, #4]
FuelGauge::~FuelGauge()
   dacd8:	4604      	mov	r4, r0
    if (lock_) {
   dacda:	b10b      	cbz	r3, dace0 <_ZN9FuelGaugeD1Ev+0xc>
        unlock();
   dacdc:	f7ff fff7 	bl	dacce <_ZN9FuelGauge6unlockEv>
}
   dace0:	4620      	mov	r0, r4
   dace2:	bd10      	pop	{r4, pc}

000dace4 <_ZZ21module_user_init_hookENUlP6_reentjmPvE_4_FUNES0_jmS1_>:

void module_user_init_hook()
{
#if HAL_PLATFORM_NEWLIB
    newlib_impure_ptr_callback([](struct _reent* r, size_t size, uint32_t version, void* ctx) -> void {
        _impure_ptr = r;
   dace4:	4b01      	ldr	r3, [pc, #4]	; (dacec <_ZZ21module_user_init_hookENUlP6_reentjmPvE_4_FUNES0_jmS1_+0x8>)
   dace6:	6018      	str	r0, [r3, #0]
    }, nullptr);
   dace8:	4770      	bx	lr
   dacea:	bf00      	nop
   dacec:	2003ddb8 	.word	0x2003ddb8

000dacf0 <serialEventRun>:
{
   dacf0:	b508      	push	{r3, lr}
    if (serialEvent && Serial.available()>0)
   dacf2:	4b0b      	ldr	r3, [pc, #44]	; (dad20 <serialEventRun+0x30>)
   dacf4:	b143      	cbz	r3, dad08 <serialEventRun+0x18>
   dacf6:	f000 f97f 	bl	daff8 <_Z16_fetch_usbserialv>
   dacfa:	6803      	ldr	r3, [r0, #0]
   dacfc:	691b      	ldr	r3, [r3, #16]
   dacfe:	4798      	blx	r3
   dad00:	2800      	cmp	r0, #0
   dad02:	dd01      	ble.n	dad08 <serialEventRun+0x18>
        serialEvent();
   dad04:	f3af 8000 	nop.w
    if (serialEvent1 && Serial1.available()>0)
   dad08:	4b06      	ldr	r3, [pc, #24]	; (dad24 <serialEventRun+0x34>)
   dad0a:	b143      	cbz	r3, dad1e <serialEventRun+0x2e>
   dad0c:	f000 fa68 	bl	db1e0 <_Z22__fetch_global_Serial1v>
   dad10:	6803      	ldr	r3, [r0, #0]
   dad12:	691b      	ldr	r3, [r3, #16]
   dad14:	4798      	blx	r3
   dad16:	2800      	cmp	r0, #0
   dad18:	dd01      	ble.n	dad1e <serialEventRun+0x2e>
        serialEvent1();
   dad1a:	f3af 8000 	nop.w
}
   dad1e:	bd08      	pop	{r3, pc}
	...

000dad28 <_post_loop>:
{
   dad28:	b508      	push	{r3, lr}
	serialEventRun();
   dad2a:	f7ff ffe1 	bl	dacf0 <serialEventRun>
		return !timeout_fn;
	}

	static inline system_tick_t current_time()
	{
		return HAL_Timer_Get_Milli_Seconds();
   dad2e:	f7fd fdd1 	bl	d88d4 <HAL_Timer_Get_Milli_Seconds>
	/**
	 * Lifesign that the application is still working normally.
	 */
	static void checkin()
	{
		last_checkin = current_time();
   dad32:	4b01      	ldr	r3, [pc, #4]	; (dad38 <_post_loop+0x10>)
   dad34:	6018      	str	r0, [r3, #0]
}
   dad36:	bd08      	pop	{r3, pc}
   dad38:	2003e7b8 	.word	0x2003e7b8

000dad3c <_Z33system_initialize_user_backup_ramv>:
    memcpy(&link_global_retained_start, &link_global_retained_initial_values, len);
   dad3c:	4802      	ldr	r0, [pc, #8]	; (dad48 <_Z33system_initialize_user_backup_ramv+0xc>)
   dad3e:	4a03      	ldr	r2, [pc, #12]	; (dad4c <_Z33system_initialize_user_backup_ramv+0x10>)
   dad40:	4903      	ldr	r1, [pc, #12]	; (dad50 <_Z33system_initialize_user_backup_ramv+0x14>)
   dad42:	1a12      	subs	r2, r2, r0
   dad44:	f002 bf6c 	b.w	ddc20 <memcpy>
   dad48:	2003f400 	.word	0x2003f400
   dad4c:	2003f404 	.word	0x2003f404
   dad50:	000deeb8 	.word	0x000deeb8

000dad54 <_Z27ctrl_request_custom_handlerP12ctrl_request>:
void __attribute((weak)) ctrl_request_custom_handler(ctrl_request* req) {
   dad54:	b507      	push	{r0, r1, r2, lr}
    system_ctrl_set_result(req, SYSTEM_ERROR_NOT_SUPPORTED, nullptr, nullptr, nullptr);
   dad56:	2300      	movs	r3, #0
   dad58:	9300      	str	r3, [sp, #0]
   dad5a:	461a      	mov	r2, r3
   dad5c:	f06f 0177 	mvn.w	r1, #119	; 0x77
   dad60:	f7fe f82a 	bl	d8db8 <system_ctrl_set_result>
}
   dad64:	b003      	add	sp, #12
   dad66:	f85d fb04 	ldr.w	pc, [sp], #4
	...

000dad6c <_ZL20ctrl_request_handlerP12ctrl_request>:
static void ctrl_request_handler(ctrl_request* req) {
   dad6c:	b507      	push	{r0, r1, r2, lr}
    switch (req->type) {
   dad6e:	8843      	ldrh	r3, [r0, #2]
   dad70:	2b0a      	cmp	r3, #10
   dad72:	d008      	beq.n	dad86 <_ZL20ctrl_request_handlerP12ctrl_request+0x1a>
   dad74:	2b50      	cmp	r3, #80	; 0x50
   dad76:	d10b      	bne.n	dad90 <_ZL20ctrl_request_handlerP12ctrl_request+0x24>
        if (log_process_ctrl_request_callback) {
   dad78:	4b09      	ldr	r3, [pc, #36]	; (dada0 <_ZL20ctrl_request_handlerP12ctrl_request+0x34>)
   dad7a:	681b      	ldr	r3, [r3, #0]
   dad7c:	b14b      	cbz	r3, dad92 <_ZL20ctrl_request_handlerP12ctrl_request+0x26>
}
   dad7e:	b003      	add	sp, #12
   dad80:	f85d eb04 	ldr.w	lr, [sp], #4
            log_process_ctrl_request_callback(req);
   dad84:	4718      	bx	r3
        ctrl_request_custom_handler(req);
   dad86:	f7ff ffe5 	bl	dad54 <_Z27ctrl_request_custom_handlerP12ctrl_request>
}
   dad8a:	b003      	add	sp, #12
   dad8c:	f85d fb04 	ldr.w	pc, [sp], #4
        system_ctrl_set_result(req, SYSTEM_ERROR_NOT_SUPPORTED, nullptr, nullptr, nullptr);
   dad90:	2300      	movs	r3, #0
   dad92:	9300      	str	r3, [sp, #0]
   dad94:	461a      	mov	r2, r3
   dad96:	f06f 0177 	mvn.w	r1, #119	; 0x77
   dad9a:	f7fe f80d 	bl	d8db8 <system_ctrl_set_result>
}
   dad9e:	e7f4      	b.n	dad8a <_ZL20ctrl_request_handlerP12ctrl_request+0x1e>
   dada0:	2003e644 	.word	0x2003e644

000dada4 <module_user_init_hook>:
{
   dada4:	b538      	push	{r3, r4, r5, lr}
#endif // HAL_PLATFORM_NEWLIB

#if HAL_PLATFORM_BACKUP_RAM
    backup_ram_was_valid_ =  __backup_sram_signature==signature;
   dada6:	4c12      	ldr	r4, [pc, #72]	; (dadf0 <module_user_init_hook+0x4c>)
    newlib_impure_ptr_callback([](struct _reent* r, size_t size, uint32_t version, void* ctx) -> void {
   dada8:	4812      	ldr	r0, [pc, #72]	; (dadf4 <module_user_init_hook+0x50>)
    backup_ram_was_valid_ =  __backup_sram_signature==signature;
   dadaa:	4d13      	ldr	r5, [pc, #76]	; (dadf8 <module_user_init_hook+0x54>)
    newlib_impure_ptr_callback([](struct _reent* r, size_t size, uint32_t version, void* ctx) -> void {
   dadac:	2100      	movs	r1, #0
   dadae:	f7fe f8e5 	bl	d8f7c <newlib_impure_ptr_callback>
    backup_ram_was_valid_ =  __backup_sram_signature==signature;
   dadb2:	6823      	ldr	r3, [r4, #0]
   dadb4:	42ab      	cmp	r3, r5
   dadb6:	4b11      	ldr	r3, [pc, #68]	; (dadfc <module_user_init_hook+0x58>)
   dadb8:	bf0c      	ite	eq
   dadba:	2201      	moveq	r2, #1
   dadbc:	2200      	movne	r2, #0
   dadbe:	701a      	strb	r2, [r3, #0]
    if (!backup_ram_was_valid_) {
   dadc0:	d002      	beq.n	dadc8 <module_user_init_hook+0x24>
        system_initialize_user_backup_ram();
   dadc2:	f7ff ffbb 	bl	dad3c <_Z33system_initialize_user_backup_ramv>
        __backup_sram_signature = signature;
   dadc6:	6025      	str	r5, [r4, #0]
    }
#endif

#if HAL_PLATFORM_RNG
    // Initialize the default stdlib PRNG using hardware RNG as a seed
    const uint32_t seed = HAL_RNG_GetRandomNumber();
   dadc8:	f7fd fd6c 	bl	d88a4 <HAL_RNG_GetRandomNumber>
   dadcc:	4604      	mov	r4, r0
    srand(seed);
   dadce:	f002 ff57 	bl	ddc80 <srand>

    // If the user defines random_seed_from_cloud, call it with a seed value
    // generated by a hardware RNG as well.
    if (random_seed_from_cloud) {
   dadd2:	4b0b      	ldr	r3, [pc, #44]	; (dae00 <module_user_init_hook+0x5c>)
   dadd4:	b113      	cbz	r3, daddc <module_user_init_hook+0x38>
        random_seed_from_cloud(seed);
   dadd6:	4620      	mov	r0, r4
   dadd8:	f3af 8000 	nop.w
    }
#endif
    // Register the random_seed_from_cloud handler
    spark_set_random_seed_from_cloud_handler(&random_seed_from_cloud, nullptr);
   daddc:	2100      	movs	r1, #0
   dadde:	4808      	ldr	r0, [pc, #32]	; (dae00 <module_user_init_hook+0x5c>)
   dade0:	f7fe f894 	bl	d8f0c <spark_set_random_seed_from_cloud_handler>

    // Register application handler for the control requests
    system_ctrl_set_app_request_handler(ctrl_request_handler, nullptr);
}
   dade4:	e8bd 4038 	ldmia.w	sp!, {r3, r4, r5, lr}
    system_ctrl_set_app_request_handler(ctrl_request_handler, nullptr);
   dade8:	4806      	ldr	r0, [pc, #24]	; (dae04 <module_user_init_hook+0x60>)
   dadea:	2100      	movs	r1, #0
   dadec:	f7fd bfda 	b.w	d8da4 <system_ctrl_set_app_request_handler>
   dadf0:	2003f400 	.word	0x2003f400
   dadf4:	000dace5 	.word	0x000dace5
   dadf8:	9a271c1e 	.word	0x9a271c1e
   dadfc:	2003e640 	.word	0x2003e640
   dae00:	00000000 	.word	0x00000000
   dae04:	000dad6d 	.word	0x000dad6d

000dae08 <_ZN10CloudClass22call_raw_user_functionEPvPKcS0_>:
{
    return CloudDisconnectOptions(options->flags, options->timeout, options->graceful);
}

int CloudClass::call_raw_user_function(void* data, const char* param, void* reserved)
{
   dae08:	b510      	push	{r4, lr}
   dae0a:	b088      	sub	sp, #32
   dae0c:	4604      	mov	r4, r0
    user_function_int_str_t* fn = (user_function_int_str_t*)(data);
    String p(param);
   dae0e:	4668      	mov	r0, sp
   dae10:	f7fe fa2d 	bl	d926e <_ZN6StringC1EPKc>
    return (*fn)(p);
   dae14:	4669      	mov	r1, sp
   dae16:	a804      	add	r0, sp, #16
   dae18:	f7fe fa69 	bl	d92ee <_ZN6StringC1ERKS_>
   dae1c:	a804      	add	r0, sp, #16
   dae1e:	47a0      	blx	r4
   dae20:	4604      	mov	r4, r0
   dae22:	a804      	add	r0, sp, #16
   dae24:	f7fe f9d8 	bl	d91d8 <_ZN6StringD1Ev>
    String p(param);
   dae28:	4668      	mov	r0, sp
   dae2a:	f7fe f9d5 	bl	d91d8 <_ZN6StringD1Ev>
}
   dae2e:	4620      	mov	r0, r4
   dae30:	b008      	add	sp, #32
   dae32:	bd10      	pop	{r4, pc}

000dae34 <_ZN10CloudClass17register_functionEPFiPvPKcS0_ES0_S2_>:
    wiring_event_handler_t* fn = (wiring_event_handler_t*)(handler_data);
    (*fn)(event_name, data);
}

bool CloudClass::register_function(cloud_function_t fn, void* data, const char* funcKey)
{
   dae34:	b51f      	push	{r0, r1, r2, r3, r4, lr}
    const char *funcKey;
    cloud_function_t fn;
    void* data;

     cloud_function_descriptor() {
         memset(this, 0, sizeof(*this));
   dae36:	2300      	movs	r3, #0
    cloud_function_descriptor desc = {};
    desc.size = sizeof(desc);
    desc.fn = fn;
    desc.data = (void*)data;
   dae38:	e9cd 0102 	strd	r0, r1, [sp, #8]
    desc.funcKey = funcKey;
   dae3c:	9201      	str	r2, [sp, #4]
         size = sizeof(*this);
   dae3e:	2410      	movs	r4, #16
    return spark_function(NULL, (user_function_int_str_t*)&desc, NULL);
   dae40:	461a      	mov	r2, r3
   dae42:	4669      	mov	r1, sp
   dae44:	4618      	mov	r0, r3
         memset(this, 0, sizeof(*this));
   dae46:	f8ad 3002 	strh.w	r3, [sp, #2]
         size = sizeof(*this);
   dae4a:	f8ad 4000 	strh.w	r4, [sp]
   dae4e:	f7fe f825 	bl	d8e9c <spark_function>
}
   dae52:	b004      	add	sp, #16
   dae54:	bd10      	pop	{r4, pc}

000dae56 <_ZN9IPAddressD1Ev>:
    IPAddress(uint32_t address);
    // 4 bytes defining the IP address in network order
    IPAddress(const uint8_t* address);
    IPAddress(const HAL_IPAddress& address);

    virtual ~IPAddress() {}
   dae56:	4770      	bx	lr

000dae58 <_ZN9IPAddressD0Ev>:
   dae58:	b510      	push	{r4, lr}
   dae5a:	2118      	movs	r1, #24
   dae5c:	4604      	mov	r4, r0
   dae5e:	f000 fc42 	bl	db6e6 <_ZdlPvj>
   dae62:	4620      	mov	r0, r4
   dae64:	bd10      	pop	{r4, pc}

000dae66 <_ZNK9IPAddress7printToER5Print>:
#endif // Wiring_IPv6
	return address.ipv4==that.address.ipv4;
}

size_t IPAddress::printTo(Print& p) const
{
   dae66:	b5f0      	push	{r4, r5, r6, r7, lr}
#if Wiring_IPv6
#if HAL_USE_INET_HAL_POSIX
	if (address.v==6) {
   dae68:	7d03      	ldrb	r3, [r0, #20]
   dae6a:	2b06      	cmp	r3, #6
{
   dae6c:	b08d      	sub	sp, #52	; 0x34
   dae6e:	460e      	mov	r6, r1
   dae70:	f100 0704 	add.w	r7, r0, #4
   dae74:	f04f 0400 	mov.w	r4, #0
	if (address.v==6) {
   dae78:	d012      	beq.n	daea0 <_ZNK9IPAddress7printToER5Print+0x3a>
   dae7a:	f100 0508 	add.w	r5, r0, #8
        return printNumber(val, base) + t;
   dae7e:	f815 1d01 	ldrb.w	r1, [r5, #-1]!
   dae82:	220a      	movs	r2, #10
   dae84:	4630      	mov	r0, r6
   dae86:	f7ff fc52 	bl	da72e <_ZN5Print11printNumberEmh>
#else
#pragma message "HAL_USE_INET_HAL_POSIX is required for IPv6 support in IPAddress::printTo()"
#endif // HAL_USE_INET_HAL_POSIX
#endif // Wiring_IPv6
    size_t n = 0;
    for (int i = 0; i < 4; i++)
   dae8a:	42af      	cmp	r7, r5
    {
        if (n)
            n += p.print('.');
        n += p.print((*this)[i], DEC);
   dae8c:	4404      	add	r4, r0
    for (int i = 0; i < 4; i++)
   dae8e:	d019      	beq.n	daec4 <_ZNK9IPAddress7printToER5Print+0x5e>
        if (n)
   dae90:	2c00      	cmp	r4, #0
   dae92:	d0f4      	beq.n	dae7e <_ZNK9IPAddress7printToER5Print+0x18>
            n += p.print('.');
   dae94:	212e      	movs	r1, #46	; 0x2e
   dae96:	4630      	mov	r0, r6
   dae98:	f7ff fc30 	bl	da6fc <_ZN5Print5printEc>
   dae9c:	4404      	add	r4, r0
   dae9e:	e7ee      	b.n	dae7e <_ZNK9IPAddress7printToER5Print+0x18>
		inet_inet_ntop(AF_INET6, address.ipv6, buf, sizeof(buf));
   daea0:	232f      	movs	r3, #47	; 0x2f
   daea2:	466a      	mov	r2, sp
   daea4:	4639      	mov	r1, r7
   daea6:	200a      	movs	r0, #10
		buf[0] = 0;
   daea8:	f88d 4000 	strb.w	r4, [sp]
		inet_inet_ntop(AF_INET6, address.ipv6, buf, sizeof(buf));
   daeac:	f7fd fde4 	bl	d8a78 <inet_inet_ntop>
      return write((const uint8_t *)str, strlen(str));
   daeb0:	4668      	mov	r0, sp
   daeb2:	f002 ff28 	bl	ddd06 <strlen>
   daeb6:	6833      	ldr	r3, [r6, #0]
   daeb8:	4602      	mov	r2, r0
   daeba:	68db      	ldr	r3, [r3, #12]
   daebc:	4669      	mov	r1, sp
   daebe:	4630      	mov	r0, r6
   daec0:	4798      	blx	r3
   daec2:	4604      	mov	r4, r0
    }
    return n;
}
   daec4:	4620      	mov	r0, r4
   daec6:	b00d      	add	sp, #52	; 0x34
   daec8:	bdf0      	pop	{r4, r5, r6, r7, pc}
	...

000daecc <_ZN9IPAddressC1Ev>:
IPAddress::IPAddress()
   daecc:	b510      	push	{r4, lr}
   daece:	4b05      	ldr	r3, [pc, #20]	; (daee4 <_ZN9IPAddressC1Ev+0x18>)
   daed0:	4604      	mov	r4, r0
        return address;
    }

    virtual size_t printTo(Print& p) const;

    void clear() { memset(&address, 0, sizeof (address)); }
   daed2:	2211      	movs	r2, #17
   daed4:	f840 3b04 	str.w	r3, [r0], #4
   daed8:	2100      	movs	r1, #0
   daeda:	f002 fec9 	bl	ddc70 <memset>
}
   daede:	4620      	mov	r0, r4
   daee0:	bd10      	pop	{r4, pc}
   daee2:	bf00      	nop
   daee4:	000deb60 	.word	0x000deb60

000daee8 <_ZN9IPAddressC1ERK16_HAL_IPAddress_t>:
IPAddress::IPAddress(const HAL_IPAddress& address)
   daee8:	4603      	mov	r3, r0
   daeea:	4a07      	ldr	r2, [pc, #28]	; (daf08 <_ZN9IPAddressC1ERK16_HAL_IPAddress_t+0x20>)
   daeec:	b510      	push	{r4, lr}
   daeee:	f843 2b04 	str.w	r2, [r3], #4
    memcpy(&this->address, &address, sizeof(address));
   daef2:	f101 0210 	add.w	r2, r1, #16
   daef6:	f851 4b04 	ldr.w	r4, [r1], #4
   daefa:	f843 4b04 	str.w	r4, [r3], #4
   daefe:	4291      	cmp	r1, r2
   daf00:	d1f9      	bne.n	daef6 <_ZN9IPAddressC1ERK16_HAL_IPAddress_t+0xe>
   daf02:	780a      	ldrb	r2, [r1, #0]
   daf04:	701a      	strb	r2, [r3, #0]
}
   daf06:	bd10      	pop	{r4, pc}
   daf08:	000deb60 	.word	0x000deb60

000daf0c <_ZN9IPAddress8set_ipv4Ehhhh>:
{
   daf0c:	b510      	push	{r4, lr}
    address.ipv4 = b0<<24 | b1 << 16 | b2 << 8 | b3;
   daf0e:	f89d 4008 	ldrb.w	r4, [sp, #8]
   daf12:	ea44 2303 	orr.w	r3, r4, r3, lsl #8
   daf16:	ea43 4202 	orr.w	r2, r3, r2, lsl #16
   daf1a:	ea42 6101 	orr.w	r1, r2, r1, lsl #24
        address.v = version;
   daf1e:	2304      	movs	r3, #4
   daf20:	6041      	str	r1, [r0, #4]
   daf22:	7503      	strb	r3, [r0, #20]
}
   daf24:	bd10      	pop	{r4, pc}
	...

000daf28 <_ZN9IPAddressC1EPKh>:
IPAddress::IPAddress(const uint8_t* addr)
   daf28:	b513      	push	{r0, r1, r4, lr}
   daf2a:	4b05      	ldr	r3, [pc, #20]	; (daf40 <_ZN9IPAddressC1EPKh+0x18>)
   daf2c:	6003      	str	r3, [r0, #0]
    set_ipv4(addr[0], addr[1], addr[2], addr[3]);
   daf2e:	78cb      	ldrb	r3, [r1, #3]
   daf30:	9300      	str	r3, [sp, #0]
   daf32:	788b      	ldrb	r3, [r1, #2]
   daf34:	784a      	ldrb	r2, [r1, #1]
   daf36:	7809      	ldrb	r1, [r1, #0]
   daf38:	f7ff ffe8 	bl	daf0c <_ZN9IPAddress8set_ipv4Ehhhh>
}
   daf3c:	b002      	add	sp, #8
   daf3e:	bd10      	pop	{r4, pc}
   daf40:	000deb60 	.word	0x000deb60

000daf44 <_ZN9USBSerial14blockOnOverrunEb>:
  HAL_USB_USART_Flush_Data(_serial);
}

void USBSerial::blockOnOverrun(bool block)
{
  _blocking = block;
   daf44:	7441      	strb	r1, [r0, #17]
}
   daf46:	4770      	bx	lr

000daf48 <_ZN9USBSerialD1Ev>:
#include "usb_hal.h"
#include "system_task.h"
#include "spark_wiring_startup.h"
#include "concurrent_hal.h"

class USBSerial : public Stream
   daf48:	4770      	bx	lr

000daf4a <_ZN9USBSerial4readEv>:
{
   daf4a:	b508      	push	{r3, lr}
	return std::max(-1, (int)HAL_USB_USART_Receive_Data(_serial, false));
   daf4c:	2100      	movs	r1, #0
   daf4e:	7c00      	ldrb	r0, [r0, #16]
   daf50:	f7fd fece 	bl	d8cf0 <HAL_USB_USART_Receive_Data>
}
   daf54:	ea40 70e0 	orr.w	r0, r0, r0, asr #31
   daf58:	bd08      	pop	{r3, pc}

000daf5a <_ZN9USBSerial4peekEv>:

int USBSerial::peek()
{
   daf5a:	b508      	push	{r3, lr}
	return std::max(-1, (int)HAL_USB_USART_Receive_Data(_serial, true));
   daf5c:	2101      	movs	r1, #1
   daf5e:	7c00      	ldrb	r0, [r0, #16]
   daf60:	f7fd fec6 	bl	d8cf0 <HAL_USB_USART_Receive_Data>
}
   daf64:	ea40 70e0 	orr.w	r0, r0, r0, asr #31
   daf68:	bd08      	pop	{r3, pc}

000daf6a <_ZN9USBSerial17availableForWriteEv>:
{
   daf6a:	b508      	push	{r3, lr}
  return std::max(0, (int)HAL_USB_USART_Available_Data_For_Write(_serial));
   daf6c:	7c00      	ldrb	r0, [r0, #16]
   daf6e:	f7fd feb7 	bl	d8ce0 <HAL_USB_USART_Available_Data_For_Write>
}
   daf72:	ea20 70e0 	bic.w	r0, r0, r0, asr #31
   daf76:	bd08      	pop	{r3, pc}

000daf78 <_ZN9USBSerial9availableEv>:
{
   daf78:	b508      	push	{r3, lr}
	return std::max(0, (int)HAL_USB_USART_Available_Data(_serial));
   daf7a:	7c00      	ldrb	r0, [r0, #16]
   daf7c:	f7fd fea8 	bl	d8cd0 <HAL_USB_USART_Available_Data>
}
   daf80:	ea20 70e0 	bic.w	r0, r0, r0, asr #31
   daf84:	bd08      	pop	{r3, pc}

000daf86 <_ZN9USBSerial5writeEh>:
{
   daf86:	b513      	push	{r0, r1, r4, lr}
   daf88:	4604      	mov	r4, r0
  if (HAL_USB_USART_Available_Data_For_Write(_serial) > 0 || _blocking) {
   daf8a:	7c00      	ldrb	r0, [r0, #16]
{
   daf8c:	9101      	str	r1, [sp, #4]
  if (HAL_USB_USART_Available_Data_For_Write(_serial) > 0 || _blocking) {
   daf8e:	f7fd fea7 	bl	d8ce0 <HAL_USB_USART_Available_Data_For_Write>
   daf92:	2800      	cmp	r0, #0
   daf94:	9901      	ldr	r1, [sp, #4]
   daf96:	dc01      	bgt.n	daf9c <_ZN9USBSerial5writeEh+0x16>
   daf98:	7c60      	ldrb	r0, [r4, #17]
   daf9a:	b120      	cbz	r0, dafa6 <_ZN9USBSerial5writeEh+0x20>
    return std::max(0, (int)HAL_USB_USART_Send_Data(_serial, byte));
   daf9c:	7c20      	ldrb	r0, [r4, #16]
   daf9e:	f7fd feaf 	bl	d8d00 <HAL_USB_USART_Send_Data>
   dafa2:	ea20 70e0 	bic.w	r0, r0, r0, asr #31
}
   dafa6:	b002      	add	sp, #8
   dafa8:	bd10      	pop	{r4, pc}

000dafaa <_ZN9USBSerial5flushEv>:
  HAL_USB_USART_Flush_Data(_serial);
   dafaa:	7c00      	ldrb	r0, [r0, #16]
   dafac:	f7fd beb0 	b.w	d8d10 <HAL_USB_USART_Flush_Data>

000dafb0 <_ZN9USBSerialD0Ev>:
   dafb0:	b510      	push	{r4, lr}
   dafb2:	2114      	movs	r1, #20
   dafb4:	4604      	mov	r4, r0
   dafb6:	f000 fb96 	bl	db6e6 <_ZdlPvj>
   dafba:	4620      	mov	r0, r4
   dafbc:	bd10      	pop	{r4, pc}
	...

000dafc0 <_ZN9USBSerialC1E20HAL_USB_USART_SerialRK20HAL_USB_USART_Config>:
USBSerial::USBSerial(HAL_USB_USART_Serial serial, const HAL_USB_USART_Config& conf)
   dafc0:	b510      	push	{r4, lr}
    virtual int available() = 0;
    virtual int read() = 0;
    virtual int peek() = 0;
    virtual void flush() = 0;

    Stream() {_timeout=1000;}
   dafc2:	f44f 737a 	mov.w	r3, #1000	; 0x3e8
   dafc6:	4604      	mov	r4, r0
   dafc8:	4608      	mov	r0, r1
   dafca:	2100      	movs	r1, #0
   dafcc:	e9c4 1301 	strd	r1, r3, [r4, #4]
   dafd0:	4b04      	ldr	r3, [pc, #16]	; (dafe4 <_ZN9USBSerialC1E20HAL_USB_USART_SerialRK20HAL_USB_USART_Config+0x24>)
   dafd2:	6023      	str	r3, [r4, #0]
  _blocking = true;
   dafd4:	2301      	movs	r3, #1
  _serial = serial;
   dafd6:	7420      	strb	r0, [r4, #16]
  _blocking = true;
   dafd8:	7463      	strb	r3, [r4, #17]
  HAL_USB_USART_Init(_serial, &conf);
   dafda:	4611      	mov	r1, r2
   dafdc:	f7fd fe70 	bl	d8cc0 <HAL_USB_USART_Init>
}
   dafe0:	4620      	mov	r0, r4
   dafe2:	bd10      	pop	{r4, pc}
   dafe4:	000deb74 	.word	0x000deb74

000dafe8 <_Z19acquireSerialBufferv>:

// Preinstantiate Objects //////////////////////////////////////////////////////
#ifdef SPARK_USB_SERIAL

HAL_USB_USART_Config __attribute__((weak)) acquireSerialBuffer()
{
   dafe8:	b510      	push	{r4, lr}
  HAL_USB_USART_Config conf = {0};
   dafea:	2214      	movs	r2, #20
{
   dafec:	4604      	mov	r4, r0
  HAL_USB_USART_Config conf = {0};
   dafee:	2100      	movs	r1, #0
   daff0:	f002 fe3e 	bl	ddc70 <memset>
  conf.rx_buffer_size = USB_RX_BUFFER_SIZE;
  conf.tx_buffer_size = USB_TX_BUFFER_SIZE;
#endif

  return conf;
}
   daff4:	4620      	mov	r0, r4
   daff6:	bd10      	pop	{r4, pc}

000daff8 <_Z16_fetch_usbserialv>:

USBSerial& _fetch_usbserial()
{
   daff8:	b510      	push	{r4, lr}
  HAL_USB_USART_Config conf = acquireSerialBuffer();
	static USBSerial _usbserial(HAL_USB_USART_SERIAL, conf);
   daffa:	4c10      	ldr	r4, [pc, #64]	; (db03c <_Z16_fetch_usbserialv+0x44>)
{
   daffc:	b088      	sub	sp, #32
  HAL_USB_USART_Config conf = acquireSerialBuffer();
   daffe:	a803      	add	r0, sp, #12
   db000:	f7ff fff2 	bl	dafe8 <_Z19acquireSerialBufferv>
	static USBSerial _usbserial(HAL_USB_USART_SERIAL, conf);
   db004:	7821      	ldrb	r1, [r4, #0]
   db006:	f3bf 8f5b 	dmb	ish
   db00a:	f011 0101 	ands.w	r1, r1, #1
   db00e:	d111      	bne.n	db034 <_Z16_fetch_usbserialv+0x3c>
   db010:	4620      	mov	r0, r4
   db012:	9101      	str	r1, [sp, #4]
   db014:	f7f9 f850 	bl	d40b8 <__cxa_guard_acquire>
   db018:	9901      	ldr	r1, [sp, #4]
   db01a:	b158      	cbz	r0, db034 <_Z16_fetch_usbserialv+0x3c>
   db01c:	aa03      	add	r2, sp, #12
   db01e:	4808      	ldr	r0, [pc, #32]	; (db040 <_Z16_fetch_usbserialv+0x48>)
   db020:	f7ff ffce 	bl	dafc0 <_ZN9USBSerialC1E20HAL_USB_USART_SerialRK20HAL_USB_USART_Config>
   db024:	4620      	mov	r0, r4
   db026:	f7f9 f84c 	bl	d40c2 <__cxa_guard_release>
   db02a:	4a06      	ldr	r2, [pc, #24]	; (db044 <_Z16_fetch_usbserialv+0x4c>)
   db02c:	4906      	ldr	r1, [pc, #24]	; (db048 <_Z16_fetch_usbserialv+0x50>)
   db02e:	4804      	ldr	r0, [pc, #16]	; (db040 <_Z16_fetch_usbserialv+0x48>)
   db030:	f000 fb54 	bl	db6dc <__aeabi_atexit>
	return _usbserial;
}
   db034:	4802      	ldr	r0, [pc, #8]	; (db040 <_Z16_fetch_usbserialv+0x48>)
   db036:	b008      	add	sp, #32
   db038:	bd10      	pop	{r4, pc}
   db03a:	bf00      	nop
   db03c:	2003e648 	.word	0x2003e648
   db040:	2003e64c 	.word	0x2003e64c
   db044:	2003de20 	.word	0x2003de20
   db048:	000daf49 	.word	0x000daf49

000db04c <_ZN5spark13CellularClass5readyEv>:
        return network_listening(*this, 0, NULL);
    }

    bool ready()
    {
        return network_ready(*this, 0,  NULL);
   db04c:	2200      	movs	r2, #0
   db04e:	6840      	ldr	r0, [r0, #4]
   db050:	4611      	mov	r1, r2
   db052:	f7fd bed3 	b.w	d8dfc <network_ready>

000db056 <_ZN5spark13CellularClass9listeningEv>:
        return network_listening(*this, 0, NULL);
   db056:	2200      	movs	r2, #0
   db058:	6840      	ldr	r0, [r0, #4]
   db05a:	4611      	mov	r1, r2
   db05c:	f7fd beee 	b.w	d8e3c <network_listening>

000db060 <_ZN5spark13CellularClass16getListenTimeoutEv>:
        return network_get_listen_timeout(*this, 0, NULL);
   db060:	2200      	movs	r2, #0
   db062:	6840      	ldr	r0, [r0, #4]
   db064:	4611      	mov	r1, r2
   db066:	f7fd bef9 	b.w	d8e5c <network_get_listen_timeout>

000db06a <_ZN5spark13CellularClass16setListenTimeoutEt>:
        network_set_listen_timeout(*this, timeout, NULL);
   db06a:	6840      	ldr	r0, [r0, #4]
   db06c:	2200      	movs	r2, #0
   db06e:	f7fd beed 	b.w	d8e4c <network_set_listen_timeout>

000db072 <_ZN5spark13CellularClass6listenEb>:
        network_listen(*this, begin ? 0 : 1, NULL);
   db072:	6840      	ldr	r0, [r0, #4]
   db074:	2200      	movs	r2, #0
   db076:	f081 0101 	eor.w	r1, r1, #1
   db07a:	f7fd bed7 	b.w	d8e2c <network_listen>

000db07e <_ZN5spark13CellularClass3offEv>:
        network_off(*this, 0, 0, NULL);
   db07e:	2300      	movs	r3, #0
   db080:	6840      	ldr	r0, [r0, #4]
   db082:	461a      	mov	r2, r3
   db084:	4619      	mov	r1, r3
   db086:	f7fd bec9 	b.w	d8e1c <network_off>

000db08a <_ZN5spark13CellularClass2onEv>:
        network_on(*this, 0, 0, NULL);
   db08a:	2300      	movs	r3, #0
   db08c:	6840      	ldr	r0, [r0, #4]
   db08e:	461a      	mov	r2, r3
   db090:	4619      	mov	r1, r3
   db092:	f7fd bebb 	b.w	d8e0c <network_on>

000db096 <_ZN5spark13CellularClass10connectingEv>:
        return network_connecting(*this, 0, NULL);
   db096:	2200      	movs	r2, #0
   db098:	6840      	ldr	r0, [r0, #4]
   db09a:	4611      	mov	r1, r2
   db09c:	f7fd be9e 	b.w	d8ddc <network_connecting>

000db0a0 <_ZN5spark13CellularClass10disconnectEv>:
        network_disconnect(*this, NETWORK_DISCONNECT_REASON_USER, NULL);
   db0a0:	6840      	ldr	r0, [r0, #4]
   db0a2:	2200      	movs	r2, #0
   db0a4:	2102      	movs	r1, #2
   db0a6:	f7fd bea1 	b.w	d8dec <network_disconnect>

000db0aa <_ZN5spark13CellularClass7connectEj>:
        network_connect(*this, flags, 0, NULL);
   db0aa:	2300      	movs	r3, #0
   db0ac:	6840      	ldr	r0, [r0, #4]
   db0ae:	461a      	mov	r2, r3
   db0b0:	f7fd be8c 	b.w	d8dcc <network_connect>

000db0b4 <_ZN5spark13CellularClass4RSSIEv>:

// #include "cellular_internal.h"

namespace spark {

    CellularSignal CellularClass::RSSI() {
   db0b4:	b570      	push	{r4, r5, r6, lr}
    CellularSignal() {}
   db0b6:	4b13      	ldr	r3, [pc, #76]	; (db104 <_ZN5spark13CellularClass4RSSIEv+0x50>)
   db0b8:	6003      	str	r3, [r0, #0]
   db0ba:	2518      	movs	r5, #24
   db0bc:	3330      	adds	r3, #48	; 0x30
   db0be:	b086      	sub	sp, #24
   db0c0:	460e      	mov	r6, r1
   db0c2:	6043      	str	r3, [r0, #4]
   db0c4:	462a      	mov	r2, r5
   db0c6:	2100      	movs	r1, #0
   db0c8:	4604      	mov	r4, r0
   db0ca:	3008      	adds	r0, #8
   db0cc:	f002 fdd0 	bl	ddc70 <memset>
        CellularSignal sig;
        if (!network_ready(*this, 0, NULL)) {
   db0d0:	2200      	movs	r2, #0
   db0d2:	6870      	ldr	r0, [r6, #4]
   db0d4:	4611      	mov	r1, r2
   db0d6:	f7fd fe91 	bl	d8dfc <network_ready>
   db0da:	b178      	cbz	r0, db0fc <_ZN5spark13CellularClass4RSSIEv+0x48>
            return sig;
        }

        cellular_signal_t sigext = {0};
   db0dc:	2100      	movs	r1, #0
   db0de:	462a      	mov	r2, r5
   db0e0:	4668      	mov	r0, sp
   db0e2:	f002 fdc5 	bl	ddc70 <memset>
        sigext.size = sizeof(sigext);
        if (cellular_signal(nullptr, &sigext) != 0) {
   db0e6:	4669      	mov	r1, sp
   db0e8:	2000      	movs	r0, #0
        sigext.size = sizeof(sigext);
   db0ea:	f8ad 5000 	strh.w	r5, [sp]
        if (cellular_signal(nullptr, &sigext) != 0) {
   db0ee:	f7fd fdc3 	bl	d8c78 <cellular_signal>
   db0f2:	b918      	cbnz	r0, db0fc <_ZN5spark13CellularClass4RSSIEv+0x48>
            return sig;
        }
        sig.fromHalCellularSignal(sigext);
   db0f4:	4669      	mov	r1, sp
   db0f6:	4620      	mov	r0, r4
   db0f8:	f7ff fdc4 	bl	dac84 <_ZN14CellularSignal21fromHalCellularSignalERK17cellular_signal_t>
        return sig;
    }
   db0fc:	4620      	mov	r0, r4
   db0fe:	b006      	add	sp, #24
   db100:	bd70      	pop	{r4, r5, r6, pc}
   db102:	bf00      	nop
   db104:	000deb24 	.word	0x000deb24

000db108 <_GLOBAL__sub_I__ZN5spark13CellularClass4RSSIEv>:
    int tx_total;
    int rx_total;

    CellularDataHal()
    {
        memset(this, 0, sizeof(*this));
   db108:	4b08      	ldr	r3, [pc, #32]	; (db12c <_GLOBAL__sub_I__ZN5spark13CellularClass4RSSIEv+0x24>)
        return (band_get.ok = true);
    }

    CellularClass Cellular;
    // NetworkClass& Network = Cellular;
}
   db10a:	b510      	push	{r4, lr}
   db10c:	2428      	movs	r4, #40	; 0x28
   db10e:	4622      	mov	r2, r4
   db110:	4618      	mov	r0, r3
   db112:	2100      	movs	r1, #0
   db114:	f002 fdac 	bl	ddc70 <memset>
   db118:	4b05      	ldr	r3, [pc, #20]	; (db130 <_GLOBAL__sub_I__ZN5spark13CellularClass4RSSIEv+0x28>)
        cid = -1;
        size = sizeof(*this);
   db11a:	8004      	strh	r4, [r0, #0]
        cid = -1;
   db11c:	f04f 32ff 	mov.w	r2, #4294967295
   db120:	6042      	str	r2, [r0, #4]
   db122:	2204      	movs	r2, #4
   db124:	605a      	str	r2, [r3, #4]
            NetworkClass(NETWORK_INTERFACE_CELLULAR) {
   db126:	4a03      	ldr	r2, [pc, #12]	; (db134 <_GLOBAL__sub_I__ZN5spark13CellularClass4RSSIEv+0x2c>)
   db128:	601a      	str	r2, [r3, #0]
   db12a:	bd10      	pop	{r4, pc}
   db12c:	2003e668 	.word	0x2003e668
   db130:	2003e660 	.word	0x2003e660
   db134:	000deba4 	.word	0x000deba4

000db138 <_ZN11USARTSerialD1Ev>:
private:
  hal_usart_interface_t _serial;
  bool _blocking;
public:
  USARTSerial(hal_usart_interface_t serial, hal_usart_ring_buffer_t *rx_buffer, hal_usart_ring_buffer_t *tx_buffer);
  virtual ~USARTSerial() {};
   db138:	4770      	bx	lr

000db13a <_ZN11USARTSerial14blockOnOverrunEb>:
    hal_usart_half_duplex(_serial, Enable);
}

void USARTSerial::blockOnOverrun(bool block)
{
  _blocking = block;
   db13a:	7441      	strb	r1, [r0, #17]
}
   db13c:	4770      	bx	lr

000db13e <_ZN11USARTSerial17availableForWriteEv>:


int USARTSerial::availableForWrite(void)
{
   db13e:	b508      	push	{r3, lr}
  return std::max(0, (int)hal_usart_available_data_for_write(_serial));
   db140:	7c00      	ldrb	r0, [r0, #16]
   db142:	f7fd fcd9 	bl	d8af8 <hal_usart_available_data_for_write>
}
   db146:	ea20 70e0 	bic.w	r0, r0, r0, asr #31
   db14a:	bd08      	pop	{r3, pc}

000db14c <_ZN11USARTSerial9availableEv>:

int USARTSerial::available(void)
{
   db14c:	b508      	push	{r3, lr}
  return std::max(0, (int)hal_usart_available(_serial));
   db14e:	7c00      	ldrb	r0, [r0, #16]
   db150:	f7fd fcaa 	bl	d8aa8 <hal_usart_available>
}
   db154:	ea20 70e0 	bic.w	r0, r0, r0, asr #31
   db158:	bd08      	pop	{r3, pc}

000db15a <_ZN11USARTSerial4peekEv>:

int USARTSerial::peek(void)
{
   db15a:	b508      	push	{r3, lr}
  return std::max(-1, (int)hal_usart_peek(_serial));
   db15c:	7c00      	ldrb	r0, [r0, #16]
   db15e:	f7fd fcb3 	bl	d8ac8 <hal_usart_peek>
}
   db162:	ea40 70e0 	orr.w	r0, r0, r0, asr #31
   db166:	bd08      	pop	{r3, pc}

000db168 <_ZN11USARTSerial4readEv>:

int USARTSerial::read(void)
{
   db168:	b508      	push	{r3, lr}
  return std::max(-1, (int)hal_usart_read(_serial));
   db16a:	7c00      	ldrb	r0, [r0, #16]
   db16c:	f7fd fca4 	bl	d8ab8 <hal_usart_read>
}
   db170:	ea40 70e0 	orr.w	r0, r0, r0, asr #31
   db174:	bd08      	pop	{r3, pc}

000db176 <_ZN11USARTSerial5flushEv>:

void USARTSerial::flush()
{
  hal_usart_flush(_serial);
   db176:	7c00      	ldrb	r0, [r0, #16]
   db178:	f7fd bcae 	b.w	d8ad8 <hal_usart_flush>

000db17c <_ZN11USARTSerial5writeEh>:
}

size_t USARTSerial::write(uint8_t c)
{
   db17c:	b537      	push	{r0, r1, r2, r4, r5, lr}
  // attempt a write if blocking, or for non-blocking if there is room.
  if (_blocking || hal_usart_available_data_for_write(_serial) > 0) {
   db17e:	7c45      	ldrb	r5, [r0, #17]
{
   db180:	4604      	mov	r4, r0
  if (_blocking || hal_usart_available_data_for_write(_serial) > 0) {
   db182:	b12d      	cbz	r5, db190 <_ZN11USARTSerial5writeEh+0x14>
    // the HAL always blocks.
	  return hal_usart_write(_serial, c);
   db184:	7c20      	ldrb	r0, [r4, #16]
  }
  return 0;
}
   db186:	b003      	add	sp, #12
   db188:	e8bd 4030 	ldmia.w	sp!, {r4, r5, lr}
	  return hal_usart_write(_serial, c);
   db18c:	f7fd bc84 	b.w	d8a98 <hal_usart_write>
  if (_blocking || hal_usart_available_data_for_write(_serial) > 0) {
   db190:	7c00      	ldrb	r0, [r0, #16]
   db192:	9101      	str	r1, [sp, #4]
   db194:	f7fd fcb0 	bl	d8af8 <hal_usart_available_data_for_write>
   db198:	2800      	cmp	r0, #0
   db19a:	9901      	ldr	r1, [sp, #4]
   db19c:	dcf2      	bgt.n	db184 <_ZN11USARTSerial5writeEh+0x8>
}
   db19e:	4628      	mov	r0, r5
   db1a0:	b003      	add	sp, #12
   db1a2:	bd30      	pop	{r4, r5, pc}

000db1a4 <_ZN11USARTSerialD0Ev>:
   db1a4:	b510      	push	{r4, lr}
   db1a6:	2114      	movs	r1, #20
   db1a8:	4604      	mov	r4, r0
   db1aa:	f000 fa9c 	bl	db6e6 <_ZdlPvj>
   db1ae:	4620      	mov	r0, r4
   db1b0:	bd10      	pop	{r4, pc}
	...

000db1b4 <_ZN11USARTSerialC1E21hal_usart_interface_tP23hal_usart_ring_buffer_tS2_>:
USARTSerial::USARTSerial(hal_usart_interface_t serial, hal_usart_ring_buffer_t *rx_buffer, hal_usart_ring_buffer_t *tx_buffer)
   db1b4:	b510      	push	{r4, lr}
   db1b6:	f04f 0c00 	mov.w	ip, #0
   db1ba:	4604      	mov	r4, r0
   db1bc:	4608      	mov	r0, r1
   db1be:	4611      	mov	r1, r2
   db1c0:	f44f 727a 	mov.w	r2, #1000	; 0x3e8
   db1c4:	e9c4 c201 	strd	ip, r2, [r4, #4]
   db1c8:	4a04      	ldr	r2, [pc, #16]	; (db1dc <_ZN11USARTSerialC1E21hal_usart_interface_tP23hal_usart_ring_buffer_tS2_+0x28>)
   db1ca:	6022      	str	r2, [r4, #0]
  _blocking = true;
   db1cc:	2201      	movs	r2, #1
  _serial = serial;
   db1ce:	7420      	strb	r0, [r4, #16]
  _blocking = true;
   db1d0:	7462      	strb	r2, [r4, #17]
  hal_usart_init(serial, rx_buffer, tx_buffer);
   db1d2:	461a      	mov	r2, r3
   db1d4:	f7fd fc58 	bl	d8a88 <hal_usart_init>
}
   db1d8:	4620      	mov	r0, r4
   db1da:	bd10      	pop	{r4, pc}
   db1dc:	000debe0 	.word	0x000debe0

000db1e0 <_Z22__fetch_global_Serial1v>:
static hal_usart_ring_buffer_t* serial1_rx_buffer = nullptr;
static hal_usart_ring_buffer_t* serial1_tx_buffer = nullptr;
#endif

USARTSerial& __fetch_global_Serial1()
{
   db1e0:	b513      	push	{r0, r1, r4, lr}
#if ((MODULE_FUNCTION == MOD_FUNC_USER_PART) || (MODULE_FUNCTION == MOD_FUNC_MONO_FIRMWARE))
	static USARTSerial serial1(HAL_USART_SERIAL1, &serial1_rx_buffer, &serial1_tx_buffer);
   db1e2:	4c0e      	ldr	r4, [pc, #56]	; (db21c <_Z22__fetch_global_Serial1v+0x3c>)
   db1e4:	7821      	ldrb	r1, [r4, #0]
   db1e6:	f3bf 8f5b 	dmb	ish
   db1ea:	f011 0101 	ands.w	r1, r1, #1
   db1ee:	d112      	bne.n	db216 <_Z22__fetch_global_Serial1v+0x36>
   db1f0:	4620      	mov	r0, r4
   db1f2:	9101      	str	r1, [sp, #4]
   db1f4:	f7f8 ff60 	bl	d40b8 <__cxa_guard_acquire>
   db1f8:	9901      	ldr	r1, [sp, #4]
   db1fa:	b160      	cbz	r0, db216 <_Z22__fetch_global_Serial1v+0x36>
   db1fc:	4a08      	ldr	r2, [pc, #32]	; (db220 <_Z22__fetch_global_Serial1v+0x40>)
   db1fe:	4b09      	ldr	r3, [pc, #36]	; (db224 <_Z22__fetch_global_Serial1v+0x44>)
   db200:	4809      	ldr	r0, [pc, #36]	; (db228 <_Z22__fetch_global_Serial1v+0x48>)
   db202:	f7ff ffd7 	bl	db1b4 <_ZN11USARTSerialC1E21hal_usart_interface_tP23hal_usart_ring_buffer_tS2_>
   db206:	4620      	mov	r0, r4
   db208:	f7f8 ff5b 	bl	d40c2 <__cxa_guard_release>
   db20c:	4a07      	ldr	r2, [pc, #28]	; (db22c <_Z22__fetch_global_Serial1v+0x4c>)
   db20e:	4908      	ldr	r1, [pc, #32]	; (db230 <_Z22__fetch_global_Serial1v+0x50>)
   db210:	4805      	ldr	r0, [pc, #20]	; (db228 <_Z22__fetch_global_Serial1v+0x48>)
   db212:	f000 fa63 	bl	db6dc <__aeabi_atexit>
    serial1_tx_buffer = new hal_usart_ring_buffer_t();
  }
  static USARTSerial serial1(HAL_USART_SERIAL1, serial1_rx_buffer, serial1_tx_buffer);
#endif
	return serial1;
}
   db216:	4804      	ldr	r0, [pc, #16]	; (db228 <_Z22__fetch_global_Serial1v+0x48>)
   db218:	b002      	add	sp, #8
   db21a:	bd10      	pop	{r4, pc}
   db21c:	2003e690 	.word	0x2003e690
   db220:	2003e694 	.word	0x2003e694
   db224:	2003e718 	.word	0x2003e718
   db228:	2003e79c 	.word	0x2003e79c
   db22c:	2003de20 	.word	0x2003de20
   db230:	000db139 	.word	0x000db139

000db234 <_ZN7TwoWireD1Ev>:
private:
  hal_i2c_interface_t _i2c;

public:
  TwoWire(hal_i2c_interface_t i2c, const hal_i2c_config_t& config);
  virtual ~TwoWire() {};
   db234:	4770      	bx	lr

000db236 <_ZN7TwoWire5writeEPKhj>:

// must be called in:
// slave tx event callback
// or after beginTransmission(address)
size_t TwoWire::write(const uint8_t *data, size_t quantity)
{
   db236:	b5f8      	push	{r3, r4, r5, r6, r7, lr}
   db238:	4606      	mov	r6, r0
   db23a:	4615      	mov	r5, r2
   db23c:	460c      	mov	r4, r1
   db23e:	188f      	adds	r7, r1, r2
  // in master/slave transmitter mode
  for(size_t i = 0; i < quantity; ++i)
   db240:	42bc      	cmp	r4, r7
   db242:	d006      	beq.n	db252 <_ZN7TwoWire5writeEPKhj+0x1c>
  {
    write(data[i]);
   db244:	6833      	ldr	r3, [r6, #0]
   db246:	f814 1b01 	ldrb.w	r1, [r4], #1
   db24a:	689b      	ldr	r3, [r3, #8]
   db24c:	4630      	mov	r0, r6
   db24e:	4798      	blx	r3
  for(size_t i = 0; i < quantity; ++i)
   db250:	e7f6      	b.n	db240 <_ZN7TwoWire5writeEPKhj+0xa>
  }

  return quantity;
}
   db252:	4628      	mov	r0, r5
   db254:	bdf8      	pop	{r3, r4, r5, r6, r7, pc}

000db256 <_ZN7TwoWire5writeEh>:
  return hal_i2c_write(_i2c, data, NULL);
   db256:	7c00      	ldrb	r0, [r0, #16]
   db258:	2200      	movs	r2, #0
   db25a:	f7fd bc6d 	b.w	d8b38 <hal_i2c_write>

000db25e <_ZN7TwoWire9availableEv>:
// must be called in:
// slave rx event callback
// or after requestFrom(address, numBytes)
int TwoWire::available(void)
{
  return hal_i2c_available(_i2c, NULL);
   db25e:	7c00      	ldrb	r0, [r0, #16]
   db260:	2100      	movs	r1, #0
   db262:	f7fd bc71 	b.w	d8b48 <hal_i2c_available>

000db266 <_ZN7TwoWire4readEv>:
// must be called in:
// slave rx event callback
// or after requestFrom(address, numBytes)
int TwoWire::read(void)
{
  return hal_i2c_read(_i2c, NULL);
   db266:	7c00      	ldrb	r0, [r0, #16]
   db268:	2100      	movs	r1, #0
   db26a:	f7fd bc75 	b.w	d8b58 <hal_i2c_read>

000db26e <_ZN7TwoWire4peekEv>:
// must be called in:
// slave rx event callback
// or after requestFrom(address, numBytes)
int TwoWire::peek(void)
{
  return hal_i2c_peek(_i2c, NULL);
   db26e:	7c00      	ldrb	r0, [r0, #16]
   db270:	2100      	movs	r1, #0
   db272:	f7fd bc79 	b.w	d8b68 <hal_i2c_peek>

000db276 <_ZN7TwoWire5flushEv>:
}

void TwoWire::flush(void)
{
  hal_i2c_flush(_i2c, NULL);
   db276:	7c00      	ldrb	r0, [r0, #16]
   db278:	2100      	movs	r1, #0
   db27a:	f7fd bc7d 	b.w	d8b78 <hal_i2c_flush>

000db27e <_ZN7TwoWireD0Ev>:
   db27e:	b510      	push	{r4, lr}
   db280:	2114      	movs	r1, #20
   db282:	4604      	mov	r4, r0
   db284:	f000 fa2f 	bl	db6e6 <_ZdlPvj>
   db288:	4620      	mov	r0, r4
   db28a:	bd10      	pop	{r4, pc}

000db28c <_ZN7TwoWireC1E19hal_i2c_interface_tRK16hal_i2c_config_t>:
TwoWire::TwoWire(hal_i2c_interface_t i2c, const hal_i2c_config_t& conf)
   db28c:	b510      	push	{r4, lr}
   db28e:	f44f 737a 	mov.w	r3, #1000	; 0x3e8
   db292:	4604      	mov	r4, r0
   db294:	4608      	mov	r0, r1
   db296:	2100      	movs	r1, #0
   db298:	e9c4 1301 	strd	r1, r3, [r4, #4]
   db29c:	4b03      	ldr	r3, [pc, #12]	; (db2ac <_ZN7TwoWireC1E19hal_i2c_interface_tRK16hal_i2c_config_t+0x20>)
   db29e:	6023      	str	r3, [r4, #0]
  _i2c = i2c;
   db2a0:	7420      	strb	r0, [r4, #16]
  hal_i2c_init(_i2c, &conf);
   db2a2:	4611      	mov	r1, r2
   db2a4:	f7fd fc78 	bl	d8b98 <hal_i2c_init>
}
   db2a8:	4620      	mov	r0, r4
   db2aa:	bd10      	pop	{r4, pc}
   db2ac:	000dec10 	.word	0x000dec10

000db2b0 <_ZN7TwoWire5beginEv>:
	hal_i2c_begin(_i2c, I2C_MODE_MASTER, 0x00, NULL);
   db2b0:	2300      	movs	r3, #0
   db2b2:	7c00      	ldrb	r0, [r0, #16]
   db2b4:	461a      	mov	r2, r3
   db2b6:	4619      	mov	r1, r3
   db2b8:	f7fd bc26 	b.w	d8b08 <hal_i2c_begin>

000db2bc <_ZN7TwoWire11requestFromERK16WireTransmission>:
size_t TwoWire::requestFrom(const WireTransmission& transfer) {
   db2bc:	b57f      	push	{r0, r1, r2, r3, r4, r5, r6, lr}
    hal_i2c_transmission_config_t conf = {
   db2be:	2200      	movs	r2, #0
   db2c0:	2314      	movs	r3, #20
   db2c2:	e9cd 2201 	strd	r2, r2, [sp, #4]
   db2c6:	f8ad 3004 	strh.w	r3, [sp, #4]
    };
   db2ca:	780b      	ldrb	r3, [r1, #0]
   db2cc:	f88d 3008 	strb.w	r3, [sp, #8]
   db2d0:	684b      	ldr	r3, [r1, #4]
   db2d2:	9303      	str	r3, [sp, #12]
   db2d4:	68cb      	ldr	r3, [r1, #12]
   db2d6:	9304      	str	r3, [sp, #16]
  return hal_i2c_request_ex(_i2c, &conf, nullptr);
   db2d8:	7c00      	ldrb	r0, [r0, #16]
      .flags = (uint32_t)(stop_ ? HAL_I2C_TRANSMISSION_FLAG_STOP : 0)
   db2da:	7a0b      	ldrb	r3, [r1, #8]
   db2dc:	9305      	str	r3, [sp, #20]
   db2de:	a901      	add	r1, sp, #4
   db2e0:	f7fd fc72 	bl	d8bc8 <hal_i2c_request_ex>
}
   db2e4:	b007      	add	sp, #28
   db2e6:	f85d fb04 	ldr.w	pc, [sp], #4

000db2ea <_ZN7TwoWire11requestFromEhjh>:
{
   db2ea:	b51f      	push	{r0, r1, r2, r3, r4, lr}
  return requestFrom(WireTransmission(address).quantity(quantity).stop(sendStop));
   db2ec:	3b00      	subs	r3, #0
        timeout_{HAL_I2C_DEFAULT_TIMEOUT_MS} {
   db2ee:	f88d 1000 	strb.w	r1, [sp]
   db2f2:	f04f 0164 	mov.w	r1, #100	; 0x64
   db2f6:	9103      	str	r1, [sp, #12]
   db2f8:	bf18      	it	ne
   db2fa:	2301      	movne	r3, #1
   db2fc:	4669      	mov	r1, sp
    size_ = size;
   db2fe:	9201      	str	r2, [sp, #4]
   db300:	f88d 3008 	strb.w	r3, [sp, #8]
   db304:	f7ff ffda 	bl	db2bc <_ZN7TwoWire11requestFromERK16WireTransmission>
}
   db308:	b005      	add	sp, #20
   db30a:	f85d fb04 	ldr.w	pc, [sp], #4

000db30e <_ZN7TwoWire11requestFromEhj>:
  return requestFrom(address, quantity, (uint8_t)true);
   db30e:	2301      	movs	r3, #1
   db310:	f7ff bfeb 	b.w	db2ea <_ZN7TwoWire11requestFromEhjh>

000db314 <_ZN7TwoWire17beginTransmissionEh>:
	hal_i2c_begin_transmission(_i2c, address, NULL);
   db314:	7c00      	ldrb	r0, [r0, #16]
   db316:	2200      	movs	r2, #0
   db318:	f7fd bbfe 	b.w	d8b18 <hal_i2c_begin_transmission>

000db31c <_ZN7TwoWire15endTransmissionEh>:
	return hal_i2c_end_transmission(_i2c, sendStop, NULL);
   db31c:	7c00      	ldrb	r0, [r0, #16]
   db31e:	2200      	movs	r2, #0
   db320:	f7fd bc02 	b.w	d8b28 <hal_i2c_end_transmission>

000db324 <_ZN7TwoWire15endTransmissionEv>:
  return endTransmission(true);
   db324:	2101      	movs	r1, #1
   db326:	f7ff bff9 	b.w	db31c <_ZN7TwoWire15endTransmissionEh>

000db32a <_ZN7TwoWire4lockEv>:
{
  hal_i2c_reset(_i2c, 0, NULL);
}

bool TwoWire::lock()
{
   db32a:	b508      	push	{r3, lr}
  return hal_i2c_lock(_i2c, NULL) == 0;
   db32c:	2100      	movs	r1, #0
   db32e:	7c00      	ldrb	r0, [r0, #16]
   db330:	f7fd fc3a 	bl	d8ba8 <hal_i2c_lock>
}
   db334:	fab0 f080 	clz	r0, r0
   db338:	0940      	lsrs	r0, r0, #5
   db33a:	bd08      	pop	{r3, pc}

000db33c <_ZN7TwoWire6unlockEv>:

bool TwoWire::unlock()
{
   db33c:	b508      	push	{r3, lr}
  return hal_i2c_unlock(_i2c, NULL) == 0;
   db33e:	2100      	movs	r1, #0
   db340:	7c00      	ldrb	r0, [r0, #16]
   db342:	f7fd fc39 	bl	d8bb8 <hal_i2c_unlock>
}
   db346:	fab0 f080 	clz	r0, r0
   db34a:	0940      	lsrs	r0, r0, #5
   db34c:	bd08      	pop	{r3, pc}

000db34e <_ZN5spark12NetworkClass7connectEj>:
        return Network;
    }
}

void NetworkClass::connect(unsigned flags) {
    network_connect(*this, flags, 0, nullptr);
   db34e:	2300      	movs	r3, #0
   db350:	6840      	ldr	r0, [r0, #4]
   db352:	461a      	mov	r2, r3
   db354:	f7fd bd3a 	b.w	d8dcc <network_connect>

000db358 <_ZN5spark12NetworkClass10disconnectEv>:
}

void NetworkClass::disconnect() {
    network_disconnect(*this, NETWORK_DISCONNECT_REASON_USER, nullptr);
   db358:	6840      	ldr	r0, [r0, #4]
   db35a:	2200      	movs	r2, #0
   db35c:	2102      	movs	r1, #2
   db35e:	f7fd bd45 	b.w	d8dec <network_disconnect>

000db362 <_ZN5spark12NetworkClass10connectingEv>:
}

bool NetworkClass::connecting() {
    return network_connecting(*this, 0, nullptr);
   db362:	2200      	movs	r2, #0
   db364:	6840      	ldr	r0, [r0, #4]
   db366:	4611      	mov	r1, r2
   db368:	f7fd bd38 	b.w	d8ddc <network_connecting>

000db36c <_ZN5spark12NetworkClass5readyEv>:
}

bool NetworkClass::ready() {
    return network_ready(*this, 0, nullptr);
   db36c:	2200      	movs	r2, #0
   db36e:	6840      	ldr	r0, [r0, #4]
   db370:	4611      	mov	r1, r2
   db372:	f7fd bd43 	b.w	d8dfc <network_ready>

000db376 <_ZN5spark12NetworkClass2onEv>:
}

void NetworkClass::on() {
    network_on(*this, 0, 0, nullptr);
   db376:	2300      	movs	r3, #0
   db378:	6840      	ldr	r0, [r0, #4]
   db37a:	461a      	mov	r2, r3
   db37c:	4619      	mov	r1, r3
   db37e:	f7fd bd45 	b.w	d8e0c <network_on>

000db382 <_ZN5spark12NetworkClass3offEv>:
}

void NetworkClass::off() {
    network_off(*this, 0, 0, nullptr);
   db382:	2300      	movs	r3, #0
   db384:	6840      	ldr	r0, [r0, #4]
   db386:	461a      	mov	r2, r3
   db388:	4619      	mov	r1, r3
   db38a:	f7fd bd47 	b.w	d8e1c <network_off>

000db38e <_ZN5spark12NetworkClass4isOnEv>:
}

bool NetworkClass::isOn() {
    return network_is_on(*this, nullptr);
   db38e:	6840      	ldr	r0, [r0, #4]
   db390:	2100      	movs	r1, #0
   db392:	f7fd bd6b 	b.w	d8e6c <network_is_on>

000db396 <_ZN5spark12NetworkClass5isOffEv>:
}

bool NetworkClass::isOff() {
    return network_is_off(*this, nullptr);
   db396:	6840      	ldr	r0, [r0, #4]
   db398:	2100      	movs	r1, #0
   db39a:	f7fd bd6f 	b.w	d8e7c <network_is_off>

000db39e <_ZN5spark12NetworkClass6listenEb>:
}

void NetworkClass::listen(bool begin) {
    network_listen(*this, begin ? 0 : 1, nullptr);
   db39e:	6840      	ldr	r0, [r0, #4]
   db3a0:	2200      	movs	r2, #0
   db3a2:	f081 0101 	eor.w	r1, r1, #1
   db3a6:	f7fd bd41 	b.w	d8e2c <network_listen>

000db3aa <_ZN5spark12NetworkClass16setListenTimeoutEt>:
}

void NetworkClass::setListenTimeout(uint16_t timeout) {
    network_set_listen_timeout(*this, timeout, nullptr);
   db3aa:	6840      	ldr	r0, [r0, #4]
   db3ac:	2200      	movs	r2, #0
   db3ae:	f7fd bd4d 	b.w	d8e4c <network_set_listen_timeout>

000db3b2 <_ZN5spark12NetworkClass16getListenTimeoutEv>:
}

uint16_t NetworkClass::getListenTimeout() {
    return network_get_listen_timeout(*this, 0, nullptr);
   db3b2:	2200      	movs	r2, #0
   db3b4:	6840      	ldr	r0, [r0, #4]
   db3b6:	4611      	mov	r1, r2
   db3b8:	f7fd bd50 	b.w	d8e5c <network_get_listen_timeout>

000db3bc <_ZN5spark12NetworkClass9listeningEv>:
}

bool NetworkClass::listening() {
    return network_listening(*this, 0, nullptr);
   db3bc:	2200      	movs	r2, #0
   db3be:	6840      	ldr	r0, [r0, #4]
   db3c0:	4611      	mov	r1, r2
   db3c2:	f7fd bd3b 	b.w	d8e3c <network_listening>

000db3c6 <_ZN5spark12NetworkClass7resolveEPKc>:
}

IPAddress NetworkClass::resolve(const char* name) {
   db3c6:	e92d 43f0 	stmdb	sp!, {r4, r5, r6, r7, r8, r9, lr}
    IPAddress addr;
#if HAL_USE_INET_HAL_POSIX
    struct addrinfo *ai = nullptr;
   db3ca:	2400      	movs	r4, #0
IPAddress NetworkClass::resolve(const char* name) {
   db3cc:	b095      	sub	sp, #84	; 0x54
   db3ce:	4616      	mov	r6, r2
   db3d0:	460d      	mov	r5, r1
   db3d2:	4607      	mov	r7, r0
    IPAddress addr;
   db3d4:	f7ff fd7a 	bl	daecc <_ZN9IPAddressC1Ev>
    struct addrinfo hints = {};
   db3d8:	4621      	mov	r1, r4
   db3da:	2218      	movs	r2, #24
   db3dc:	a80e      	add	r0, sp, #56	; 0x38
    struct addrinfo *ai = nullptr;
   db3de:	9400      	str	r4, [sp, #0]
    struct addrinfo hints = {};
   db3e0:	f002 fc46 	bl	ddc70 <memset>
    hints.ai_flags = AI_ADDRCONFIG;
   db3e4:	2340      	movs	r3, #64	; 0x40
    hints.ai_family = AF_UNSPEC;
   db3e6:	e9cd 340c 	strd	r3, r4, [sp, #48]	; 0x30
    const int r = getaddrinfo(name, nullptr, &hints, &ai);
   db3ea:	4621      	mov	r1, r4
   db3ec:	466b      	mov	r3, sp
   db3ee:	aa0c      	add	r2, sp, #48	; 0x30
   db3f0:	4630      	mov	r0, r6
   db3f2:	f7fd fa2f 	bl	d8854 <netdb_getaddrinfo>
    if (!r) {
   db3f6:	4604      	mov	r4, r0
   db3f8:	2800      	cmp	r0, #0
   db3fa:	d14c      	bne.n	db496 <_ZN5spark12NetworkClass7resolveEPKc+0xd0>
        bool ok = false;
        // This is not really needed if AI_ADDRCONFIG is properly supported
        bool ipv4 = network_ready(*this, NETWORK_READY_TYPE_IPV4, nullptr);
   db3fc:	4602      	mov	r2, r0
   db3fe:	2101      	movs	r1, #1
   db400:	6868      	ldr	r0, [r5, #4]
   db402:	f7fd fcfb 	bl	d8dfc <network_ready>
        bool ipv6 = network_ready(*this, NETWORK_READY_TYPE_IPV6, nullptr);
   db406:	2102      	movs	r1, #2
        bool ipv4 = network_ready(*this, NETWORK_READY_TYPE_IPV4, nullptr);
   db408:	4680      	mov	r8, r0
        bool ipv6 = network_ready(*this, NETWORK_READY_TYPE_IPV6, nullptr);
   db40a:	4622      	mov	r2, r4
   db40c:	6868      	ldr	r0, [r5, #4]
   db40e:	f7fd fcf5 	bl	d8dfc <network_ready>
        for (auto cur = ai; cur != nullptr && !ok; cur = cur->ai_next) {
   db412:	9e00      	ldr	r6, [sp, #0]
        bool ipv6 = network_ready(*this, NETWORK_READY_TYPE_IPV6, nullptr);
   db414:	4681      	mov	r9, r0
        bool ok = false;
   db416:	4621      	mov	r1, r4
        for (auto cur = ai; cur != nullptr && !ok; cur = cur->ai_next) {
   db418:	2e00      	cmp	r6, #0
   db41a:	d03c      	beq.n	db496 <_ZN5spark12NetworkClass7resolveEPKc+0xd0>
   db41c:	2900      	cmp	r1, #0
   db41e:	d13a      	bne.n	db496 <_ZN5spark12NetworkClass7resolveEPKc+0xd0>
            // NOTE: using only the first entry that matches the current state of IPv4/IPv6 connectivity
            switch (cur->ai_family) {
   db420:	6873      	ldr	r3, [r6, #4]
   db422:	2b02      	cmp	r3, #2
   db424:	d003      	beq.n	db42e <_ZN5spark12NetworkClass7resolveEPKc+0x68>
   db426:	2b0a      	cmp	r3, #10
   db428:	d011      	beq.n	db44e <_ZN5spark12NetworkClass7resolveEPKc+0x88>
        for (auto cur = ai; cur != nullptr && !ok; cur = cur->ai_next) {
   db42a:	69f6      	ldr	r6, [r6, #28]
   db42c:	e7f4      	b.n	db418 <_ZN5spark12NetworkClass7resolveEPKc+0x52>
                case AF_INET: {
                    if (!ipv4) {
   db42e:	f1b8 0f00 	cmp.w	r8, #0
   db432:	d00a      	beq.n	db44a <_ZN5spark12NetworkClass7resolveEPKc+0x84>
                        continue;
                    }
                    // NOTE: HAL_IPAddress is little-endian
                    auto in = (struct sockaddr_in*)cur->ai_addr;
                    addr = (const uint8_t*)(&in->sin_addr.s_addr);
   db434:	6971      	ldr	r1, [r6, #20]
        return *this = IPAddress(address);
   db436:	a806      	add	r0, sp, #24
   db438:	3104      	adds	r1, #4
class IPAddress : public Printable {
   db43a:	ad07      	add	r5, sp, #28
        return *this = IPAddress(address);
   db43c:	f7ff fd74 	bl	daf28 <_ZN9IPAddressC1EPKh>
class IPAddress : public Printable {
   db440:	cd0f      	ldmia	r5!, {r0, r1, r2, r3}
   db442:	1d3c      	adds	r4, r7, #4
   db444:	c40f      	stmia	r4!, {r0, r1, r2, r3}
   db446:	682b      	ldr	r3, [r5, #0]
   db448:	7023      	strb	r3, [r4, #0]
    virtual ~IPAddress() {}
   db44a:	4641      	mov	r1, r8
   db44c:	e7ed      	b.n	db42a <_ZN5spark12NetworkClass7resolveEPKc+0x64>
                    ok = true;
                    break;
                }
                case AF_INET6: {
                    if (!ipv6) {
   db44e:	f1b9 0f00 	cmp.w	r9, #0
   db452:	d101      	bne.n	db458 <_ZN5spark12NetworkClass7resolveEPKc+0x92>
                    auto in6 = (struct sockaddr_in6*)cur->ai_addr;
                    HAL_IPAddress a = {};
                    a.v = 6;
                    memcpy(a.ipv6, in6->sin6_addr.s6_addr, sizeof(a.ipv6));
                    addr = IPAddress(a);
                    ok = true;
   db454:	4649      	mov	r1, r9
   db456:	e7e8      	b.n	db42a <_ZN5spark12NetworkClass7resolveEPKc+0x64>
                    auto in6 = (struct sockaddr_in6*)cur->ai_addr;
   db458:	6974      	ldr	r4, [r6, #20]
                    HAL_IPAddress a = {};
   db45a:	2210      	movs	r2, #16
   db45c:	a801      	add	r0, sp, #4
   db45e:	f002 fc07 	bl	ddc70 <memset>
                    a.v = 6;
   db462:	2306      	movs	r3, #6
   db464:	f88d 3014 	strb.w	r3, [sp, #20]
                    memcpy(a.ipv6, in6->sin6_addr.s6_addr, sizeof(a.ipv6));
   db468:	ad01      	add	r5, sp, #4
   db46a:	f104 0308 	add.w	r3, r4, #8
   db46e:	3418      	adds	r4, #24
   db470:	6818      	ldr	r0, [r3, #0]
   db472:	6859      	ldr	r1, [r3, #4]
   db474:	462a      	mov	r2, r5
   db476:	c203      	stmia	r2!, {r0, r1}
   db478:	3308      	adds	r3, #8
   db47a:	42a3      	cmp	r3, r4
   db47c:	4615      	mov	r5, r2
   db47e:	d1f7      	bne.n	db470 <_ZN5spark12NetworkClass7resolveEPKc+0xaa>
                    addr = IPAddress(a);
   db480:	a901      	add	r1, sp, #4
   db482:	a806      	add	r0, sp, #24
class IPAddress : public Printable {
   db484:	ad07      	add	r5, sp, #28
   db486:	f7ff fd2f 	bl	daee8 <_ZN9IPAddressC1ERK16_HAL_IPAddress_t>
   db48a:	cd0f      	ldmia	r5!, {r0, r1, r2, r3}
   db48c:	1d3c      	adds	r4, r7, #4
   db48e:	c40f      	stmia	r4!, {r0, r1, r2, r3}
   db490:	682b      	ldr	r3, [r5, #0]
   db492:	7023      	strb	r3, [r4, #0]
   db494:	e7de      	b.n	db454 <_ZN5spark12NetworkClass7resolveEPKc+0x8e>
                    break;
                }
            }
        }
    }
    freeaddrinfo(ai);
   db496:	9800      	ldr	r0, [sp, #0]
   db498:	f7fd f9d4 	bl	d8844 <netdb_freeaddrinfo>
    return Cellular.resolve(name);
#endif // Wiring_Cellular

#endif // HAL_USE_INET_HAL_POSIX
    return addr;
}
   db49c:	4638      	mov	r0, r7
   db49e:	b015      	add	sp, #84	; 0x54
   db4a0:	e8bd 83f0 	ldmia.w	sp!, {r4, r5, r6, r7, r8, r9, pc}

000db4a4 <_GLOBAL__sub_I__ZN5spark7NetworkE>:
   db4a4:	4b02      	ldr	r3, [pc, #8]	; (db4b0 <_GLOBAL__sub_I__ZN5spark7NetworkE+0xc>)
   db4a6:	4a03      	ldr	r2, [pc, #12]	; (db4b4 <_GLOBAL__sub_I__ZN5spark7NetworkE+0x10>)
   db4a8:	601a      	str	r2, [r3, #0]
   db4aa:	2200      	movs	r2, #0
   db4ac:	605a      	str	r2, [r3, #4]

} // spark
   db4ae:	4770      	bx	lr
   db4b0:	2003e7b0 	.word	0x2003e7b0
   db4b4:	000dec38 	.word	0x000dec38

000db4b8 <pinAvailable>:
/*
 * @brief Perform safety check on desired pin to see if it's already
 * being used.  Return 0 if used, otherwise return 1 if available.
 */
bool pinAvailable(uint16_t pin) {
  if (pin >= TOTAL_PINS) {
   db4b8:	2823      	cmp	r0, #35	; 0x23
bool pinAvailable(uint16_t pin) {
   db4ba:	b513      	push	{r0, r1, r4, lr}
  if (pin >= TOTAL_PINS) {
   db4bc:	d902      	bls.n	db4c4 <pinAvailable+0xc>
    return false;
   db4be:	2000      	movs	r0, #0
    return false; // 'pin' is used
  }
#endif

  return true; // 'pin' is available
}
   db4c0:	b002      	add	sp, #8
   db4c2:	bd10      	pop	{r4, pc}
  if((pin == SCK || pin == MOSI || pin == MISO) && hal_spi_is_enabled(SPI.interface()) == true)
   db4c4:	f1a0 030b 	sub.w	r3, r0, #11
   db4c8:	2b02      	cmp	r3, #2
   db4ca:	d81a      	bhi.n	db502 <pinAvailable+0x4a>

template <hal_spi_interface_t Interface>
class SpiProxy {
public:
    static SPIClass& instance() {
        static SPIClass instance(Interface);
   db4cc:	4c17      	ldr	r4, [pc, #92]	; (db52c <pinAvailable+0x74>)
   db4ce:	7821      	ldrb	r1, [r4, #0]
   db4d0:	f3bf 8f5b 	dmb	ish
   db4d4:	f011 0101 	ands.w	r1, r1, #1
   db4d8:	d10b      	bne.n	db4f2 <pinAvailable+0x3a>
   db4da:	4620      	mov	r0, r4
   db4dc:	9101      	str	r1, [sp, #4]
   db4de:	f7f8 fdeb 	bl	d40b8 <__cxa_guard_acquire>
   db4e2:	9901      	ldr	r1, [sp, #4]
   db4e4:	b128      	cbz	r0, db4f2 <pinAvailable+0x3a>
   db4e6:	4812      	ldr	r0, [pc, #72]	; (db530 <pinAvailable+0x78>)
   db4e8:	f7fd fd9c 	bl	d9024 <_ZN8SPIClassC1E19hal_spi_interface_t>
   db4ec:	4620      	mov	r0, r4
   db4ee:	f7f8 fde8 	bl	d40c2 <__cxa_guard_release>
   db4f2:	4b0f      	ldr	r3, [pc, #60]	; (db530 <pinAvailable+0x78>)
   db4f4:	7818      	ldrb	r0, [r3, #0]
   db4f6:	f7fd fb87 	bl	d8c08 <hal_spi_is_enabled>
   db4fa:	2800      	cmp	r0, #0
   db4fc:	d1df      	bne.n	db4be <pinAvailable+0x6>
  return true; // 'pin' is available
   db4fe:	2001      	movs	r0, #1
   db500:	e7de      	b.n	db4c0 <pinAvailable+0x8>
  if((pin == SCL || pin == SDA) && hal_i2c_is_enabled(Wire.interface(), nullptr) == true)
   db502:	2801      	cmp	r0, #1
   db504:	d809      	bhi.n	db51a <pinAvailable+0x62>
   db506:	f000 f899 	bl	db63c <_Z19__fetch_global_Wirev>
   db50a:	2100      	movs	r1, #0
   db50c:	7c00      	ldrb	r0, [r0, #16]
   db50e:	f7fd fb3b 	bl	d8b88 <hal_i2c_is_enabled>
  if((pin == RX || pin == TX) && hal_usart_is_enabled(Serial1.interface()) == true)
   db512:	f080 0001 	eor.w	r0, r0, #1
   db516:	b2c0      	uxtb	r0, r0
   db518:	e7d2      	b.n	db4c0 <pinAvailable+0x8>
   db51a:	3809      	subs	r0, #9
   db51c:	2801      	cmp	r0, #1
   db51e:	d8ee      	bhi.n	db4fe <pinAvailable+0x46>
   db520:	f7ff fe5e 	bl	db1e0 <_Z22__fetch_global_Serial1v>
   db524:	7c00      	ldrb	r0, [r0, #16]
   db526:	f7fd fadf 	bl	d8ae8 <hal_usart_is_enabled>
   db52a:	e7f2      	b.n	db512 <pinAvailable+0x5a>
   db52c:	2003de24 	.word	0x2003de24
   db530:	2003de28 	.word	0x2003de28

000db534 <pinMode>:
  if(pin >= TOTAL_PINS || setMode == PIN_MODE_NONE )
   db534:	2823      	cmp	r0, #35	; 0x23
{
   db536:	b538      	push	{r3, r4, r5, lr}
   db538:	4604      	mov	r4, r0
   db53a:	460d      	mov	r5, r1
  if(pin >= TOTAL_PINS || setMode == PIN_MODE_NONE )
   db53c:	d80a      	bhi.n	db554 <pinMode+0x20>
   db53e:	29ff      	cmp	r1, #255	; 0xff
   db540:	d008      	beq.n	db554 <pinMode+0x20>
  if( !pinAvailable(pin) ) {
   db542:	f7ff ffb9 	bl	db4b8 <pinAvailable>
   db546:	b128      	cbz	r0, db554 <pinMode+0x20>
  HAL_Pin_Mode(pin, setMode);
   db548:	4629      	mov	r1, r5
   db54a:	4620      	mov	r0, r4
}
   db54c:	e8bd 4038 	ldmia.w	sp!, {r3, r4, r5, lr}
  HAL_Pin_Mode(pin, setMode);
   db550:	f7fd b988 	b.w	d8864 <HAL_Pin_Mode>
}
   db554:	bd38      	pop	{r3, r4, r5, pc}

000db556 <digitalWrite>:

/*
 * @brief Sets a GPIO pin to HIGH or LOW.
 */
void digitalWrite(pin_t pin, uint8_t value)
{
   db556:	b538      	push	{r3, r4, r5, lr}
   db558:	4604      	mov	r4, r0
   db55a:	460d      	mov	r5, r1
    PinMode mode = HAL_Get_Pin_Mode(pin);
   db55c:	f7fd f98a 	bl	d8874 <HAL_Get_Pin_Mode>
    if (mode==PIN_MODE_NONE || is_input_mode(mode))
   db560:	28ff      	cmp	r0, #255	; 0xff
   db562:	d010      	beq.n	db586 <digitalWrite+0x30>
            mode == INPUT_PULLDOWN ||
   db564:	2806      	cmp	r0, #6
   db566:	d804      	bhi.n	db572 <digitalWrite+0x1c>
   db568:	234d      	movs	r3, #77	; 0x4d
   db56a:	fa23 f000 	lsr.w	r0, r3, r0
   db56e:	07c3      	lsls	r3, r0, #31
   db570:	d409      	bmi.n	db586 <digitalWrite+0x30>
        return;
  // Safety check
  if( !pinAvailable(pin) ) {
   db572:	4620      	mov	r0, r4
   db574:	f7ff ffa0 	bl	db4b8 <pinAvailable>
   db578:	b128      	cbz	r0, db586 <digitalWrite+0x30>
    return;
  }

  HAL_GPIO_Write(pin, value);
   db57a:	4629      	mov	r1, r5
   db57c:	4620      	mov	r0, r4
}
   db57e:	e8bd 4038 	ldmia.w	sp!, {r3, r4, r5, lr}
  HAL_GPIO_Write(pin, value);
   db582:	f7fd b97f 	b.w	d8884 <HAL_GPIO_Write>
}
   db586:	bd38      	pop	{r3, r4, r5, pc}

000db588 <digitalRead>:

/*
 * @brief Reads the value of a GPIO pin. Should return either 1 (HIGH) or 0 (LOW).
 */
int32_t digitalRead(pin_t pin)
{
   db588:	b510      	push	{r4, lr}
   db58a:	4604      	mov	r4, r0
    PinMode mode = HAL_Get_Pin_Mode(pin);
   db58c:	f7fd f972 	bl	d8874 <HAL_Get_Pin_Mode>
    return mode == AF_OUTPUT_PUSHPULL ||
   db590:	1f03      	subs	r3, r0, #4
    if (is_af_output_mode(mode))
   db592:	b2db      	uxtb	r3, r3
   db594:	2b01      	cmp	r3, #1
   db596:	d908      	bls.n	db5aa <digitalRead+0x22>
        return LOW;

    // Safety check
    if( !pinAvailable(pin) ) {
   db598:	4620      	mov	r0, r4
   db59a:	f7ff ff8d 	bl	db4b8 <pinAvailable>
   db59e:	b120      	cbz	r0, db5aa <digitalRead+0x22>
      return LOW;
    }

    return HAL_GPIO_Read(pin);
   db5a0:	4620      	mov	r0, r4
}
   db5a2:	e8bd 4010 	ldmia.w	sp!, {r4, lr}
    return HAL_GPIO_Read(pin);
   db5a6:	f7fd b975 	b.w	d8894 <HAL_GPIO_Read>
}
   db5aa:	2000      	movs	r0, #0
   db5ac:	bd10      	pop	{r4, pc}
	...

000db5b0 <_Z21__fetch_global_EEPROMv>:

// we don't use this global instance since there's no actual instance data
// Having this keeps the unoptimized build happy

EEPROMClass& __fetch_global_EEPROM()
{
   db5b0:	b510      	push	{r4, lr}
	static EEPROMClass eeprom;
   db5b2:	4c08      	ldr	r4, [pc, #32]	; (db5d4 <_Z21__fetch_global_EEPROMv+0x24>)
   db5b4:	7823      	ldrb	r3, [r4, #0]
   db5b6:	f3bf 8f5b 	dmb	ish
   db5ba:	07db      	lsls	r3, r3, #31
   db5bc:	d408      	bmi.n	db5d0 <_Z21__fetch_global_EEPROMv+0x20>
   db5be:	4620      	mov	r0, r4
   db5c0:	f7f8 fd7a 	bl	d40b8 <__cxa_guard_acquire>
   db5c4:	b120      	cbz	r0, db5d0 <_Z21__fetch_global_EEPROMv+0x20>

struct EEPROMClass{

	EEPROMClass()
    {
    		HAL_EEPROM_Init();
   db5c6:	f7fd f98d 	bl	d88e4 <HAL_EEPROM_Init>
   db5ca:	4620      	mov	r0, r4
   db5cc:	f7f8 fd79 	bl	d40c2 <__cxa_guard_release>
	return eeprom;
}
   db5d0:	4801      	ldr	r0, [pc, #4]	; (db5d8 <_Z21__fetch_global_EEPROMv+0x28>)
   db5d2:	bd10      	pop	{r4, pc}
   db5d4:	2003e7bc 	.word	0x2003e7bc
   db5d8:	2003e7c0 	.word	0x2003e7c0

000db5dc <_Z17acquireWireBufferv>:
}

} // anonymous

hal_i2c_config_t __attribute__((weak)) acquireWireBuffer()
{
   db5dc:	b538      	push	{r3, r4, r5, lr}
	hal_i2c_config_t config = {
   db5de:	2300      	movs	r3, #0
   db5e0:	2520      	movs	r5, #32
   db5e2:	8043      	strh	r3, [r0, #2]
   db5e4:	2314      	movs	r3, #20
{
   db5e6:	4604      	mov	r4, r0
	hal_i2c_config_t config = {
   db5e8:	8003      	strh	r3, [r0, #0]
   db5ea:	6085      	str	r5, [r0, #8]
   db5ec:	6105      	str	r5, [r0, #16]
		.rx_buffer = new (std::nothrow) uint8_t[I2C_BUFFER_LENGTH],
   db5ee:	4906      	ldr	r1, [pc, #24]	; (db608 <_Z17acquireWireBufferv+0x2c>)
   db5f0:	4628      	mov	r0, r5
   db5f2:	f000 f87a 	bl	db6ea <_ZnajRKSt9nothrow_t>
		.tx_buffer = new (std::nothrow) uint8_t[I2C_BUFFER_LENGTH],
   db5f6:	4904      	ldr	r1, [pc, #16]	; (db608 <_Z17acquireWireBufferv+0x2c>)
	};
   db5f8:	6060      	str	r0, [r4, #4]
		.tx_buffer = new (std::nothrow) uint8_t[I2C_BUFFER_LENGTH],
   db5fa:	4628      	mov	r0, r5
   db5fc:	f000 f875 	bl	db6ea <_ZnajRKSt9nothrow_t>
	};
   db600:	60e0      	str	r0, [r4, #12]
	return defaultWireConfig();
}
   db602:	4620      	mov	r0, r4
   db604:	bd38      	pop	{r3, r4, r5, pc}
   db606:	bf00      	nop
   db608:	000dec6c 	.word	0x000dec6c

000db60c <_Z18acquireWire1Bufferv>:
   db60c:	b538      	push	{r3, r4, r5, lr}
   db60e:	2300      	movs	r3, #0
   db610:	2520      	movs	r5, #32
   db612:	8043      	strh	r3, [r0, #2]
   db614:	2314      	movs	r3, #20
   db616:	4604      	mov	r4, r0
   db618:	8003      	strh	r3, [r0, #0]
   db61a:	6085      	str	r5, [r0, #8]
   db61c:	6105      	str	r5, [r0, #16]
   db61e:	4906      	ldr	r1, [pc, #24]	; (db638 <_Z18acquireWire1Bufferv+0x2c>)
   db620:	4628      	mov	r0, r5
   db622:	f000 f862 	bl	db6ea <_ZnajRKSt9nothrow_t>
   db626:	4904      	ldr	r1, [pc, #16]	; (db638 <_Z18acquireWire1Bufferv+0x2c>)
   db628:	6060      	str	r0, [r4, #4]
   db62a:	4628      	mov	r0, r5
   db62c:	f000 f85d 	bl	db6ea <_ZnajRKSt9nothrow_t>
   db630:	60e0      	str	r0, [r4, #12]
   db632:	4620      	mov	r0, r4
   db634:	bd38      	pop	{r3, r4, r5, pc}
   db636:	bf00      	nop
   db638:	000dec6c 	.word	0x000dec6c

000db63c <_Z19__fetch_global_Wirev>:
	return defaultWireConfig();
}
#endif

TwoWire& __fetch_global_Wire()
{
   db63c:	b530      	push	{r4, r5, lr}
	static TwoWire wire(HAL_I2C_INTERFACE1, acquireWireBuffer());
   db63e:	4d0f      	ldr	r5, [pc, #60]	; (db67c <_Z19__fetch_global_Wirev+0x40>)
   db640:	7829      	ldrb	r1, [r5, #0]
   db642:	f3bf 8f5b 	dmb	ish
   db646:	f011 0401 	ands.w	r4, r1, #1
{
   db64a:	b087      	sub	sp, #28
	static TwoWire wire(HAL_I2C_INTERFACE1, acquireWireBuffer());
   db64c:	d113      	bne.n	db676 <_Z19__fetch_global_Wirev+0x3a>
   db64e:	4628      	mov	r0, r5
   db650:	f7f8 fd32 	bl	d40b8 <__cxa_guard_acquire>
   db654:	b178      	cbz	r0, db676 <_Z19__fetch_global_Wirev+0x3a>
   db656:	a801      	add	r0, sp, #4
   db658:	f7ff ffc0 	bl	db5dc <_Z17acquireWireBufferv>
   db65c:	aa01      	add	r2, sp, #4
   db65e:	4621      	mov	r1, r4
   db660:	4807      	ldr	r0, [pc, #28]	; (db680 <_Z19__fetch_global_Wirev+0x44>)
   db662:	f7ff fe13 	bl	db28c <_ZN7TwoWireC1E19hal_i2c_interface_tRK16hal_i2c_config_t>
   db666:	4628      	mov	r0, r5
   db668:	f7f8 fd2b 	bl	d40c2 <__cxa_guard_release>
   db66c:	4a05      	ldr	r2, [pc, #20]	; (db684 <_Z19__fetch_global_Wirev+0x48>)
   db66e:	4906      	ldr	r1, [pc, #24]	; (db688 <_Z19__fetch_global_Wirev+0x4c>)
   db670:	4803      	ldr	r0, [pc, #12]	; (db680 <_Z19__fetch_global_Wirev+0x44>)
   db672:	f000 f833 	bl	db6dc <__aeabi_atexit>
	return wire;
}
   db676:	4802      	ldr	r0, [pc, #8]	; (db680 <_Z19__fetch_global_Wirev+0x44>)
   db678:	b007      	add	sp, #28
   db67a:	bd30      	pop	{r4, r5, pc}
   db67c:	2003e7c4 	.word	0x2003e7c4
   db680:	2003e7cc 	.word	0x2003e7cc
   db684:	2003de20 	.word	0x2003de20
   db688:	000db235 	.word	0x000db235

000db68c <_Z20__fetch_global_Wire1v>:

#if Wiring_Wire1
TwoWire& __fetch_global_Wire1()
{
   db68c:	b510      	push	{r4, lr}
	static TwoWire wire(HAL_I2C_INTERFACE2, acquireWire1Buffer());
   db68e:	4c0f      	ldr	r4, [pc, #60]	; (db6cc <_Z20__fetch_global_Wire1v+0x40>)
   db690:	7823      	ldrb	r3, [r4, #0]
   db692:	f3bf 8f5b 	dmb	ish
   db696:	07db      	lsls	r3, r3, #31
{
   db698:	b086      	sub	sp, #24
	static TwoWire wire(HAL_I2C_INTERFACE2, acquireWire1Buffer());
   db69a:	d413      	bmi.n	db6c4 <_Z20__fetch_global_Wire1v+0x38>
   db69c:	4620      	mov	r0, r4
   db69e:	f7f8 fd0b 	bl	d40b8 <__cxa_guard_acquire>
   db6a2:	b178      	cbz	r0, db6c4 <_Z20__fetch_global_Wire1v+0x38>
   db6a4:	a801      	add	r0, sp, #4
   db6a6:	f7ff ffb1 	bl	db60c <_Z18acquireWire1Bufferv>
   db6aa:	aa01      	add	r2, sp, #4
   db6ac:	2101      	movs	r1, #1
   db6ae:	4808      	ldr	r0, [pc, #32]	; (db6d0 <_Z20__fetch_global_Wire1v+0x44>)
   db6b0:	f7ff fdec 	bl	db28c <_ZN7TwoWireC1E19hal_i2c_interface_tRK16hal_i2c_config_t>
   db6b4:	4620      	mov	r0, r4
   db6b6:	f7f8 fd04 	bl	d40c2 <__cxa_guard_release>
   db6ba:	4a06      	ldr	r2, [pc, #24]	; (db6d4 <_Z20__fetch_global_Wire1v+0x48>)
   db6bc:	4906      	ldr	r1, [pc, #24]	; (db6d8 <_Z20__fetch_global_Wire1v+0x4c>)
   db6be:	4804      	ldr	r0, [pc, #16]	; (db6d0 <_Z20__fetch_global_Wire1v+0x44>)
   db6c0:	f000 f80c 	bl	db6dc <__aeabi_atexit>
	return wire;
}
   db6c4:	4802      	ldr	r0, [pc, #8]	; (db6d0 <_Z20__fetch_global_Wire1v+0x44>)
   db6c6:	b006      	add	sp, #24
   db6c8:	bd10      	pop	{r4, pc}
   db6ca:	bf00      	nop
   db6cc:	2003e7c8 	.word	0x2003e7c8
   db6d0:	2003e7e0 	.word	0x2003e7e0
   db6d4:	2003de20 	.word	0x2003de20
   db6d8:	000db235 	.word	0x000db235

000db6dc <__aeabi_atexit>:
   db6dc:	460b      	mov	r3, r1
   db6de:	4601      	mov	r1, r0
   db6e0:	4618      	mov	r0, r3
   db6e2:	f002 ba81 	b.w	ddbe8 <__cxa_atexit>

000db6e6 <_ZdlPvj>:
   db6e6:	f7f8 bcda 	b.w	d409e <_ZdlPv>

000db6ea <_ZnajRKSt9nothrow_t>:
   db6ea:	f7f8 bcd6 	b.w	d409a <_Znaj>

000db6ee <_ZSt25__throw_bad_function_callv>:
   db6ee:	b508      	push	{r3, lr}
   db6f0:	f7fd fc34 	bl	d8f5c <abort>

000db6f4 <_ZNSt19_Sp_make_shared_tag5_S_eqERKSt9type_info>:
   db6f4:	4901      	ldr	r1, [pc, #4]	; (db6fc <_ZNSt19_Sp_make_shared_tag5_S_eqERKSt9type_info+0x8>)
   db6f6:	f000 b8f9 	b.w	db8ec <_ZNKSt9type_infoeqERKS_>
   db6fa:	bf00      	nop
   db6fc:	000dec88 	.word	0x000dec88

000db700 <_ZNK10__cxxabiv117__class_type_info11__do_upcastEPKS0_PPv>:
   db700:	b57f      	push	{r0, r1, r2, r3, r4, r5, r6, lr}
   db702:	2400      	movs	r4, #0
   db704:	2310      	movs	r3, #16
   db706:	e9cd 3402 	strd	r3, r4, [sp, #8]
   db70a:	6803      	ldr	r3, [r0, #0]
   db70c:	9400      	str	r4, [sp, #0]
   db70e:	699e      	ldr	r6, [r3, #24]
   db710:	f88d 4004 	strb.w	r4, [sp, #4]
   db714:	4615      	mov	r5, r2
   db716:	466b      	mov	r3, sp
   db718:	6812      	ldr	r2, [r2, #0]
   db71a:	47b0      	blx	r6
   db71c:	f89d 3004 	ldrb.w	r3, [sp, #4]
   db720:	f003 0306 	and.w	r3, r3, #6
   db724:	2b06      	cmp	r3, #6
   db726:	bf03      	ittte	eq
   db728:	9b00      	ldreq	r3, [sp, #0]
   db72a:	602b      	streq	r3, [r5, #0]
   db72c:	2001      	moveq	r0, #1
   db72e:	4620      	movne	r0, r4
   db730:	b004      	add	sp, #16
   db732:	bd70      	pop	{r4, r5, r6, pc}

000db734 <_ZNK10__cxxabiv117__class_type_info20__do_find_public_srcEiPKvPKS0_S2_>:
   db734:	9800      	ldr	r0, [sp, #0]
   db736:	4290      	cmp	r0, r2
   db738:	bf14      	ite	ne
   db73a:	2001      	movne	r0, #1
   db73c:	2006      	moveq	r0, #6
   db73e:	4770      	bx	lr

000db740 <_ZN10__cxxabiv117__class_type_infoD1Ev>:
   db740:	b510      	push	{r4, lr}
   db742:	4b03      	ldr	r3, [pc, #12]	; (db750 <_ZN10__cxxabiv117__class_type_infoD1Ev+0x10>)
   db744:	6003      	str	r3, [r0, #0]
   db746:	4604      	mov	r4, r0
   db748:	f000 f8cd 	bl	db8e6 <_ZNSt9type_infoD1Ev>
   db74c:	4620      	mov	r0, r4
   db74e:	bd10      	pop	{r4, pc}
   db750:	000decc8 	.word	0x000decc8

000db754 <_ZN10__cxxabiv117__class_type_infoD0Ev>:
   db754:	b510      	push	{r4, lr}
   db756:	4604      	mov	r4, r0
   db758:	f7ff fff2 	bl	db740 <_ZN10__cxxabiv117__class_type_infoD1Ev>
   db75c:	4620      	mov	r0, r4
   db75e:	2108      	movs	r1, #8
   db760:	f7ff ffc1 	bl	db6e6 <_ZdlPvj>
   db764:	4620      	mov	r0, r4
   db766:	bd10      	pop	{r4, pc}

000db768 <_ZNK10__cxxabiv117__class_type_info12__do_dyncastEiNS0_10__sub_kindEPKS0_PKvS3_S5_RNS0_16__dyncast_resultE>:
   db768:	e92d 41f0 	stmdb	sp!, {r4, r5, r6, r7, r8, lr}
   db76c:	461f      	mov	r7, r3
   db76e:	e9dd 3408 	ldrd	r3, r4, [sp, #32]
   db772:	f8dd 8018 	ldr.w	r8, [sp, #24]
   db776:	4598      	cmp	r8, r3
   db778:	4606      	mov	r6, r0
   db77a:	4615      	mov	r5, r2
   db77c:	d107      	bne.n	db78e <_ZNK10__cxxabiv117__class_type_info12__do_dyncastEiNS0_10__sub_kindEPKS0_PKvS3_S5_RNS0_16__dyncast_resultE+0x26>
   db77e:	9907      	ldr	r1, [sp, #28]
   db780:	f000 f8b4 	bl	db8ec <_ZNKSt9type_infoeqERKS_>
   db784:	b118      	cbz	r0, db78e <_ZNK10__cxxabiv117__class_type_info12__do_dyncastEiNS0_10__sub_kindEPKS0_PKvS3_S5_RNS0_16__dyncast_resultE+0x26>
   db786:	7165      	strb	r5, [r4, #5]
   db788:	2000      	movs	r0, #0
   db78a:	e8bd 81f0 	ldmia.w	sp!, {r4, r5, r6, r7, r8, pc}
   db78e:	4639      	mov	r1, r7
   db790:	4630      	mov	r0, r6
   db792:	f000 f8ab 	bl	db8ec <_ZNKSt9type_infoeqERKS_>
   db796:	2800      	cmp	r0, #0
   db798:	d0f6      	beq.n	db788 <_ZNK10__cxxabiv117__class_type_info12__do_dyncastEiNS0_10__sub_kindEPKS0_PKvS3_S5_RNS0_16__dyncast_resultE+0x20>
   db79a:	2301      	movs	r3, #1
   db79c:	f8c4 8000 	str.w	r8, [r4]
   db7a0:	7125      	strb	r5, [r4, #4]
   db7a2:	71a3      	strb	r3, [r4, #6]
   db7a4:	e7f0      	b.n	db788 <_ZNK10__cxxabiv117__class_type_info12__do_dyncastEiNS0_10__sub_kindEPKS0_PKvS3_S5_RNS0_16__dyncast_resultE+0x20>

000db7a6 <_ZNK10__cxxabiv117__class_type_info11__do_upcastEPKS0_PKvRNS0_15__upcast_resultE>:
   db7a6:	b538      	push	{r3, r4, r5, lr}
   db7a8:	4615      	mov	r5, r2
   db7aa:	461c      	mov	r4, r3
   db7ac:	f000 f89e 	bl	db8ec <_ZNKSt9type_infoeqERKS_>
   db7b0:	b120      	cbz	r0, db7bc <_ZNK10__cxxabiv117__class_type_info11__do_upcastEPKS0_PKvRNS0_15__upcast_resultE+0x16>
   db7b2:	2308      	movs	r3, #8
   db7b4:	60e3      	str	r3, [r4, #12]
   db7b6:	2306      	movs	r3, #6
   db7b8:	6025      	str	r5, [r4, #0]
   db7ba:	7123      	strb	r3, [r4, #4]
   db7bc:	bd38      	pop	{r3, r4, r5, pc}

000db7be <_ZNK10__cxxabiv117__class_type_info10__do_catchEPKSt9type_infoPPvj>:
   db7be:	b573      	push	{r0, r1, r4, r5, r6, lr}
   db7c0:	4605      	mov	r5, r0
   db7c2:	460c      	mov	r4, r1
   db7c4:	9201      	str	r2, [sp, #4]
   db7c6:	461e      	mov	r6, r3
   db7c8:	f000 f890 	bl	db8ec <_ZNKSt9type_infoeqERKS_>
   db7cc:	b950      	cbnz	r0, db7e4 <_ZNK10__cxxabiv117__class_type_info10__do_catchEPKSt9type_infoPPvj+0x26>
   db7ce:	2e03      	cmp	r6, #3
   db7d0:	d808      	bhi.n	db7e4 <_ZNK10__cxxabiv117__class_type_info10__do_catchEPKSt9type_infoPPvj+0x26>
   db7d2:	6823      	ldr	r3, [r4, #0]
   db7d4:	9a01      	ldr	r2, [sp, #4]
   db7d6:	695b      	ldr	r3, [r3, #20]
   db7d8:	4629      	mov	r1, r5
   db7da:	4620      	mov	r0, r4
   db7dc:	b002      	add	sp, #8
   db7de:	e8bd 4070 	ldmia.w	sp!, {r4, r5, r6, lr}
   db7e2:	4718      	bx	r3
   db7e4:	b002      	add	sp, #8
   db7e6:	bd70      	pop	{r4, r5, r6, pc}

000db7e8 <_ZN10__cxxabiv120__si_class_type_infoD1Ev>:
   db7e8:	b510      	push	{r4, lr}
   db7ea:	4b03      	ldr	r3, [pc, #12]	; (db7f8 <_ZN10__cxxabiv120__si_class_type_infoD1Ev+0x10>)
   db7ec:	6003      	str	r3, [r0, #0]
   db7ee:	4604      	mov	r4, r0
   db7f0:	f7ff ffa6 	bl	db740 <_ZN10__cxxabiv117__class_type_infoD1Ev>
   db7f4:	4620      	mov	r0, r4
   db7f6:	bd10      	pop	{r4, pc}
   db7f8:	000ded28 	.word	0x000ded28

000db7fc <_ZN10__cxxabiv120__si_class_type_infoD0Ev>:
   db7fc:	b510      	push	{r4, lr}
   db7fe:	4604      	mov	r4, r0
   db800:	f7ff fff2 	bl	db7e8 <_ZN10__cxxabiv120__si_class_type_infoD1Ev>
   db804:	4620      	mov	r0, r4
   db806:	210c      	movs	r1, #12
   db808:	f7ff ff6d 	bl	db6e6 <_ZdlPvj>
   db80c:	4620      	mov	r0, r4
   db80e:	bd10      	pop	{r4, pc}

000db810 <_ZNK10__cxxabiv120__si_class_type_info20__do_find_public_srcEiPKvPKNS_17__class_type_infoES2_>:
   db810:	b5f7      	push	{r0, r1, r2, r4, r5, r6, r7, lr}
   db812:	9f08      	ldr	r7, [sp, #32]
   db814:	4297      	cmp	r7, r2
   db816:	4605      	mov	r5, r0
   db818:	460e      	mov	r6, r1
   db81a:	4614      	mov	r4, r2
   db81c:	d00a      	beq.n	db834 <_ZNK10__cxxabiv120__si_class_type_info20__do_find_public_srcEiPKvPKNS_17__class_type_infoES2_+0x24>
   db81e:	68a8      	ldr	r0, [r5, #8]
   db820:	6802      	ldr	r2, [r0, #0]
   db822:	9708      	str	r7, [sp, #32]
   db824:	6a15      	ldr	r5, [r2, #32]
   db826:	4631      	mov	r1, r6
   db828:	4622      	mov	r2, r4
   db82a:	46ac      	mov	ip, r5
   db82c:	b003      	add	sp, #12
   db82e:	e8bd 40f0 	ldmia.w	sp!, {r4, r5, r6, r7, lr}
   db832:	4760      	bx	ip
   db834:	4619      	mov	r1, r3
   db836:	9301      	str	r3, [sp, #4]
   db838:	f000 f858 	bl	db8ec <_ZNKSt9type_infoeqERKS_>
   db83c:	9b01      	ldr	r3, [sp, #4]
   db83e:	2800      	cmp	r0, #0
   db840:	d0ed      	beq.n	db81e <_ZNK10__cxxabiv120__si_class_type_info20__do_find_public_srcEiPKvPKNS_17__class_type_infoES2_+0xe>
   db842:	2006      	movs	r0, #6
   db844:	b003      	add	sp, #12
   db846:	bdf0      	pop	{r4, r5, r6, r7, pc}

000db848 <_ZNK10__cxxabiv120__si_class_type_info12__do_dyncastEiNS_17__class_type_info10__sub_kindEPKS1_PKvS4_S6_RNS1_16__dyncast_resultE>:
   db848:	e92d 4ff1 	stmdb	sp!, {r0, r4, r5, r6, r7, r8, r9, sl, fp, lr}
   db84c:	460d      	mov	r5, r1
   db84e:	4619      	mov	r1, r3
   db850:	e9dd 4b0a 	ldrd	r4, fp, [sp, #40]	; 0x28
   db854:	e9dd a60c 	ldrd	sl, r6, [sp, #48]	; 0x30
   db858:	4681      	mov	r9, r0
   db85a:	4617      	mov	r7, r2
   db85c:	4698      	mov	r8, r3
   db85e:	f000 f845 	bl	db8ec <_ZNKSt9type_infoeqERKS_>
   db862:	b190      	cbz	r0, db88a <_ZNK10__cxxabiv120__si_class_type_info12__do_dyncastEiNS_17__class_type_info10__sub_kindEPKS1_PKvS4_S6_RNS1_16__dyncast_resultE+0x42>
   db864:	2d00      	cmp	r5, #0
   db866:	6034      	str	r4, [r6, #0]
   db868:	7137      	strb	r7, [r6, #4]
   db86a:	db09      	blt.n	db880 <_ZNK10__cxxabiv120__si_class_type_info12__do_dyncastEiNS_17__class_type_info10__sub_kindEPKS1_PKvS4_S6_RNS1_16__dyncast_resultE+0x38>
   db86c:	1961      	adds	r1, r4, r5
   db86e:	458a      	cmp	sl, r1
   db870:	bf0c      	ite	eq
   db872:	2106      	moveq	r1, #6
   db874:	2101      	movne	r1, #1
   db876:	71b1      	strb	r1, [r6, #6]
   db878:	2000      	movs	r0, #0
   db87a:	b001      	add	sp, #4
   db87c:	e8bd 8ff0 	ldmia.w	sp!, {r4, r5, r6, r7, r8, r9, sl, fp, pc}
   db880:	3502      	adds	r5, #2
   db882:	d1f9      	bne.n	db878 <_ZNK10__cxxabiv120__si_class_type_info12__do_dyncastEiNS_17__class_type_info10__sub_kindEPKS1_PKvS4_S6_RNS1_16__dyncast_resultE+0x30>
   db884:	2301      	movs	r3, #1
   db886:	71b3      	strb	r3, [r6, #6]
   db888:	e7f6      	b.n	db878 <_ZNK10__cxxabiv120__si_class_type_info12__do_dyncastEiNS_17__class_type_info10__sub_kindEPKS1_PKvS4_S6_RNS1_16__dyncast_resultE+0x30>
   db88a:	4554      	cmp	r4, sl
   db88c:	d106      	bne.n	db89c <_ZNK10__cxxabiv120__si_class_type_info12__do_dyncastEiNS_17__class_type_info10__sub_kindEPKS1_PKvS4_S6_RNS1_16__dyncast_resultE+0x54>
   db88e:	4659      	mov	r1, fp
   db890:	4648      	mov	r0, r9
   db892:	f000 f82b 	bl	db8ec <_ZNKSt9type_infoeqERKS_>
   db896:	b108      	cbz	r0, db89c <_ZNK10__cxxabiv120__si_class_type_info12__do_dyncastEiNS_17__class_type_info10__sub_kindEPKS1_PKvS4_S6_RNS1_16__dyncast_resultE+0x54>
   db898:	7177      	strb	r7, [r6, #5]
   db89a:	e7ed      	b.n	db878 <_ZNK10__cxxabiv120__si_class_type_info12__do_dyncastEiNS_17__class_type_info10__sub_kindEPKS1_PKvS4_S6_RNS1_16__dyncast_resultE+0x30>
   db89c:	f8d9 0008 	ldr.w	r0, [r9, #8]
   db8a0:	6803      	ldr	r3, [r0, #0]
   db8a2:	e9cd a60c 	strd	sl, r6, [sp, #48]	; 0x30
   db8a6:	e9cd 4b0a 	strd	r4, fp, [sp, #40]	; 0x28
   db8aa:	69dc      	ldr	r4, [r3, #28]
   db8ac:	463a      	mov	r2, r7
   db8ae:	4643      	mov	r3, r8
   db8b0:	4629      	mov	r1, r5
   db8b2:	46a4      	mov	ip, r4
   db8b4:	b001      	add	sp, #4
   db8b6:	e8bd 4ff0 	ldmia.w	sp!, {r4, r5, r6, r7, r8, r9, sl, fp, lr}
   db8ba:	4760      	bx	ip

000db8bc <_ZNK10__cxxabiv120__si_class_type_info11__do_upcastEPKNS_17__class_type_infoEPKvRNS1_15__upcast_resultE>:
   db8bc:	e92d 41f0 	stmdb	sp!, {r4, r5, r6, r7, r8, lr}
   db8c0:	4607      	mov	r7, r0
   db8c2:	460c      	mov	r4, r1
   db8c4:	4615      	mov	r5, r2
   db8c6:	461e      	mov	r6, r3
   db8c8:	f7ff ff6d 	bl	db7a6 <_ZNK10__cxxabiv117__class_type_info11__do_upcastEPKS0_PKvRNS0_15__upcast_resultE>
   db8cc:	b948      	cbnz	r0, db8e2 <_ZNK10__cxxabiv120__si_class_type_info11__do_upcastEPKNS_17__class_type_infoEPKvRNS1_15__upcast_resultE+0x26>
   db8ce:	68b8      	ldr	r0, [r7, #8]
   db8d0:	6803      	ldr	r3, [r0, #0]
   db8d2:	699f      	ldr	r7, [r3, #24]
   db8d4:	462a      	mov	r2, r5
   db8d6:	4633      	mov	r3, r6
   db8d8:	4621      	mov	r1, r4
   db8da:	46bc      	mov	ip, r7
   db8dc:	e8bd 41f0 	ldmia.w	sp!, {r4, r5, r6, r7, r8, lr}
   db8e0:	4760      	bx	ip
   db8e2:	e8bd 81f0 	ldmia.w	sp!, {r4, r5, r6, r7, r8, pc}

000db8e6 <_ZNSt9type_infoD1Ev>:
   db8e6:	4770      	bx	lr

000db8e8 <_ZNKSt9type_info14__is_pointer_pEv>:
   db8e8:	2000      	movs	r0, #0
   db8ea:	4770      	bx	lr

000db8ec <_ZNKSt9type_infoeqERKS_>:
   db8ec:	4281      	cmp	r1, r0
   db8ee:	b508      	push	{r3, lr}
   db8f0:	d00e      	beq.n	db910 <_ZNKSt9type_infoeqERKS_+0x24>
   db8f2:	6840      	ldr	r0, [r0, #4]
   db8f4:	7803      	ldrb	r3, [r0, #0]
   db8f6:	2b2a      	cmp	r3, #42	; 0x2a
   db8f8:	d00c      	beq.n	db914 <_ZNKSt9type_infoeqERKS_+0x28>
   db8fa:	6849      	ldr	r1, [r1, #4]
   db8fc:	780b      	ldrb	r3, [r1, #0]
   db8fe:	2b2a      	cmp	r3, #42	; 0x2a
   db900:	bf08      	it	eq
   db902:	3101      	addeq	r1, #1
   db904:	f002 f9ed 	bl	ddce2 <strcmp>
   db908:	fab0 f080 	clz	r0, r0
   db90c:	0940      	lsrs	r0, r0, #5
   db90e:	bd08      	pop	{r3, pc}
   db910:	2001      	movs	r0, #1
   db912:	e7fc      	b.n	db90e <_ZNKSt9type_infoeqERKS_+0x22>
   db914:	2000      	movs	r0, #0
   db916:	e7fa      	b.n	db90e <_ZNKSt9type_infoeqERKS_+0x22>

000db918 <pow>:
   db918:	e92d 4ff0 	stmdb	sp!, {r4, r5, r6, r7, r8, r9, sl, fp, lr}
   db91c:	ed2d 8b02 	vpush	{d8}
   db920:	b08d      	sub	sp, #52	; 0x34
   db922:	ec57 6b10 	vmov	r6, r7, d0
   db926:	ec55 4b11 	vmov	r4, r5, d1
   db92a:	f000 f9ad 	bl	dbc88 <__ieee754_pow>
   db92e:	4bae      	ldr	r3, [pc, #696]	; (dbbe8 <pow+0x2d0>)
   db930:	eeb0 8a40 	vmov.f32	s16, s0
   db934:	eef0 8a60 	vmov.f32	s17, s1
   db938:	f993 9000 	ldrsb.w	r9, [r3]
   db93c:	f1b9 3fff 	cmp.w	r9, #4294967295
   db940:	d037      	beq.n	db9b2 <pow+0x9a>
   db942:	4622      	mov	r2, r4
   db944:	462b      	mov	r3, r5
   db946:	4620      	mov	r0, r4
   db948:	4629      	mov	r1, r5
   db94a:	f001 fdd9 	bl	dd500 <__aeabi_dcmpun>
   db94e:	4683      	mov	fp, r0
   db950:	bb78      	cbnz	r0, db9b2 <pow+0x9a>
   db952:	4632      	mov	r2, r6
   db954:	463b      	mov	r3, r7
   db956:	4630      	mov	r0, r6
   db958:	4639      	mov	r1, r7
   db95a:	f001 fdd1 	bl	dd500 <__aeabi_dcmpun>
   db95e:	4680      	mov	r8, r0
   db960:	2800      	cmp	r0, #0
   db962:	f040 8093 	bne.w	dba8c <pow+0x174>
   db966:	f04f 0a00 	mov.w	sl, #0
   db96a:	f04f 0b00 	mov.w	fp, #0
   db96e:	4630      	mov	r0, r6
   db970:	4639      	mov	r1, r7
   db972:	4652      	mov	r2, sl
   db974:	465b      	mov	r3, fp
   db976:	f001 fd91 	bl	dd49c <__aeabi_dcmpeq>
   db97a:	b318      	cbz	r0, db9c4 <pow+0xac>
   db97c:	4652      	mov	r2, sl
   db97e:	465b      	mov	r3, fp
   db980:	4620      	mov	r0, r4
   db982:	4629      	mov	r1, r5
   db984:	f001 fd8a 	bl	dd49c <__aeabi_dcmpeq>
   db988:	9000      	str	r0, [sp, #0]
   db98a:	2800      	cmp	r0, #0
   db98c:	d057      	beq.n	dba3e <pow+0x126>
   db98e:	4b97      	ldr	r3, [pc, #604]	; (dbbec <pow+0x2d4>)
   db990:	f8cd 8028 	str.w	r8, [sp, #40]	; 0x28
   db994:	2201      	movs	r2, #1
   db996:	e9cd 6704 	strd	r6, r7, [sp, #16]
   db99a:	e9cd 4506 	strd	r4, r5, [sp, #24]
   db99e:	e9cd ab08 	strd	sl, fp, [sp, #32]
   db9a2:	9202      	str	r2, [sp, #8]
   db9a4:	9303      	str	r3, [sp, #12]
   db9a6:	f1b9 0f00 	cmp.w	r9, #0
   db9aa:	f000 8089 	beq.w	dbac0 <pow+0x1a8>
   db9ae:	ed9f 8b8a 	vldr	d8, [pc, #552]	; dbbd8 <pow+0x2c0>
   db9b2:	eeb0 0a48 	vmov.f32	s0, s16
   db9b6:	eef0 0a68 	vmov.f32	s1, s17
   db9ba:	b00d      	add	sp, #52	; 0x34
   db9bc:	ecbd 8b02 	vpop	{d8}
   db9c0:	e8bd 8ff0 	ldmia.w	sp!, {r4, r5, r6, r7, r8, r9, sl, fp, pc}
   db9c4:	eeb0 0a48 	vmov.f32	s0, s16
   db9c8:	eef0 0a68 	vmov.f32	s1, s17
   db9cc:	f001 f804 	bl	dc9d8 <finite>
   db9d0:	4680      	mov	r8, r0
   db9d2:	2800      	cmp	r0, #0
   db9d4:	f000 8082 	beq.w	dbadc <pow+0x1c4>
   db9d8:	f04f 0800 	mov.w	r8, #0
   db9dc:	f04f 0900 	mov.w	r9, #0
   db9e0:	ec51 0b18 	vmov	r0, r1, d8
   db9e4:	4642      	mov	r2, r8
   db9e6:	464b      	mov	r3, r9
   db9e8:	f001 fd58 	bl	dd49c <__aeabi_dcmpeq>
   db9ec:	2800      	cmp	r0, #0
   db9ee:	d0e0      	beq.n	db9b2 <pow+0x9a>
   db9f0:	ec47 6b10 	vmov	d0, r6, r7
   db9f4:	f000 fff0 	bl	dc9d8 <finite>
   db9f8:	2800      	cmp	r0, #0
   db9fa:	d0da      	beq.n	db9b2 <pow+0x9a>
   db9fc:	ec45 4b10 	vmov	d0, r4, r5
   dba00:	f000 ffea 	bl	dc9d8 <finite>
   dba04:	2800      	cmp	r0, #0
   dba06:	d0d4      	beq.n	db9b2 <pow+0x9a>
   dba08:	4b77      	ldr	r3, [pc, #476]	; (dbbe8 <pow+0x2d0>)
   dba0a:	4a78      	ldr	r2, [pc, #480]	; (dbbec <pow+0x2d4>)
   dba0c:	f993 3000 	ldrsb.w	r3, [r3]
   dba10:	9203      	str	r2, [sp, #12]
   dba12:	2104      	movs	r1, #4
   dba14:	2200      	movs	r2, #0
   dba16:	2b02      	cmp	r3, #2
   dba18:	e9cd 6704 	strd	r6, r7, [sp, #16]
   dba1c:	e9cd 4506 	strd	r4, r5, [sp, #24]
   dba20:	e9cd 8908 	strd	r8, r9, [sp, #32]
   dba24:	9102      	str	r1, [sp, #8]
   dba26:	920a      	str	r2, [sp, #40]	; 0x28
   dba28:	d004      	beq.n	dba34 <pow+0x11c>
   dba2a:	a802      	add	r0, sp, #8
   dba2c:	f000 ffe0 	bl	dc9f0 <matherr>
   dba30:	2800      	cmp	r0, #0
   dba32:	d14a      	bne.n	dbaca <pow+0x1b2>
   dba34:	f7fd fa9a 	bl	d8f6c <__errno>
   dba38:	2322      	movs	r3, #34	; 0x22
   dba3a:	6003      	str	r3, [r0, #0]
   dba3c:	e045      	b.n	dbaca <pow+0x1b2>
   dba3e:	ec45 4b10 	vmov	d0, r4, r5
   dba42:	f000 ffc9 	bl	dc9d8 <finite>
   dba46:	2800      	cmp	r0, #0
   dba48:	d0b3      	beq.n	db9b2 <pow+0x9a>
   dba4a:	4652      	mov	r2, sl
   dba4c:	465b      	mov	r3, fp
   dba4e:	4620      	mov	r0, r4
   dba50:	4629      	mov	r1, r5
   dba52:	f001 fd2d 	bl	dd4b0 <__aeabi_dcmplt>
   dba56:	2800      	cmp	r0, #0
   dba58:	d0ab      	beq.n	db9b2 <pow+0x9a>
   dba5a:	4b63      	ldr	r3, [pc, #396]	; (dbbe8 <pow+0x2d0>)
   dba5c:	9900      	ldr	r1, [sp, #0]
   dba5e:	4a63      	ldr	r2, [pc, #396]	; (dbbec <pow+0x2d4>)
   dba60:	f993 3000 	ldrsb.w	r3, [r3]
   dba64:	910a      	str	r1, [sp, #40]	; 0x28
   dba66:	2101      	movs	r1, #1
   dba68:	e9cd 6704 	strd	r6, r7, [sp, #16]
   dba6c:	e9cd 4506 	strd	r4, r5, [sp, #24]
   dba70:	e9cd 1202 	strd	r1, r2, [sp, #8]
   dba74:	2b00      	cmp	r3, #0
   dba76:	d16f      	bne.n	dbb58 <pow+0x240>
   dba78:	e9cd ab08 	strd	sl, fp, [sp, #32]
   dba7c:	a802      	add	r0, sp, #8
   dba7e:	f000 ffb7 	bl	dc9f0 <matherr>
   dba82:	2800      	cmp	r0, #0
   dba84:	d06e      	beq.n	dbb64 <pow+0x24c>
   dba86:	9b0a      	ldr	r3, [sp, #40]	; 0x28
   dba88:	b32b      	cbz	r3, dbad6 <pow+0x1be>
   dba8a:	e020      	b.n	dbace <pow+0x1b6>
   dba8c:	2200      	movs	r2, #0
   dba8e:	2300      	movs	r3, #0
   dba90:	4620      	mov	r0, r4
   dba92:	4629      	mov	r1, r5
   dba94:	f001 fd02 	bl	dd49c <__aeabi_dcmpeq>
   dba98:	2800      	cmp	r0, #0
   dba9a:	d08a      	beq.n	db9b2 <pow+0x9a>
   dba9c:	ed9f 8b4e 	vldr	d8, [pc, #312]	; dbbd8 <pow+0x2c0>
   dbaa0:	4b52      	ldr	r3, [pc, #328]	; (dbbec <pow+0x2d4>)
   dbaa2:	f8cd b028 	str.w	fp, [sp, #40]	; 0x28
   dbaa6:	2201      	movs	r2, #1
   dbaa8:	f1b9 0f02 	cmp.w	r9, #2
   dbaac:	e9cd 6704 	strd	r6, r7, [sp, #16]
   dbab0:	e9cd 4506 	strd	r4, r5, [sp, #24]
   dbab4:	ed8d 8b08 	vstr	d8, [sp, #32]
   dbab8:	9202      	str	r2, [sp, #8]
   dbaba:	9303      	str	r3, [sp, #12]
   dbabc:	f43f af79 	beq.w	db9b2 <pow+0x9a>
   dbac0:	a802      	add	r0, sp, #8
   dbac2:	f000 ff95 	bl	dc9f0 <matherr>
   dbac6:	2800      	cmp	r0, #0
   dbac8:	d051      	beq.n	dbb6e <pow+0x256>
   dbaca:	9b0a      	ldr	r3, [sp, #40]	; 0x28
   dbacc:	b11b      	cbz	r3, dbad6 <pow+0x1be>
   dbace:	f7fd fa4d 	bl	d8f6c <__errno>
   dbad2:	9b0a      	ldr	r3, [sp, #40]	; 0x28
   dbad4:	6003      	str	r3, [r0, #0]
   dbad6:	ed9d 8b08 	vldr	d8, [sp, #32]
   dbada:	e76a      	b.n	db9b2 <pow+0x9a>
   dbadc:	ec47 6b10 	vmov	d0, r6, r7
   dbae0:	f000 ff7a 	bl	dc9d8 <finite>
   dbae4:	2800      	cmp	r0, #0
   dbae6:	f43f af77 	beq.w	db9d8 <pow+0xc0>
   dbaea:	ec45 4b10 	vmov	d0, r4, r5
   dbaee:	f000 ff73 	bl	dc9d8 <finite>
   dbaf2:	2800      	cmp	r0, #0
   dbaf4:	f43f af70 	beq.w	db9d8 <pow+0xc0>
   dbaf8:	ec53 2b18 	vmov	r2, r3, d8
   dbafc:	ee18 0a10 	vmov	r0, s16
   dbb00:	4619      	mov	r1, r3
   dbb02:	f001 fcfd 	bl	dd500 <__aeabi_dcmpun>
   dbb06:	4b38      	ldr	r3, [pc, #224]	; (dbbe8 <pow+0x2d0>)
   dbb08:	2800      	cmp	r0, #0
   dbb0a:	f040 8096 	bne.w	dbc3a <pow+0x322>
   dbb0e:	f993 8000 	ldrsb.w	r8, [r3]
   dbb12:	900a      	str	r0, [sp, #40]	; 0x28
   dbb14:	2303      	movs	r3, #3
   dbb16:	9302      	str	r3, [sp, #8]
   dbb18:	4b34      	ldr	r3, [pc, #208]	; (dbbec <pow+0x2d4>)
   dbb1a:	9303      	str	r3, [sp, #12]
   dbb1c:	e9cd 6704 	strd	r6, r7, [sp, #16]
   dbb20:	e9cd 4506 	strd	r4, r5, [sp, #24]
   dbb24:	f1b8 0f00 	cmp.w	r8, #0
   dbb28:	d126      	bne.n	dbb78 <pow+0x260>
   dbb2a:	f8df 90d0 	ldr.w	r9, [pc, #208]	; dbbfc <pow+0x2e4>
   dbb2e:	f04f 4860 	mov.w	r8, #3758096384	; 0xe0000000
   dbb32:	4652      	mov	r2, sl
   dbb34:	465b      	mov	r3, fp
   dbb36:	4630      	mov	r0, r6
   dbb38:	4639      	mov	r1, r7
   dbb3a:	e9cd 8908 	strd	r8, r9, [sp, #32]
   dbb3e:	f001 fcb7 	bl	dd4b0 <__aeabi_dcmplt>
   dbb42:	bb48      	cbnz	r0, dbb98 <pow+0x280>
   dbb44:	a802      	add	r0, sp, #8
   dbb46:	f000 ff53 	bl	dc9f0 <matherr>
   dbb4a:	2800      	cmp	r0, #0
   dbb4c:	d19b      	bne.n	dba86 <pow+0x16e>
   dbb4e:	f7fd fa0d 	bl	d8f6c <__errno>
   dbb52:	2322      	movs	r3, #34	; 0x22
   dbb54:	6003      	str	r3, [r0, #0]
   dbb56:	e796      	b.n	dba86 <pow+0x16e>
   dbb58:	4925      	ldr	r1, [pc, #148]	; (dbbf0 <pow+0x2d8>)
   dbb5a:	2000      	movs	r0, #0
   dbb5c:	2b02      	cmp	r3, #2
   dbb5e:	e9cd 0108 	strd	r0, r1, [sp, #32]
   dbb62:	d18b      	bne.n	dba7c <pow+0x164>
   dbb64:	f7fd fa02 	bl	d8f6c <__errno>
   dbb68:	2321      	movs	r3, #33	; 0x21
   dbb6a:	6003      	str	r3, [r0, #0]
   dbb6c:	e78b      	b.n	dba86 <pow+0x16e>
   dbb6e:	f7fd f9fd 	bl	d8f6c <__errno>
   dbb72:	2321      	movs	r3, #33	; 0x21
   dbb74:	6003      	str	r3, [r0, #0]
   dbb76:	e7a8      	b.n	dbaca <pow+0x1b2>
   dbb78:	ed9f 7b19 	vldr	d7, [pc, #100]	; dbbe0 <pow+0x2c8>
   dbb7c:	4652      	mov	r2, sl
   dbb7e:	465b      	mov	r3, fp
   dbb80:	4630      	mov	r0, r6
   dbb82:	4639      	mov	r1, r7
   dbb84:	ed8d 7b08 	vstr	d7, [sp, #32]
   dbb88:	f001 fc92 	bl	dd4b0 <__aeabi_dcmplt>
   dbb8c:	2800      	cmp	r0, #0
   dbb8e:	d137      	bne.n	dbc00 <pow+0x2e8>
   dbb90:	f1b8 0f02 	cmp.w	r8, #2
   dbb94:	d0db      	beq.n	dbb4e <pow+0x236>
   dbb96:	e7d5      	b.n	dbb44 <pow+0x22c>
   dbb98:	4b16      	ldr	r3, [pc, #88]	; (dbbf4 <pow+0x2dc>)
   dbb9a:	2200      	movs	r2, #0
   dbb9c:	4620      	mov	r0, r4
   dbb9e:	4629      	mov	r1, r5
   dbba0:	f001 fa14 	bl	dcfcc <__aeabi_dmul>
   dbba4:	4602      	mov	r2, r0
   dbba6:	460b      	mov	r3, r1
   dbba8:	ec43 2b10 	vmov	d0, r2, r3
   dbbac:	e9cd 2300 	strd	r2, r3, [sp]
   dbbb0:	f000 ff2a 	bl	dca08 <rint>
   dbbb4:	e9dd 2300 	ldrd	r2, r3, [sp]
   dbbb8:	ec51 0b10 	vmov	r0, r1, d0
   dbbbc:	f001 fc6e 	bl	dd49c <__aeabi_dcmpeq>
   dbbc0:	2800      	cmp	r0, #0
   dbbc2:	d136      	bne.n	dbc32 <pow+0x31a>
   dbbc4:	4b0c      	ldr	r3, [pc, #48]	; (dbbf8 <pow+0x2e0>)
   dbbc6:	4908      	ldr	r1, [pc, #32]	; (dbbe8 <pow+0x2d0>)
   dbbc8:	f04f 4260 	mov.w	r2, #3758096384	; 0xe0000000
   dbbcc:	e9cd 2308 	strd	r2, r3, [sp, #32]
   dbbd0:	f991 8000 	ldrsb.w	r8, [r1]
   dbbd4:	e7dc      	b.n	dbb90 <pow+0x278>
   dbbd6:	bf00      	nop
   dbbd8:	00000000 	.word	0x00000000
   dbbdc:	3ff00000 	.word	0x3ff00000
   dbbe0:	00000000 	.word	0x00000000
   dbbe4:	7ff00000 	.word	0x7ff00000
   dbbe8:	2003ddb4 	.word	0x2003ddb4
   dbbec:	000ded64 	.word	0x000ded64
   dbbf0:	fff00000 	.word	0xfff00000
   dbbf4:	3fe00000 	.word	0x3fe00000
   dbbf8:	c7efffff 	.word	0xc7efffff
   dbbfc:	47efffff 	.word	0x47efffff
   dbc00:	4b1c      	ldr	r3, [pc, #112]	; (dbc74 <pow+0x35c>)
   dbc02:	2200      	movs	r2, #0
   dbc04:	4620      	mov	r0, r4
   dbc06:	4629      	mov	r1, r5
   dbc08:	f001 f9e0 	bl	dcfcc <__aeabi_dmul>
   dbc0c:	4602      	mov	r2, r0
   dbc0e:	460b      	mov	r3, r1
   dbc10:	ec43 2b10 	vmov	d0, r2, r3
   dbc14:	e9cd 2300 	strd	r2, r3, [sp]
   dbc18:	f000 fef6 	bl	dca08 <rint>
   dbc1c:	e9dd 2300 	ldrd	r2, r3, [sp]
   dbc20:	ec51 0b10 	vmov	r0, r1, d0
   dbc24:	f001 fc3a 	bl	dd49c <__aeabi_dcmpeq>
   dbc28:	b918      	cbnz	r0, dbc32 <pow+0x31a>
   dbc2a:	4b13      	ldr	r3, [pc, #76]	; (dbc78 <pow+0x360>)
   dbc2c:	2200      	movs	r2, #0
   dbc2e:	e9cd 2308 	strd	r2, r3, [sp, #32]
   dbc32:	4b12      	ldr	r3, [pc, #72]	; (dbc7c <pow+0x364>)
   dbc34:	f993 8000 	ldrsb.w	r8, [r3]
   dbc38:	e7aa      	b.n	dbb90 <pow+0x278>
   dbc3a:	f993 9000 	ldrsb.w	r9, [r3]
   dbc3e:	4b10      	ldr	r3, [pc, #64]	; (dbc80 <pow+0x368>)
   dbc40:	f8cd 8028 	str.w	r8, [sp, #40]	; 0x28
   dbc44:	2201      	movs	r2, #1
   dbc46:	e9cd 6704 	strd	r6, r7, [sp, #16]
   dbc4a:	e9cd 4506 	strd	r4, r5, [sp, #24]
   dbc4e:	e9cd 2302 	strd	r2, r3, [sp, #8]
   dbc52:	f1b9 0f00 	cmp.w	r9, #0
   dbc56:	f43f af0f 	beq.w	dba78 <pow+0x160>
   dbc5a:	4652      	mov	r2, sl
   dbc5c:	465b      	mov	r3, fp
   dbc5e:	4650      	mov	r0, sl
   dbc60:	4659      	mov	r1, fp
   dbc62:	f001 fadd 	bl	dd220 <__aeabi_ddiv>
   dbc66:	f1b9 0f02 	cmp.w	r9, #2
   dbc6a:	e9cd 0108 	strd	r0, r1, [sp, #32]
   dbc6e:	f43f af79 	beq.w	dbb64 <pow+0x24c>
   dbc72:	e703      	b.n	dba7c <pow+0x164>
   dbc74:	3fe00000 	.word	0x3fe00000
   dbc78:	fff00000 	.word	0xfff00000
   dbc7c:	2003ddb4 	.word	0x2003ddb4
   dbc80:	000ded64 	.word	0x000ded64
   dbc84:	00000000 	.word	0x00000000

000dbc88 <__ieee754_pow>:
   dbc88:	e92d 4ff0 	stmdb	sp!, {r4, r5, r6, r7, r8, r9, sl, fp, lr}
   dbc8c:	ec57 6b11 	vmov	r6, r7, d1
   dbc90:	ed2d 8b0a 	vpush	{d8-d12}
   dbc94:	f027 4a00 	bic.w	sl, r7, #2147483648	; 0x80000000
   dbc98:	ea5a 0206 	orrs.w	r2, sl, r6
   dbc9c:	b089      	sub	sp, #36	; 0x24
   dbc9e:	d03d      	beq.n	dbd1c <__ieee754_pow+0x94>
   dbca0:	ec55 4b10 	vmov	r4, r5, d0
   dbca4:	4976      	ldr	r1, [pc, #472]	; (dbe80 <__ieee754_pow+0x1f8>)
   dbca6:	f025 4800 	bic.w	r8, r5, #2147483648	; 0x80000000
   dbcaa:	4588      	cmp	r8, r1
   dbcac:	ee10 2a10 	vmov	r2, s0
   dbcb0:	46a9      	mov	r9, r5
   dbcb2:	dc2c      	bgt.n	dbd0e <__ieee754_pow+0x86>
   dbcb4:	ee11 3a10 	vmov	r3, s2
   dbcb8:	46bb      	mov	fp, r7
   dbcba:	d03a      	beq.n	dbd32 <__ieee754_pow+0xaa>
   dbcbc:	458a      	cmp	sl, r1
   dbcbe:	dc26      	bgt.n	dbd0e <__ieee754_pow+0x86>
   dbcc0:	496f      	ldr	r1, [pc, #444]	; (dbe80 <__ieee754_pow+0x1f8>)
   dbcc2:	458a      	cmp	sl, r1
   dbcc4:	d021      	beq.n	dbd0a <__ieee754_pow+0x82>
   dbcc6:	f1b9 0f00 	cmp.w	r9, #0
   dbcca:	db3d      	blt.n	dbd48 <__ieee754_pow+0xc0>
   dbccc:	2100      	movs	r1, #0
   dbcce:	9103      	str	r1, [sp, #12]
   dbcd0:	2b00      	cmp	r3, #0
   dbcd2:	d155      	bne.n	dbd80 <__ieee754_pow+0xf8>
   dbcd4:	4b6a      	ldr	r3, [pc, #424]	; (dbe80 <__ieee754_pow+0x1f8>)
   dbcd6:	459a      	cmp	sl, r3
   dbcd8:	f000 80a8 	beq.w	dbe2c <__ieee754_pow+0x1a4>
   dbcdc:	4b69      	ldr	r3, [pc, #420]	; (dbe84 <__ieee754_pow+0x1fc>)
   dbcde:	459a      	cmp	sl, r3
   dbce0:	f000 80b6 	beq.w	dbe50 <__ieee754_pow+0x1c8>
   dbce4:	f1bb 4f80 	cmp.w	fp, #1073741824	; 0x40000000
   dbce8:	f000 8501 	beq.w	dc6ee <__ieee754_pow+0xa66>
   dbcec:	4b66      	ldr	r3, [pc, #408]	; (dbe88 <__ieee754_pow+0x200>)
   dbcee:	459b      	cmp	fp, r3
   dbcf0:	d146      	bne.n	dbd80 <__ieee754_pow+0xf8>
   dbcf2:	f1b9 0f00 	cmp.w	r9, #0
   dbcf6:	db43      	blt.n	dbd80 <__ieee754_pow+0xf8>
   dbcf8:	ec45 4b10 	vmov	d0, r4, r5
   dbcfc:	b009      	add	sp, #36	; 0x24
   dbcfe:	ecbd 8b0a 	vpop	{d8-d12}
   dbd02:	e8bd 4ff0 	ldmia.w	sp!, {r4, r5, r6, r7, r8, r9, sl, fp, lr}
   dbd06:	f000 bd99 	b.w	dc83c <__ieee754_sqrt>
   dbd0a:	2b00      	cmp	r3, #0
   dbd0c:	d0db      	beq.n	dbcc6 <__ieee754_pow+0x3e>
   dbd0e:	f108 4840 	add.w	r8, r8, #3221225472	; 0xc0000000
   dbd12:	f508 1880 	add.w	r8, r8, #1048576	; 0x100000
   dbd16:	ea58 0302 	orrs.w	r3, r8, r2
   dbd1a:	d10d      	bne.n	dbd38 <__ieee754_pow+0xb0>
   dbd1c:	ed9f 7b54 	vldr	d7, [pc, #336]	; dbe70 <__ieee754_pow+0x1e8>
   dbd20:	ed8d 7b00 	vstr	d7, [sp]
   dbd24:	ed9d 0b00 	vldr	d0, [sp]
   dbd28:	b009      	add	sp, #36	; 0x24
   dbd2a:	ecbd 8b0a 	vpop	{d8-d12}
   dbd2e:	e8bd 8ff0 	ldmia.w	sp!, {r4, r5, r6, r7, r8, r9, sl, fp, pc}
   dbd32:	b90c      	cbnz	r4, dbd38 <__ieee754_pow+0xb0>
   dbd34:	45c2      	cmp	sl, r8
   dbd36:	ddc3      	ble.n	dbcc0 <__ieee754_pow+0x38>
   dbd38:	4854      	ldr	r0, [pc, #336]	; (dbe8c <__ieee754_pow+0x204>)
   dbd3a:	b009      	add	sp, #36	; 0x24
   dbd3c:	ecbd 8b0a 	vpop	{d8-d12}
   dbd40:	e8bd 4ff0 	ldmia.w	sp!, {r4, r5, r6, r7, r8, r9, sl, fp, lr}
   dbd44:	f000 be58 	b.w	dc9f8 <nan>
   dbd48:	4951      	ldr	r1, [pc, #324]	; (dbe90 <__ieee754_pow+0x208>)
   dbd4a:	458a      	cmp	sl, r1
   dbd4c:	f300 8087 	bgt.w	dbe5e <__ieee754_pow+0x1d6>
   dbd50:	f1a1 7154 	sub.w	r1, r1, #55574528	; 0x3500000
   dbd54:	458a      	cmp	sl, r1
   dbd56:	dd0f      	ble.n	dbd78 <__ieee754_pow+0xf0>
   dbd58:	ea4f 512a 	mov.w	r1, sl, asr #20
   dbd5c:	f2a1 31ff 	subw	r1, r1, #1023	; 0x3ff
   dbd60:	2914      	cmp	r1, #20
   dbd62:	f340 84ce 	ble.w	dc702 <__ieee754_pow+0xa7a>
   dbd66:	f1c1 0134 	rsb	r1, r1, #52	; 0x34
   dbd6a:	fa23 f001 	lsr.w	r0, r3, r1
   dbd6e:	fa00 f101 	lsl.w	r1, r0, r1
   dbd72:	4299      	cmp	r1, r3
   dbd74:	f000 8520 	beq.w	dc7b8 <__ieee754_pow+0xb30>
   dbd78:	2100      	movs	r1, #0
   dbd7a:	9103      	str	r1, [sp, #12]
   dbd7c:	2b00      	cmp	r3, #0
   dbd7e:	d0ad      	beq.n	dbcdc <__ieee754_pow+0x54>
   dbd80:	ec45 4b10 	vmov	d0, r4, r5
   dbd84:	9206      	str	r2, [sp, #24]
   dbd86:	f000 fe1d 	bl	dc9c4 <fabs>
   dbd8a:	9a06      	ldr	r2, [sp, #24]
   dbd8c:	ed8d 0b00 	vstr	d0, [sp]
   dbd90:	bb5a      	cbnz	r2, dbdea <__ieee754_pow+0x162>
   dbd92:	f1b8 0f00 	cmp.w	r8, #0
   dbd96:	d004      	beq.n	dbda2 <__ieee754_pow+0x11a>
   dbd98:	4b3a      	ldr	r3, [pc, #232]	; (dbe84 <__ieee754_pow+0x1fc>)
   dbd9a:	f029 4240 	bic.w	r2, r9, #3221225472	; 0xc0000000
   dbd9e:	429a      	cmp	r2, r3
   dbda0:	d123      	bne.n	dbdea <__ieee754_pow+0x162>
   dbda2:	f1bb 0f00 	cmp.w	fp, #0
   dbda6:	da07      	bge.n	dbdb8 <__ieee754_pow+0x130>
   dbda8:	e9dd 2300 	ldrd	r2, r3, [sp]
   dbdac:	4935      	ldr	r1, [pc, #212]	; (dbe84 <__ieee754_pow+0x1fc>)
   dbdae:	2000      	movs	r0, #0
   dbdb0:	f001 fa36 	bl	dd220 <__aeabi_ddiv>
   dbdb4:	e9cd 0100 	strd	r0, r1, [sp]
   dbdb8:	f1b9 0f00 	cmp.w	r9, #0
   dbdbc:	dab2      	bge.n	dbd24 <__ieee754_pow+0x9c>
   dbdbe:	9b03      	ldr	r3, [sp, #12]
   dbdc0:	f108 4840 	add.w	r8, r8, #3221225472	; 0xc0000000
   dbdc4:	f508 1880 	add.w	r8, r8, #1048576	; 0x100000
   dbdc8:	ea58 0303 	orrs.w	r3, r8, r3
   dbdcc:	f040 84be 	bne.w	dc74c <__ieee754_pow+0xac4>
   dbdd0:	e9dd 2300 	ldrd	r2, r3, [sp]
   dbdd4:	4610      	mov	r0, r2
   dbdd6:	4619      	mov	r1, r3
   dbdd8:	f000 ff40 	bl	dcc5c <__aeabi_dsub>
   dbddc:	4602      	mov	r2, r0
   dbdde:	460b      	mov	r3, r1
   dbde0:	f001 fa1e 	bl	dd220 <__aeabi_ddiv>
   dbde4:	e9cd 0100 	strd	r0, r1, [sp]
   dbde8:	e79c      	b.n	dbd24 <__ieee754_pow+0x9c>
   dbdea:	9a03      	ldr	r2, [sp, #12]
   dbdec:	ea4f 73d9 	mov.w	r3, r9, lsr #31
   dbdf0:	3b01      	subs	r3, #1
   dbdf2:	9306      	str	r3, [sp, #24]
   dbdf4:	4313      	orrs	r3, r2
   dbdf6:	d035      	beq.n	dbe64 <__ieee754_pow+0x1dc>
   dbdf8:	4b26      	ldr	r3, [pc, #152]	; (dbe94 <__ieee754_pow+0x20c>)
   dbdfa:	459a      	cmp	sl, r3
   dbdfc:	dd4e      	ble.n	dbe9c <__ieee754_pow+0x214>
   dbdfe:	f103 7304 	add.w	r3, r3, #34603008	; 0x2100000
   dbe02:	459a      	cmp	sl, r3
   dbe04:	4b24      	ldr	r3, [pc, #144]	; (dbe98 <__ieee754_pow+0x210>)
   dbe06:	f340 83ed 	ble.w	dc5e4 <__ieee754_pow+0x95c>
   dbe0a:	4598      	cmp	r8, r3
   dbe0c:	f340 836b 	ble.w	dc4e6 <__ieee754_pow+0x85e>
   dbe10:	f1bb 0f00 	cmp.w	fp, #0
   dbe14:	f340 836b 	ble.w	dc4ee <__ieee754_pow+0x866>
   dbe18:	a317      	add	r3, pc, #92	; (adr r3, dbe78 <__ieee754_pow+0x1f0>)
   dbe1a:	e9d3 2300 	ldrd	r2, r3, [r3]
   dbe1e:	4610      	mov	r0, r2
   dbe20:	4619      	mov	r1, r3
   dbe22:	f001 f8d3 	bl	dcfcc <__aeabi_dmul>
   dbe26:	e9cd 0100 	strd	r0, r1, [sp]
   dbe2a:	e77b      	b.n	dbd24 <__ieee754_pow+0x9c>
   dbe2c:	f108 4340 	add.w	r3, r8, #3221225472	; 0xc0000000
   dbe30:	f503 1380 	add.w	r3, r3, #1048576	; 0x100000
   dbe34:	4313      	orrs	r3, r2
   dbe36:	f43f af71 	beq.w	dbd1c <__ieee754_pow+0x94>
   dbe3a:	4b17      	ldr	r3, [pc, #92]	; (dbe98 <__ieee754_pow+0x210>)
   dbe3c:	4598      	cmp	r8, r3
   dbe3e:	f340 8388 	ble.w	dc552 <__ieee754_pow+0x8ca>
   dbe42:	f1bb 0f00 	cmp.w	fp, #0
   dbe46:	f2c0 8352 	blt.w	dc4ee <__ieee754_pow+0x866>
   dbe4a:	e9cd 6700 	strd	r6, r7, [sp]
   dbe4e:	e769      	b.n	dbd24 <__ieee754_pow+0x9c>
   dbe50:	f1bb 0f00 	cmp.w	fp, #0
   dbe54:	f2c0 8441 	blt.w	dc6da <__ieee754_pow+0xa52>
   dbe58:	e9cd 4500 	strd	r4, r5, [sp]
   dbe5c:	e762      	b.n	dbd24 <__ieee754_pow+0x9c>
   dbe5e:	2102      	movs	r1, #2
   dbe60:	9103      	str	r1, [sp, #12]
   dbe62:	e735      	b.n	dbcd0 <__ieee754_pow+0x48>
   dbe64:	4622      	mov	r2, r4
   dbe66:	462b      	mov	r3, r5
   dbe68:	e7b4      	b.n	dbdd4 <__ieee754_pow+0x14c>
   dbe6a:	bf00      	nop
   dbe6c:	f3af 8000 	nop.w
   dbe70:	00000000 	.word	0x00000000
   dbe74:	3ff00000 	.word	0x3ff00000
   dbe78:	8800759c 	.word	0x8800759c
   dbe7c:	7e37e43c 	.word	0x7e37e43c
   dbe80:	7ff00000 	.word	0x7ff00000
   dbe84:	3ff00000 	.word	0x3ff00000
   dbe88:	3fe00000 	.word	0x3fe00000
   dbe8c:	000ded68 	.word	0x000ded68
   dbe90:	433fffff 	.word	0x433fffff
   dbe94:	41e00000 	.word	0x41e00000
   dbe98:	3fefffff 	.word	0x3fefffff
   dbe9c:	4be4      	ldr	r3, [pc, #912]	; (dc230 <__ieee754_pow+0x5a8>)
   dbe9e:	ea09 0303 	and.w	r3, r9, r3
   dbea2:	2b00      	cmp	r3, #0
   dbea4:	f040 8416 	bne.w	dc6d4 <__ieee754_pow+0xa4c>
   dbea8:	e9dd 0100 	ldrd	r0, r1, [sp]
   dbeac:	4be1      	ldr	r3, [pc, #900]	; (dc234 <__ieee754_pow+0x5ac>)
   dbeae:	2200      	movs	r2, #0
   dbeb0:	f001 f88c 	bl	dcfcc <__aeabi_dmul>
   dbeb4:	e9cd 0100 	strd	r0, r1, [sp]
   dbeb8:	f8dd 8004 	ldr.w	r8, [sp, #4]
   dbebc:	f06f 0034 	mvn.w	r0, #52	; 0x34
   dbec0:	ea4f 5328 	mov.w	r3, r8, asr #20
   dbec4:	49dc      	ldr	r1, [pc, #880]	; (dc238 <__ieee754_pow+0x5b0>)
   dbec6:	f3c8 0213 	ubfx	r2, r8, #0, #20
   dbeca:	f2a3 33ff 	subw	r3, r3, #1023	; 0x3ff
   dbece:	f042 587f 	orr.w	r8, r2, #1069547520	; 0x3fc00000
   dbed2:	1818      	adds	r0, r3, r0
   dbed4:	428a      	cmp	r2, r1
   dbed6:	9007      	str	r0, [sp, #28]
   dbed8:	f448 1840 	orr.w	r8, r8, #3145728	; 0x300000
   dbedc:	f340 83e9 	ble.w	dc6b2 <__ieee754_pow+0xa2a>
   dbee0:	4bd6      	ldr	r3, [pc, #856]	; (dc23c <__ieee754_pow+0x5b4>)
   dbee2:	429a      	cmp	r2, r3
   dbee4:	f340 843e 	ble.w	dc764 <__ieee754_pow+0xadc>
   dbee8:	ed9f 7bbb 	vldr	d7, [pc, #748]	; dc1d8 <__ieee754_pow+0x550>
   dbeec:	eeb0 ba47 	vmov.f32	s22, s14
   dbef0:	eef0 ba67 	vmov.f32	s23, s15
   dbef4:	eeb0 ca47 	vmov.f32	s24, s14
   dbef8:	eef0 ca67 	vmov.f32	s25, s15
   dbefc:	ed9f 7bb8 	vldr	d7, [pc, #736]	; dc1e0 <__ieee754_pow+0x558>
   dbf00:	3001      	adds	r0, #1
   dbf02:	ec54 3b17 	vmov	r3, r4, d7
   dbf06:	9007      	str	r0, [sp, #28]
   dbf08:	f5a8 1880 	sub.w	r8, r8, #1048576	; 0x100000
   dbf0c:	f04f 0900 	mov.w	r9, #0
   dbf10:	e9dd ab00 	ldrd	sl, fp, [sp]
   dbf14:	ec44 3b18 	vmov	d8, r3, r4
   dbf18:	461a      	mov	r2, r3
   dbf1a:	4650      	mov	r0, sl
   dbf1c:	4623      	mov	r3, r4
   dbf1e:	4641      	mov	r1, r8
   dbf20:	f000 fe9c 	bl	dcc5c <__aeabi_dsub>
   dbf24:	ec53 2b18 	vmov	r2, r3, d8
   dbf28:	4604      	mov	r4, r0
   dbf2a:	460d      	mov	r5, r1
   dbf2c:	4650      	mov	r0, sl
   dbf2e:	4641      	mov	r1, r8
   dbf30:	f000 fe96 	bl	dcc60 <__adddf3>
   dbf34:	4602      	mov	r2, r0
   dbf36:	460b      	mov	r3, r1
   dbf38:	2000      	movs	r0, #0
   dbf3a:	49c1      	ldr	r1, [pc, #772]	; (dc240 <__ieee754_pow+0x5b8>)
   dbf3c:	f001 f970 	bl	dd220 <__aeabi_ddiv>
   dbf40:	ec45 4b1a 	vmov	d10, r4, r5
   dbf44:	ec41 0b19 	vmov	d9, r0, r1
   dbf48:	ec51 0b1a 	vmov	r0, r1, d10
   dbf4c:	ec53 2b19 	vmov	r2, r3, d9
   dbf50:	f001 f83c 	bl	dcfcc <__aeabi_dmul>
   dbf54:	46c3      	mov	fp, r8
   dbf56:	ea4f 0868 	mov.w	r8, r8, asr #1
   dbf5a:	f048 5800 	orr.w	r8, r8, #536870912	; 0x20000000
   dbf5e:	f508 2300 	add.w	r3, r8, #524288	; 0x80000
   dbf62:	eb03 0509 	add.w	r5, r3, r9
   dbf66:	460a      	mov	r2, r1
   dbf68:	2300      	movs	r3, #0
   dbf6a:	4601      	mov	r1, r0
   dbf6c:	e9cd 1200 	strd	r1, r2, [sp]
   dbf70:	9300      	str	r3, [sp, #0]
   dbf72:	e9dd 8900 	ldrd	r8, r9, [sp]
   dbf76:	2400      	movs	r4, #0
   dbf78:	e9cd 1204 	strd	r1, r2, [sp, #16]
   dbf7c:	462b      	mov	r3, r5
   dbf7e:	4622      	mov	r2, r4
   dbf80:	4640      	mov	r0, r8
   dbf82:	4649      	mov	r1, r9
   dbf84:	f001 f822 	bl	dcfcc <__aeabi_dmul>
   dbf88:	4602      	mov	r2, r0
   dbf8a:	460b      	mov	r3, r1
   dbf8c:	ec51 0b1a 	vmov	r0, r1, d10
   dbf90:	f000 fe64 	bl	dcc5c <__aeabi_dsub>
   dbf94:	ec41 0b17 	vmov	d7, r0, r1
   dbf98:	ec53 2b18 	vmov	r2, r3, d8
   dbf9c:	4620      	mov	r0, r4
   dbf9e:	4629      	mov	r1, r5
   dbfa0:	ec55 4b17 	vmov	r4, r5, d7
   dbfa4:	f000 fe5a 	bl	dcc5c <__aeabi_dsub>
   dbfa8:	4602      	mov	r2, r0
   dbfaa:	460b      	mov	r3, r1
   dbfac:	4650      	mov	r0, sl
   dbfae:	4659      	mov	r1, fp
   dbfb0:	f000 fe54 	bl	dcc5c <__aeabi_dsub>
   dbfb4:	4642      	mov	r2, r8
   dbfb6:	464b      	mov	r3, r9
   dbfb8:	f001 f808 	bl	dcfcc <__aeabi_dmul>
   dbfbc:	4602      	mov	r2, r0
   dbfbe:	460b      	mov	r3, r1
   dbfc0:	4620      	mov	r0, r4
   dbfc2:	4629      	mov	r1, r5
   dbfc4:	f000 fe4a 	bl	dcc5c <__aeabi_dsub>
   dbfc8:	ec53 2b19 	vmov	r2, r3, d9
   dbfcc:	f000 fffe 	bl	dcfcc <__aeabi_dmul>
   dbfd0:	e9dd ab04 	ldrd	sl, fp, [sp, #16]
   dbfd4:	4604      	mov	r4, r0
   dbfd6:	460d      	mov	r5, r1
   dbfd8:	4652      	mov	r2, sl
   dbfda:	465b      	mov	r3, fp
   dbfdc:	4650      	mov	r0, sl
   dbfde:	4659      	mov	r1, fp
   dbfe0:	f000 fff4 	bl	dcfcc <__aeabi_dmul>
   dbfe4:	a380      	add	r3, pc, #512	; (adr r3, dc1e8 <__ieee754_pow+0x560>)
   dbfe6:	e9d3 2300 	ldrd	r2, r3, [r3]
   dbfea:	ec45 4b1a 	vmov	d10, r4, r5
   dbfee:	4604      	mov	r4, r0
   dbff0:	460d      	mov	r5, r1
   dbff2:	f000 ffeb 	bl	dcfcc <__aeabi_dmul>
   dbff6:	a37e      	add	r3, pc, #504	; (adr r3, dc1f0 <__ieee754_pow+0x568>)
   dbff8:	e9d3 2300 	ldrd	r2, r3, [r3]
   dbffc:	f000 fe30 	bl	dcc60 <__adddf3>
   dc000:	4622      	mov	r2, r4
   dc002:	462b      	mov	r3, r5
   dc004:	f000 ffe2 	bl	dcfcc <__aeabi_dmul>
   dc008:	a37b      	add	r3, pc, #492	; (adr r3, dc1f8 <__ieee754_pow+0x570>)
   dc00a:	e9d3 2300 	ldrd	r2, r3, [r3]
   dc00e:	f000 fe27 	bl	dcc60 <__adddf3>
   dc012:	4622      	mov	r2, r4
   dc014:	462b      	mov	r3, r5
   dc016:	f000 ffd9 	bl	dcfcc <__aeabi_dmul>
   dc01a:	a379      	add	r3, pc, #484	; (adr r3, dc200 <__ieee754_pow+0x578>)
   dc01c:	e9d3 2300 	ldrd	r2, r3, [r3]
   dc020:	f000 fe1e 	bl	dcc60 <__adddf3>
   dc024:	4622      	mov	r2, r4
   dc026:	462b      	mov	r3, r5
   dc028:	f000 ffd0 	bl	dcfcc <__aeabi_dmul>
   dc02c:	a376      	add	r3, pc, #472	; (adr r3, dc208 <__ieee754_pow+0x580>)
   dc02e:	e9d3 2300 	ldrd	r2, r3, [r3]
   dc032:	f000 fe15 	bl	dcc60 <__adddf3>
   dc036:	4622      	mov	r2, r4
   dc038:	462b      	mov	r3, r5
   dc03a:	f000 ffc7 	bl	dcfcc <__aeabi_dmul>
   dc03e:	a374      	add	r3, pc, #464	; (adr r3, dc210 <__ieee754_pow+0x588>)
   dc040:	e9d3 2300 	ldrd	r2, r3, [r3]
   dc044:	f000 fe0c 	bl	dcc60 <__adddf3>
   dc048:	4622      	mov	r2, r4
   dc04a:	462b      	mov	r3, r5
   dc04c:	4604      	mov	r4, r0
   dc04e:	460d      	mov	r5, r1
   dc050:	4610      	mov	r0, r2
   dc052:	4619      	mov	r1, r3
   dc054:	f000 ffba 	bl	dcfcc <__aeabi_dmul>
   dc058:	4602      	mov	r2, r0
   dc05a:	460b      	mov	r3, r1
   dc05c:	4620      	mov	r0, r4
   dc05e:	4629      	mov	r1, r5
   dc060:	f000 ffb4 	bl	dcfcc <__aeabi_dmul>
   dc064:	4642      	mov	r2, r8
   dc066:	4604      	mov	r4, r0
   dc068:	460d      	mov	r5, r1
   dc06a:	464b      	mov	r3, r9
   dc06c:	4650      	mov	r0, sl
   dc06e:	4659      	mov	r1, fp
   dc070:	e9cd ab04 	strd	sl, fp, [sp, #16]
   dc074:	f000 fdf4 	bl	dcc60 <__adddf3>
   dc078:	ec53 2b1a 	vmov	r2, r3, d10
   dc07c:	f000 ffa6 	bl	dcfcc <__aeabi_dmul>
   dc080:	4622      	mov	r2, r4
   dc082:	462b      	mov	r3, r5
   dc084:	f000 fdec 	bl	dcc60 <__adddf3>
   dc088:	4642      	mov	r2, r8
   dc08a:	4604      	mov	r4, r0
   dc08c:	460d      	mov	r5, r1
   dc08e:	464b      	mov	r3, r9
   dc090:	4640      	mov	r0, r8
   dc092:	4649      	mov	r1, r9
   dc094:	f000 ff9a 	bl	dcfcc <__aeabi_dmul>
   dc098:	ec45 4b19 	vmov	d9, r4, r5
   dc09c:	4b69      	ldr	r3, [pc, #420]	; (dc244 <__ieee754_pow+0x5bc>)
   dc09e:	2200      	movs	r2, #0
   dc0a0:	4682      	mov	sl, r0
   dc0a2:	468b      	mov	fp, r1
   dc0a4:	f000 fddc 	bl	dcc60 <__adddf3>
   dc0a8:	ec53 2b19 	vmov	r2, r3, d9
   dc0ac:	f000 fdd8 	bl	dcc60 <__adddf3>
   dc0b0:	9c00      	ldr	r4, [sp, #0]
   dc0b2:	460d      	mov	r5, r1
   dc0b4:	4622      	mov	r2, r4
   dc0b6:	462b      	mov	r3, r5
   dc0b8:	4640      	mov	r0, r8
   dc0ba:	4649      	mov	r1, r9
   dc0bc:	f000 ff86 	bl	dcfcc <__aeabi_dmul>
   dc0c0:	4b60      	ldr	r3, [pc, #384]	; (dc244 <__ieee754_pow+0x5bc>)
   dc0c2:	4680      	mov	r8, r0
   dc0c4:	4689      	mov	r9, r1
   dc0c6:	2200      	movs	r2, #0
   dc0c8:	4620      	mov	r0, r4
   dc0ca:	4629      	mov	r1, r5
   dc0cc:	f000 fdc6 	bl	dcc5c <__aeabi_dsub>
   dc0d0:	4652      	mov	r2, sl
   dc0d2:	465b      	mov	r3, fp
   dc0d4:	f000 fdc2 	bl	dcc5c <__aeabi_dsub>
   dc0d8:	4602      	mov	r2, r0
   dc0da:	460b      	mov	r3, r1
   dc0dc:	ec51 0b19 	vmov	r0, r1, d9
   dc0e0:	f000 fdbc 	bl	dcc5c <__aeabi_dsub>
   dc0e4:	e9dd 2304 	ldrd	r2, r3, [sp, #16]
   dc0e8:	f000 ff70 	bl	dcfcc <__aeabi_dmul>
   dc0ec:	ec49 8b18 	vmov	d8, r8, r9
   dc0f0:	4622      	mov	r2, r4
   dc0f2:	4680      	mov	r8, r0
   dc0f4:	4689      	mov	r9, r1
   dc0f6:	462b      	mov	r3, r5
   dc0f8:	ec51 0b1a 	vmov	r0, r1, d10
   dc0fc:	f000 ff66 	bl	dcfcc <__aeabi_dmul>
   dc100:	4602      	mov	r2, r0
   dc102:	460b      	mov	r3, r1
   dc104:	4640      	mov	r0, r8
   dc106:	4649      	mov	r1, r9
   dc108:	f000 fdaa 	bl	dcc60 <__adddf3>
   dc10c:	4682      	mov	sl, r0
   dc10e:	468b      	mov	fp, r1
   dc110:	4652      	mov	r2, sl
   dc112:	465b      	mov	r3, fp
   dc114:	ec51 0b18 	vmov	r0, r1, d8
   dc118:	f000 fda2 	bl	dcc60 <__adddf3>
   dc11c:	9c00      	ldr	r4, [sp, #0]
   dc11e:	a33e      	add	r3, pc, #248	; (adr r3, dc218 <__ieee754_pow+0x590>)
   dc120:	e9d3 2300 	ldrd	r2, r3, [r3]
   dc124:	4620      	mov	r0, r4
   dc126:	460d      	mov	r5, r1
   dc128:	f000 ff50 	bl	dcfcc <__aeabi_dmul>
   dc12c:	ec53 2b18 	vmov	r2, r3, d8
   dc130:	4680      	mov	r8, r0
   dc132:	4689      	mov	r9, r1
   dc134:	4620      	mov	r0, r4
   dc136:	4629      	mov	r1, r5
   dc138:	f000 fd90 	bl	dcc5c <__aeabi_dsub>
   dc13c:	4602      	mov	r2, r0
   dc13e:	460b      	mov	r3, r1
   dc140:	4650      	mov	r0, sl
   dc142:	4659      	mov	r1, fp
   dc144:	f000 fd8a 	bl	dcc5c <__aeabi_dsub>
   dc148:	a335      	add	r3, pc, #212	; (adr r3, dc220 <__ieee754_pow+0x598>)
   dc14a:	e9d3 2300 	ldrd	r2, r3, [r3]
   dc14e:	f000 ff3d 	bl	dcfcc <__aeabi_dmul>
   dc152:	ec49 8b19 	vmov	d9, r8, r9
   dc156:	a334      	add	r3, pc, #208	; (adr r3, dc228 <__ieee754_pow+0x5a0>)
   dc158:	e9d3 2300 	ldrd	r2, r3, [r3]
   dc15c:	4680      	mov	r8, r0
   dc15e:	4689      	mov	r9, r1
   dc160:	4620      	mov	r0, r4
   dc162:	4629      	mov	r1, r5
   dc164:	f000 ff32 	bl	dcfcc <__aeabi_dmul>
   dc168:	4602      	mov	r2, r0
   dc16a:	460b      	mov	r3, r1
   dc16c:	4640      	mov	r0, r8
   dc16e:	4649      	mov	r1, r9
   dc170:	f000 fd76 	bl	dcc60 <__adddf3>
   dc174:	ec53 2b1c 	vmov	r2, r3, d12
   dc178:	f000 fd72 	bl	dcc60 <__adddf3>
   dc17c:	4682      	mov	sl, r0
   dc17e:	9807      	ldr	r0, [sp, #28]
   dc180:	468b      	mov	fp, r1
   dc182:	f000 feb9 	bl	dcef8 <__aeabi_i2d>
   dc186:	4652      	mov	r2, sl
   dc188:	4680      	mov	r8, r0
   dc18a:	4689      	mov	r9, r1
   dc18c:	465b      	mov	r3, fp
   dc18e:	ec51 0b19 	vmov	r0, r1, d9
   dc192:	f000 fd65 	bl	dcc60 <__adddf3>
   dc196:	ec53 2b1b 	vmov	r2, r3, d11
   dc19a:	f000 fd61 	bl	dcc60 <__adddf3>
   dc19e:	4642      	mov	r2, r8
   dc1a0:	464b      	mov	r3, r9
   dc1a2:	f000 fd5d 	bl	dcc60 <__adddf3>
   dc1a6:	9c00      	ldr	r4, [sp, #0]
   dc1a8:	4642      	mov	r2, r8
   dc1aa:	464b      	mov	r3, r9
   dc1ac:	4620      	mov	r0, r4
   dc1ae:	460d      	mov	r5, r1
   dc1b0:	f000 fd54 	bl	dcc5c <__aeabi_dsub>
   dc1b4:	ec53 2b1b 	vmov	r2, r3, d11
   dc1b8:	f000 fd50 	bl	dcc5c <__aeabi_dsub>
   dc1bc:	ec53 2b19 	vmov	r2, r3, d9
   dc1c0:	f000 fd4c 	bl	dcc5c <__aeabi_dsub>
   dc1c4:	4602      	mov	r2, r0
   dc1c6:	460b      	mov	r3, r1
   dc1c8:	4650      	mov	r0, sl
   dc1ca:	4659      	mov	r1, fp
   dc1cc:	f000 fd46 	bl	dcc5c <__aeabi_dsub>
   dc1d0:	4682      	mov	sl, r0
   dc1d2:	468b      	mov	fp, r1
   dc1d4:	e038      	b.n	dc248 <__ieee754_pow+0x5c0>
   dc1d6:	bf00      	nop
	...
   dc1e4:	3ff00000 	.word	0x3ff00000
   dc1e8:	4a454eef 	.word	0x4a454eef
   dc1ec:	3fca7e28 	.word	0x3fca7e28
   dc1f0:	93c9db65 	.word	0x93c9db65
   dc1f4:	3fcd864a 	.word	0x3fcd864a
   dc1f8:	a91d4101 	.word	0xa91d4101
   dc1fc:	3fd17460 	.word	0x3fd17460
   dc200:	518f264d 	.word	0x518f264d
   dc204:	3fd55555 	.word	0x3fd55555
   dc208:	db6fabff 	.word	0xdb6fabff
   dc20c:	3fdb6db6 	.word	0x3fdb6db6
   dc210:	33333303 	.word	0x33333303
   dc214:	3fe33333 	.word	0x3fe33333
   dc218:	e0000000 	.word	0xe0000000
   dc21c:	3feec709 	.word	0x3feec709
   dc220:	dc3a03fd 	.word	0xdc3a03fd
   dc224:	3feec709 	.word	0x3feec709
   dc228:	145b01f5 	.word	0x145b01f5
   dc22c:	be3e2fe0 	.word	0xbe3e2fe0
   dc230:	7ff00000 	.word	0x7ff00000
   dc234:	43400000 	.word	0x43400000
   dc238:	0003988e 	.word	0x0003988e
   dc23c:	000bb679 	.word	0x000bb679
   dc240:	3ff00000 	.word	0x3ff00000
   dc244:	40080000 	.word	0x40080000
   dc248:	9b03      	ldr	r3, [sp, #12]
   dc24a:	9a06      	ldr	r2, [sp, #24]
   dc24c:	3b01      	subs	r3, #1
   dc24e:	4313      	orrs	r3, r2
   dc250:	f040 8178 	bne.w	dc544 <__ieee754_pow+0x8bc>
   dc254:	ed9f 7bc4 	vldr	d7, [pc, #784]	; dc568 <__ieee754_pow+0x8e0>
   dc258:	eeb0 9a47 	vmov.f32	s18, s14
   dc25c:	eef0 9a67 	vmov.f32	s19, s15
   dc260:	2300      	movs	r3, #0
   dc262:	e9cd 6700 	strd	r6, r7, [sp]
   dc266:	9300      	str	r3, [sp, #0]
   dc268:	e9dd 8900 	ldrd	r8, r9, [sp]
   dc26c:	4630      	mov	r0, r6
   dc26e:	4642      	mov	r2, r8
   dc270:	4639      	mov	r1, r7
   dc272:	464b      	mov	r3, r9
   dc274:	f000 fcf2 	bl	dcc5c <__aeabi_dsub>
   dc278:	4622      	mov	r2, r4
   dc27a:	462b      	mov	r3, r5
   dc27c:	f000 fea6 	bl	dcfcc <__aeabi_dmul>
   dc280:	4632      	mov	r2, r6
   dc282:	463b      	mov	r3, r7
   dc284:	4606      	mov	r6, r0
   dc286:	460f      	mov	r7, r1
   dc288:	4650      	mov	r0, sl
   dc28a:	4659      	mov	r1, fp
   dc28c:	f000 fe9e 	bl	dcfcc <__aeabi_dmul>
   dc290:	4602      	mov	r2, r0
   dc292:	460b      	mov	r3, r1
   dc294:	4630      	mov	r0, r6
   dc296:	4639      	mov	r1, r7
   dc298:	f000 fce2 	bl	dcc60 <__adddf3>
   dc29c:	4642      	mov	r2, r8
   dc29e:	4682      	mov	sl, r0
   dc2a0:	468b      	mov	fp, r1
   dc2a2:	464b      	mov	r3, r9
   dc2a4:	4620      	mov	r0, r4
   dc2a6:	4629      	mov	r1, r5
   dc2a8:	f000 fe90 	bl	dcfcc <__aeabi_dmul>
   dc2ac:	4606      	mov	r6, r0
   dc2ae:	460f      	mov	r7, r1
   dc2b0:	463b      	mov	r3, r7
   dc2b2:	4650      	mov	r0, sl
   dc2b4:	4659      	mov	r1, fp
   dc2b6:	4632      	mov	r2, r6
   dc2b8:	f000 fcd2 	bl	dcc60 <__adddf3>
   dc2bc:	4bc4      	ldr	r3, [pc, #784]	; (dc5d0 <__ieee754_pow+0x948>)
   dc2be:	4299      	cmp	r1, r3
   dc2c0:	4604      	mov	r4, r0
   dc2c2:	460d      	mov	r5, r1
   dc2c4:	4688      	mov	r8, r1
   dc2c6:	f340 8117 	ble.w	dc4f8 <__ieee754_pow+0x870>
   dc2ca:	f101 433f 	add.w	r3, r1, #3204448256	; 0xbf000000
   dc2ce:	f503 03e0 	add.w	r3, r3, #7340032	; 0x700000
   dc2d2:	4303      	orrs	r3, r0
   dc2d4:	f040 822a 	bne.w	dc72c <__ieee754_pow+0xaa4>
   dc2d8:	a3a5      	add	r3, pc, #660	; (adr r3, dc570 <__ieee754_pow+0x8e8>)
   dc2da:	e9d3 2300 	ldrd	r2, r3, [r3]
   dc2de:	4650      	mov	r0, sl
   dc2e0:	4659      	mov	r1, fp
   dc2e2:	f000 fcbd 	bl	dcc60 <__adddf3>
   dc2e6:	4632      	mov	r2, r6
   dc2e8:	ec41 0b18 	vmov	d8, r0, r1
   dc2ec:	463b      	mov	r3, r7
   dc2ee:	4620      	mov	r0, r4
   dc2f0:	4629      	mov	r1, r5
   dc2f2:	f000 fcb3 	bl	dcc5c <__aeabi_dsub>
   dc2f6:	4602      	mov	r2, r0
   dc2f8:	460b      	mov	r3, r1
   dc2fa:	ec51 0b18 	vmov	r0, r1, d8
   dc2fe:	f001 f8f5 	bl	dd4ec <__aeabi_dcmpgt>
   dc302:	2800      	cmp	r0, #0
   dc304:	f040 8212 	bne.w	dc72c <__ieee754_pow+0xaa4>
   dc308:	f3c8 530a 	ubfx	r3, r8, #20, #11
   dc30c:	f44f 1280 	mov.w	r2, #1048576	; 0x100000
   dc310:	f2a3 33fe 	subw	r3, r3, #1022	; 0x3fe
   dc314:	fa42 f303 	asr.w	r3, r2, r3
   dc318:	4443      	add	r3, r8
   dc31a:	49ae      	ldr	r1, [pc, #696]	; (dc5d4 <__ieee754_pow+0x94c>)
   dc31c:	f3c3 520a 	ubfx	r2, r3, #20, #11
   dc320:	f2a2 32ff 	subw	r2, r2, #1023	; 0x3ff
   dc324:	fa41 fc02 	asr.w	ip, r1, r2
   dc328:	f3c3 0513 	ubfx	r5, r3, #0, #20
   dc32c:	ea23 010c 	bic.w	r1, r3, ip
   dc330:	f1c2 0414 	rsb	r4, r2, #20
   dc334:	f445 1580 	orr.w	r5, r5, #1048576	; 0x100000
   dc338:	f1b8 0f00 	cmp.w	r8, #0
   dc33c:	460b      	mov	r3, r1
   dc33e:	fa45 f104 	asr.w	r1, r5, r4
   dc342:	9103      	str	r1, [sp, #12]
   dc344:	f04f 0000 	mov.w	r0, #0
   dc348:	bfb8      	it	lt
   dc34a:	4249      	neglt	r1, r1
   dc34c:	4602      	mov	r2, r0
   dc34e:	bfb8      	it	lt
   dc350:	9103      	strlt	r1, [sp, #12]
   dc352:	4630      	mov	r0, r6
   dc354:	4639      	mov	r1, r7
   dc356:	f000 fc81 	bl	dcc5c <__aeabi_dsub>
   dc35a:	4606      	mov	r6, r0
   dc35c:	460f      	mov	r7, r1
   dc35e:	463b      	mov	r3, r7
   dc360:	4650      	mov	r0, sl
   dc362:	4659      	mov	r1, fp
   dc364:	4632      	mov	r2, r6
   dc366:	f000 fc7b 	bl	dcc60 <__adddf3>
   dc36a:	9b03      	ldr	r3, [sp, #12]
   dc36c:	051b      	lsls	r3, r3, #20
   dc36e:	9300      	str	r3, [sp, #0]
   dc370:	460d      	mov	r5, r1
   dc372:	2400      	movs	r4, #0
   dc374:	a380      	add	r3, pc, #512	; (adr r3, dc578 <__ieee754_pow+0x8f0>)
   dc376:	e9d3 2300 	ldrd	r2, r3, [r3]
   dc37a:	4620      	mov	r0, r4
   dc37c:	4629      	mov	r1, r5
   dc37e:	f000 fe25 	bl	dcfcc <__aeabi_dmul>
   dc382:	4632      	mov	r2, r6
   dc384:	4680      	mov	r8, r0
   dc386:	4689      	mov	r9, r1
   dc388:	463b      	mov	r3, r7
   dc38a:	4620      	mov	r0, r4
   dc38c:	4629      	mov	r1, r5
   dc38e:	f000 fc65 	bl	dcc5c <__aeabi_dsub>
   dc392:	4602      	mov	r2, r0
   dc394:	460b      	mov	r3, r1
   dc396:	4650      	mov	r0, sl
   dc398:	4659      	mov	r1, fp
   dc39a:	f000 fc5f 	bl	dcc5c <__aeabi_dsub>
   dc39e:	a378      	add	r3, pc, #480	; (adr r3, dc580 <__ieee754_pow+0x8f8>)
   dc3a0:	e9d3 2300 	ldrd	r2, r3, [r3]
   dc3a4:	f000 fe12 	bl	dcfcc <__aeabi_dmul>
   dc3a8:	a377      	add	r3, pc, #476	; (adr r3, dc588 <__ieee754_pow+0x900>)
   dc3aa:	e9d3 2300 	ldrd	r2, r3, [r3]
   dc3ae:	4606      	mov	r6, r0
   dc3b0:	460f      	mov	r7, r1
   dc3b2:	4620      	mov	r0, r4
   dc3b4:	4629      	mov	r1, r5
   dc3b6:	f000 fe09 	bl	dcfcc <__aeabi_dmul>
   dc3ba:	4602      	mov	r2, r0
   dc3bc:	460b      	mov	r3, r1
   dc3be:	4630      	mov	r0, r6
   dc3c0:	4639      	mov	r1, r7
   dc3c2:	f000 fc4d 	bl	dcc60 <__adddf3>
   dc3c6:	4606      	mov	r6, r0
   dc3c8:	460f      	mov	r7, r1
   dc3ca:	4632      	mov	r2, r6
   dc3cc:	463b      	mov	r3, r7
   dc3ce:	4640      	mov	r0, r8
   dc3d0:	4649      	mov	r1, r9
   dc3d2:	f000 fc45 	bl	dcc60 <__adddf3>
   dc3d6:	4642      	mov	r2, r8
   dc3d8:	464b      	mov	r3, r9
   dc3da:	4604      	mov	r4, r0
   dc3dc:	460d      	mov	r5, r1
   dc3de:	f000 fc3d 	bl	dcc5c <__aeabi_dsub>
   dc3e2:	4602      	mov	r2, r0
   dc3e4:	460b      	mov	r3, r1
   dc3e6:	4630      	mov	r0, r6
   dc3e8:	4639      	mov	r1, r7
   dc3ea:	f000 fc37 	bl	dcc5c <__aeabi_dsub>
   dc3ee:	4622      	mov	r2, r4
   dc3f0:	4682      	mov	sl, r0
   dc3f2:	468b      	mov	fp, r1
   dc3f4:	462b      	mov	r3, r5
   dc3f6:	4620      	mov	r0, r4
   dc3f8:	4629      	mov	r1, r5
   dc3fa:	f000 fde7 	bl	dcfcc <__aeabi_dmul>
   dc3fe:	a364      	add	r3, pc, #400	; (adr r3, dc590 <__ieee754_pow+0x908>)
   dc400:	e9d3 2300 	ldrd	r2, r3, [r3]
   dc404:	4606      	mov	r6, r0
   dc406:	460f      	mov	r7, r1
   dc408:	f000 fde0 	bl	dcfcc <__aeabi_dmul>
   dc40c:	a362      	add	r3, pc, #392	; (adr r3, dc598 <__ieee754_pow+0x910>)
   dc40e:	e9d3 2300 	ldrd	r2, r3, [r3]
   dc412:	f000 fc23 	bl	dcc5c <__aeabi_dsub>
   dc416:	4632      	mov	r2, r6
   dc418:	463b      	mov	r3, r7
   dc41a:	f000 fdd7 	bl	dcfcc <__aeabi_dmul>
   dc41e:	a360      	add	r3, pc, #384	; (adr r3, dc5a0 <__ieee754_pow+0x918>)
   dc420:	e9d3 2300 	ldrd	r2, r3, [r3]
   dc424:	f000 fc1c 	bl	dcc60 <__adddf3>
   dc428:	4632      	mov	r2, r6
   dc42a:	463b      	mov	r3, r7
   dc42c:	f000 fdce 	bl	dcfcc <__aeabi_dmul>
   dc430:	a35d      	add	r3, pc, #372	; (adr r3, dc5a8 <__ieee754_pow+0x920>)
   dc432:	e9d3 2300 	ldrd	r2, r3, [r3]
   dc436:	f000 fc11 	bl	dcc5c <__aeabi_dsub>
   dc43a:	4632      	mov	r2, r6
   dc43c:	463b      	mov	r3, r7
   dc43e:	f000 fdc5 	bl	dcfcc <__aeabi_dmul>
   dc442:	a35b      	add	r3, pc, #364	; (adr r3, dc5b0 <__ieee754_pow+0x928>)
   dc444:	e9d3 2300 	ldrd	r2, r3, [r3]
   dc448:	f000 fc0a 	bl	dcc60 <__adddf3>
   dc44c:	4632      	mov	r2, r6
   dc44e:	463b      	mov	r3, r7
   dc450:	f000 fdbc 	bl	dcfcc <__aeabi_dmul>
   dc454:	4602      	mov	r2, r0
   dc456:	460b      	mov	r3, r1
   dc458:	4620      	mov	r0, r4
   dc45a:	4629      	mov	r1, r5
   dc45c:	f000 fbfe 	bl	dcc5c <__aeabi_dsub>
   dc460:	4606      	mov	r6, r0
   dc462:	460f      	mov	r7, r1
   dc464:	4632      	mov	r2, r6
   dc466:	463b      	mov	r3, r7
   dc468:	4620      	mov	r0, r4
   dc46a:	4629      	mov	r1, r5
   dc46c:	f000 fdae 	bl	dcfcc <__aeabi_dmul>
   dc470:	2200      	movs	r2, #0
   dc472:	4680      	mov	r8, r0
   dc474:	4689      	mov	r9, r1
   dc476:	f04f 4380 	mov.w	r3, #1073741824	; 0x40000000
   dc47a:	4630      	mov	r0, r6
   dc47c:	4639      	mov	r1, r7
   dc47e:	f000 fbed 	bl	dcc5c <__aeabi_dsub>
   dc482:	4602      	mov	r2, r0
   dc484:	460b      	mov	r3, r1
   dc486:	4640      	mov	r0, r8
   dc488:	4649      	mov	r1, r9
   dc48a:	f000 fec9 	bl	dd220 <__aeabi_ddiv>
   dc48e:	4652      	mov	r2, sl
   dc490:	4606      	mov	r6, r0
   dc492:	460f      	mov	r7, r1
   dc494:	465b      	mov	r3, fp
   dc496:	4620      	mov	r0, r4
   dc498:	4629      	mov	r1, r5
   dc49a:	f000 fd97 	bl	dcfcc <__aeabi_dmul>
   dc49e:	4652      	mov	r2, sl
   dc4a0:	465b      	mov	r3, fp
   dc4a2:	f000 fbdd 	bl	dcc60 <__adddf3>
   dc4a6:	4602      	mov	r2, r0
   dc4a8:	460b      	mov	r3, r1
   dc4aa:	4630      	mov	r0, r6
   dc4ac:	4639      	mov	r1, r7
   dc4ae:	f000 fbd5 	bl	dcc5c <__aeabi_dsub>
   dc4b2:	4622      	mov	r2, r4
   dc4b4:	462b      	mov	r3, r5
   dc4b6:	f000 fbd1 	bl	dcc5c <__aeabi_dsub>
   dc4ba:	4602      	mov	r2, r0
   dc4bc:	460b      	mov	r3, r1
   dc4be:	2000      	movs	r0, #0
   dc4c0:	4945      	ldr	r1, [pc, #276]	; (dc5d8 <__ieee754_pow+0x950>)
   dc4c2:	f000 fbcb 	bl	dcc5c <__aeabi_dsub>
   dc4c6:	460b      	mov	r3, r1
   dc4c8:	9900      	ldr	r1, [sp, #0]
   dc4ca:	4419      	add	r1, r3
   dc4cc:	f5b1 1f80 	cmp.w	r1, #1048576	; 0x100000
   dc4d0:	4602      	mov	r2, r0
   dc4d2:	f2c0 8169 	blt.w	dc7a8 <__ieee754_pow+0xb20>
   dc4d6:	4610      	mov	r0, r2
   dc4d8:	ec53 2b19 	vmov	r2, r3, d9
   dc4dc:	f000 fd76 	bl	dcfcc <__aeabi_dmul>
   dc4e0:	e9cd 0100 	strd	r0, r1, [sp]
   dc4e4:	e41e      	b.n	dbd24 <__ieee754_pow+0x9c>
   dc4e6:	f1bb 0f00 	cmp.w	fp, #0
   dc4ea:	f6ff ac95 	blt.w	dbe18 <__ieee754_pow+0x190>
   dc4ee:	ed9f 7b32 	vldr	d7, [pc, #200]	; dc5b8 <__ieee754_pow+0x930>
   dc4f2:	ed8d 7b00 	vstr	d7, [sp]
   dc4f6:	e415      	b.n	dbd24 <__ieee754_pow+0x9c>
   dc4f8:	f8df c0e4 	ldr.w	ip, [pc, #228]	; dc5e0 <__ieee754_pow+0x958>
   dc4fc:	f021 4300 	bic.w	r3, r1, #2147483648	; 0x80000000
   dc500:	4563      	cmp	r3, ip
   dc502:	f340 810b 	ble.w	dc71c <__ieee754_pow+0xa94>
   dc506:	4b35      	ldr	r3, [pc, #212]	; (dc5dc <__ieee754_pow+0x954>)
   dc508:	440b      	add	r3, r1
   dc50a:	4303      	orrs	r3, r0
   dc50c:	d10a      	bne.n	dc524 <__ieee754_pow+0x89c>
   dc50e:	4632      	mov	r2, r6
   dc510:	463b      	mov	r3, r7
   dc512:	f000 fba3 	bl	dcc5c <__aeabi_dsub>
   dc516:	4652      	mov	r2, sl
   dc518:	465b      	mov	r3, fp
   dc51a:	f000 ffdd 	bl	dd4d8 <__aeabi_dcmpge>
   dc51e:	2800      	cmp	r0, #0
   dc520:	f43f aef2 	beq.w	dc308 <__ieee754_pow+0x680>
   dc524:	a326      	add	r3, pc, #152	; (adr r3, dc5c0 <__ieee754_pow+0x938>)
   dc526:	e9d3 2300 	ldrd	r2, r3, [r3]
   dc52a:	ec51 0b19 	vmov	r0, r1, d9
   dc52e:	f000 fd4d 	bl	dcfcc <__aeabi_dmul>
   dc532:	a323      	add	r3, pc, #140	; (adr r3, dc5c0 <__ieee754_pow+0x938>)
   dc534:	e9d3 2300 	ldrd	r2, r3, [r3]
   dc538:	f000 fd48 	bl	dcfcc <__aeabi_dmul>
   dc53c:	e9cd 0100 	strd	r0, r1, [sp]
   dc540:	f7ff bbf0 	b.w	dbd24 <__ieee754_pow+0x9c>
   dc544:	ed9f 7b20 	vldr	d7, [pc, #128]	; dc5c8 <__ieee754_pow+0x940>
   dc548:	eeb0 9a47 	vmov.f32	s18, s14
   dc54c:	eef0 9a67 	vmov.f32	s19, s15
   dc550:	e686      	b.n	dc260 <__ieee754_pow+0x5d8>
   dc552:	f1bb 0f00 	cmp.w	fp, #0
   dc556:	daca      	bge.n	dc4ee <__ieee754_pow+0x866>
   dc558:	f107 4300 	add.w	r3, r7, #2147483648	; 0x80000000
   dc55c:	9600      	str	r6, [sp, #0]
   dc55e:	9301      	str	r3, [sp, #4]
   dc560:	f7ff bbe0 	b.w	dbd24 <__ieee754_pow+0x9c>
   dc564:	f3af 8000 	nop.w
   dc568:	00000000 	.word	0x00000000
   dc56c:	bff00000 	.word	0xbff00000
   dc570:	652b82fe 	.word	0x652b82fe
   dc574:	3c971547 	.word	0x3c971547
   dc578:	00000000 	.word	0x00000000
   dc57c:	3fe62e43 	.word	0x3fe62e43
   dc580:	fefa39ef 	.word	0xfefa39ef
   dc584:	3fe62e42 	.word	0x3fe62e42
   dc588:	0ca86c39 	.word	0x0ca86c39
   dc58c:	be205c61 	.word	0xbe205c61
   dc590:	72bea4d0 	.word	0x72bea4d0
   dc594:	3e663769 	.word	0x3e663769
   dc598:	c5d26bf1 	.word	0xc5d26bf1
   dc59c:	3ebbbd41 	.word	0x3ebbbd41
   dc5a0:	af25de2c 	.word	0xaf25de2c
   dc5a4:	3f11566a 	.word	0x3f11566a
   dc5a8:	16bebd93 	.word	0x16bebd93
   dc5ac:	3f66c16c 	.word	0x3f66c16c
   dc5b0:	5555553e 	.word	0x5555553e
   dc5b4:	3fc55555 	.word	0x3fc55555
	...
   dc5c0:	c2f8f359 	.word	0xc2f8f359
   dc5c4:	01a56e1f 	.word	0x01a56e1f
   dc5c8:	00000000 	.word	0x00000000
   dc5cc:	3ff00000 	.word	0x3ff00000
   dc5d0:	408fffff 	.word	0x408fffff
   dc5d4:	000fffff 	.word	0x000fffff
   dc5d8:	3ff00000 	.word	0x3ff00000
   dc5dc:	3f6f3400 	.word	0x3f6f3400
   dc5e0:	4090cbff 	.word	0x4090cbff
   dc5e4:	4598      	cmp	r8, r3
   dc5e6:	f6ff af7e 	blt.w	dc4e6 <__ieee754_pow+0x85e>
   dc5ea:	4b91      	ldr	r3, [pc, #580]	; (dc830 <__ieee754_pow+0xba8>)
   dc5ec:	4598      	cmp	r8, r3
   dc5ee:	f73f ac0f 	bgt.w	dbe10 <__ieee754_pow+0x188>
   dc5f2:	4b8f      	ldr	r3, [pc, #572]	; (dc830 <__ieee754_pow+0xba8>)
   dc5f4:	2200      	movs	r2, #0
   dc5f6:	e9dd 0100 	ldrd	r0, r1, [sp]
   dc5fa:	f000 fb2f 	bl	dcc5c <__aeabi_dsub>
   dc5fe:	a378      	add	r3, pc, #480	; (adr r3, dc7e0 <__ieee754_pow+0xb58>)
   dc600:	e9d3 2300 	ldrd	r2, r3, [r3]
   dc604:	4604      	mov	r4, r0
   dc606:	460d      	mov	r5, r1
   dc608:	f000 fce0 	bl	dcfcc <__aeabi_dmul>
   dc60c:	a376      	add	r3, pc, #472	; (adr r3, dc7e8 <__ieee754_pow+0xb60>)
   dc60e:	e9d3 2300 	ldrd	r2, r3, [r3]
   dc612:	4682      	mov	sl, r0
   dc614:	468b      	mov	fp, r1
   dc616:	4620      	mov	r0, r4
   dc618:	4629      	mov	r1, r5
   dc61a:	f000 fcd7 	bl	dcfcc <__aeabi_dmul>
   dc61e:	4b85      	ldr	r3, [pc, #532]	; (dc834 <__ieee754_pow+0xbac>)
   dc620:	4680      	mov	r8, r0
   dc622:	4689      	mov	r9, r1
   dc624:	2200      	movs	r2, #0
   dc626:	4620      	mov	r0, r4
   dc628:	4629      	mov	r1, r5
   dc62a:	f000 fccf 	bl	dcfcc <__aeabi_dmul>
   dc62e:	4602      	mov	r2, r0
   dc630:	460b      	mov	r3, r1
   dc632:	a16f      	add	r1, pc, #444	; (adr r1, dc7f0 <__ieee754_pow+0xb68>)
   dc634:	e9d1 0100 	ldrd	r0, r1, [r1]
   dc638:	f000 fb10 	bl	dcc5c <__aeabi_dsub>
   dc63c:	4622      	mov	r2, r4
   dc63e:	462b      	mov	r3, r5
   dc640:	f000 fcc4 	bl	dcfcc <__aeabi_dmul>
   dc644:	4602      	mov	r2, r0
   dc646:	460b      	mov	r3, r1
   dc648:	2000      	movs	r0, #0
   dc64a:	497b      	ldr	r1, [pc, #492]	; (dc838 <__ieee754_pow+0xbb0>)
   dc64c:	f000 fb06 	bl	dcc5c <__aeabi_dsub>
   dc650:	4622      	mov	r2, r4
   dc652:	462b      	mov	r3, r5
   dc654:	4604      	mov	r4, r0
   dc656:	460d      	mov	r5, r1
   dc658:	4610      	mov	r0, r2
   dc65a:	4619      	mov	r1, r3
   dc65c:	f000 fcb6 	bl	dcfcc <__aeabi_dmul>
   dc660:	4602      	mov	r2, r0
   dc662:	460b      	mov	r3, r1
   dc664:	4620      	mov	r0, r4
   dc666:	4629      	mov	r1, r5
   dc668:	f000 fcb0 	bl	dcfcc <__aeabi_dmul>
   dc66c:	a362      	add	r3, pc, #392	; (adr r3, dc7f8 <__ieee754_pow+0xb70>)
   dc66e:	e9d3 2300 	ldrd	r2, r3, [r3]
   dc672:	f000 fcab 	bl	dcfcc <__aeabi_dmul>
   dc676:	4602      	mov	r2, r0
   dc678:	460b      	mov	r3, r1
   dc67a:	4640      	mov	r0, r8
   dc67c:	4649      	mov	r1, r9
   dc67e:	f000 faed 	bl	dcc5c <__aeabi_dsub>
   dc682:	4680      	mov	r8, r0
   dc684:	4689      	mov	r9, r1
   dc686:	4650      	mov	r0, sl
   dc688:	4659      	mov	r1, fp
   dc68a:	4642      	mov	r2, r8
   dc68c:	464b      	mov	r3, r9
   dc68e:	f000 fae7 	bl	dcc60 <__adddf3>
   dc692:	2400      	movs	r4, #0
   dc694:	4652      	mov	r2, sl
   dc696:	465b      	mov	r3, fp
   dc698:	4620      	mov	r0, r4
   dc69a:	460d      	mov	r5, r1
   dc69c:	f000 fade 	bl	dcc5c <__aeabi_dsub>
   dc6a0:	4602      	mov	r2, r0
   dc6a2:	460b      	mov	r3, r1
   dc6a4:	4640      	mov	r0, r8
   dc6a6:	4649      	mov	r1, r9
   dc6a8:	f000 fad8 	bl	dcc5c <__aeabi_dsub>
   dc6ac:	4682      	mov	sl, r0
   dc6ae:	468b      	mov	fp, r1
   dc6b0:	e5ca      	b.n	dc248 <__ieee754_pow+0x5c0>
   dc6b2:	ed9f 7b53 	vldr	d7, [pc, #332]	; dc800 <__ieee754_pow+0xb78>
   dc6b6:	eeb0 ba47 	vmov.f32	s22, s14
   dc6ba:	eef0 ba67 	vmov.f32	s23, s15
   dc6be:	eeb0 ca47 	vmov.f32	s24, s14
   dc6c2:	eef0 ca67 	vmov.f32	s25, s15
   dc6c6:	ed9f 7b50 	vldr	d7, [pc, #320]	; dc808 <__ieee754_pow+0xb80>
   dc6ca:	f04f 0900 	mov.w	r9, #0
   dc6ce:	ec54 3b17 	vmov	r3, r4, d7
   dc6d2:	e41d      	b.n	dbf10 <__ieee754_pow+0x288>
   dc6d4:	2000      	movs	r0, #0
   dc6d6:	f7ff bbf3 	b.w	dbec0 <__ieee754_pow+0x238>
   dc6da:	4955      	ldr	r1, [pc, #340]	; (dc830 <__ieee754_pow+0xba8>)
   dc6dc:	4622      	mov	r2, r4
   dc6de:	462b      	mov	r3, r5
   dc6e0:	2000      	movs	r0, #0
   dc6e2:	f000 fd9d 	bl	dd220 <__aeabi_ddiv>
   dc6e6:	e9cd 0100 	strd	r0, r1, [sp]
   dc6ea:	f7ff bb1b 	b.w	dbd24 <__ieee754_pow+0x9c>
   dc6ee:	4622      	mov	r2, r4
   dc6f0:	462b      	mov	r3, r5
   dc6f2:	4620      	mov	r0, r4
   dc6f4:	4629      	mov	r1, r5
   dc6f6:	f000 fc69 	bl	dcfcc <__aeabi_dmul>
   dc6fa:	e9cd 0100 	strd	r0, r1, [sp]
   dc6fe:	f7ff bb11 	b.w	dbd24 <__ieee754_pow+0x9c>
   dc702:	2b00      	cmp	r3, #0
   dc704:	d142      	bne.n	dc78c <__ieee754_pow+0xb04>
   dc706:	f1c1 0114 	rsb	r1, r1, #20
   dc70a:	fa4a f001 	asr.w	r0, sl, r1
   dc70e:	fa00 f101 	lsl.w	r1, r0, r1
   dc712:	4551      	cmp	r1, sl
   dc714:	d05a      	beq.n	dc7cc <__ieee754_pow+0xb44>
   dc716:	9303      	str	r3, [sp, #12]
   dc718:	f7ff bae0 	b.w	dbcdc <__ieee754_pow+0x54>
   dc71c:	4a46      	ldr	r2, [pc, #280]	; (dc838 <__ieee754_pow+0xbb0>)
   dc71e:	4293      	cmp	r3, r2
   dc720:	dc5b      	bgt.n	dc7da <__ieee754_pow+0xb52>
   dc722:	e9dd 1200 	ldrd	r1, r2, [sp]
   dc726:	9100      	str	r1, [sp, #0]
   dc728:	9103      	str	r1, [sp, #12]
   dc72a:	e622      	b.n	dc372 <__ieee754_pow+0x6ea>
   dc72c:	a338      	add	r3, pc, #224	; (adr r3, dc810 <__ieee754_pow+0xb88>)
   dc72e:	e9d3 2300 	ldrd	r2, r3, [r3]
   dc732:	ec51 0b19 	vmov	r0, r1, d9
   dc736:	f000 fc49 	bl	dcfcc <__aeabi_dmul>
   dc73a:	a335      	add	r3, pc, #212	; (adr r3, dc810 <__ieee754_pow+0xb88>)
   dc73c:	e9d3 2300 	ldrd	r2, r3, [r3]
   dc740:	f000 fc44 	bl	dcfcc <__aeabi_dmul>
   dc744:	e9cd 0100 	strd	r0, r1, [sp]
   dc748:	f7ff baec 	b.w	dbd24 <__ieee754_pow+0x9c>
   dc74c:	9b03      	ldr	r3, [sp, #12]
   dc74e:	2b01      	cmp	r3, #1
   dc750:	f47f aae8 	bne.w	dbd24 <__ieee754_pow+0x9c>
   dc754:	e9dd 2100 	ldrd	r2, r1, [sp]
   dc758:	f101 4300 	add.w	r3, r1, #2147483648	; 0x80000000
   dc75c:	e9cd 2300 	strd	r2, r3, [sp]
   dc760:	f7ff bae0 	b.w	dbd24 <__ieee754_pow+0x9c>
   dc764:	ed9f 7b2c 	vldr	d7, [pc, #176]	; dc818 <__ieee754_pow+0xb90>
   dc768:	eeb0 ba47 	vmov.f32	s22, s14
   dc76c:	eef0 ba67 	vmov.f32	s23, s15
   dc770:	ed9f 7b2b 	vldr	d7, [pc, #172]	; dc820 <__ieee754_pow+0xb98>
   dc774:	eeb0 ca47 	vmov.f32	s24, s14
   dc778:	eef0 ca67 	vmov.f32	s25, s15
   dc77c:	ed9f 7b2a 	vldr	d7, [pc, #168]	; dc828 <__ieee754_pow+0xba0>
   dc780:	f44f 2980 	mov.w	r9, #262144	; 0x40000
   dc784:	ec54 3b17 	vmov	r3, r4, d7
   dc788:	f7ff bbc2 	b.w	dbf10 <__ieee754_pow+0x288>
   dc78c:	ec45 4b10 	vmov	d0, r4, r5
   dc790:	9203      	str	r2, [sp, #12]
   dc792:	f000 f917 	bl	dc9c4 <fabs>
   dc796:	9a03      	ldr	r2, [sp, #12]
   dc798:	ed8d 0b00 	vstr	d0, [sp]
   dc79c:	2a00      	cmp	r2, #0
   dc79e:	f47f ab61 	bne.w	dbe64 <__ieee754_pow+0x1dc>
   dc7a2:	9203      	str	r2, [sp, #12]
   dc7a4:	f7ff baf5 	b.w	dbd92 <__ieee754_pow+0x10a>
   dc7a8:	9803      	ldr	r0, [sp, #12]
   dc7aa:	ec43 2b10 	vmov	d0, r2, r3
   dc7ae:	f000 f9bf 	bl	dcb30 <scalbn>
   dc7b2:	ec51 0b10 	vmov	r0, r1, d0
   dc7b6:	e68f      	b.n	dc4d8 <__ieee754_pow+0x850>
   dc7b8:	f000 0001 	and.w	r0, r0, #1
   dc7bc:	f1c0 0102 	rsb	r1, r0, #2
   dc7c0:	9103      	str	r1, [sp, #12]
   dc7c2:	2b00      	cmp	r3, #0
   dc7c4:	f43f aa8a 	beq.w	dbcdc <__ieee754_pow+0x54>
   dc7c8:	f7ff bada 	b.w	dbd80 <__ieee754_pow+0xf8>
   dc7cc:	f000 0001 	and.w	r0, r0, #1
   dc7d0:	f1c0 0302 	rsb	r3, r0, #2
   dc7d4:	9303      	str	r3, [sp, #12]
   dc7d6:	f7ff ba81 	b.w	dbcdc <__ieee754_pow+0x54>
   dc7da:	151b      	asrs	r3, r3, #20
   dc7dc:	e596      	b.n	dc30c <__ieee754_pow+0x684>
   dc7de:	bf00      	nop
   dc7e0:	60000000 	.word	0x60000000
   dc7e4:	3ff71547 	.word	0x3ff71547
   dc7e8:	f85ddf44 	.word	0xf85ddf44
   dc7ec:	3e54ae0b 	.word	0x3e54ae0b
   dc7f0:	55555555 	.word	0x55555555
   dc7f4:	3fd55555 	.word	0x3fd55555
   dc7f8:	652b82fe 	.word	0x652b82fe
   dc7fc:	3ff71547 	.word	0x3ff71547
	...
   dc80c:	3ff00000 	.word	0x3ff00000
   dc810:	8800759c 	.word	0x8800759c
   dc814:	7e37e43c 	.word	0x7e37e43c
   dc818:	40000000 	.word	0x40000000
   dc81c:	3fe2b803 	.word	0x3fe2b803
   dc820:	43cfd006 	.word	0x43cfd006
   dc824:	3e4cfdeb 	.word	0x3e4cfdeb
   dc828:	00000000 	.word	0x00000000
   dc82c:	3ff80000 	.word	0x3ff80000
   dc830:	3ff00000 	.word	0x3ff00000
   dc834:	3fd00000 	.word	0x3fd00000
   dc838:	3fe00000 	.word	0x3fe00000

000dc83c <__ieee754_sqrt>:
   dc83c:	e92d 41f0 	stmdb	sp!, {r4, r5, r6, r7, r8, lr}
   dc840:	4a5f      	ldr	r2, [pc, #380]	; (dc9c0 <__ieee754_sqrt+0x184>)
   dc842:	ec57 6b10 	vmov	r6, r7, d0
   dc846:	43ba      	bics	r2, r7
   dc848:	f000 8098 	beq.w	dc97c <__ieee754_sqrt+0x140>
   dc84c:	2f00      	cmp	r7, #0
   dc84e:	ee10 4a10 	vmov	r4, s0
   dc852:	463b      	mov	r3, r7
   dc854:	dd4e      	ble.n	dc8f4 <__ieee754_sqrt+0xb8>
   dc856:	1539      	asrs	r1, r7, #20
   dc858:	d05b      	beq.n	dc912 <__ieee754_sqrt+0xd6>
   dc85a:	f3c3 0313 	ubfx	r3, r3, #0, #20
   dc85e:	07ca      	lsls	r2, r1, #31
   dc860:	f443 1380 	orr.w	r3, r3, #1048576	; 0x100000
   dc864:	f2a1 3eff 	subw	lr, r1, #1023	; 0x3ff
   dc868:	d403      	bmi.n	dc872 <__ieee754_sqrt+0x36>
   dc86a:	005b      	lsls	r3, r3, #1
   dc86c:	eb03 73d4 	add.w	r3, r3, r4, lsr #31
   dc870:	0064      	lsls	r4, r4, #1
   dc872:	0fe2      	lsrs	r2, r4, #31
   dc874:	f04f 0c00 	mov.w	ip, #0
   dc878:	eb02 0343 	add.w	r3, r2, r3, lsl #1
   dc87c:	ea4f 0e6e 	mov.w	lr, lr, asr #1
   dc880:	0064      	lsls	r4, r4, #1
   dc882:	4666      	mov	r6, ip
   dc884:	2516      	movs	r5, #22
   dc886:	f44f 1200 	mov.w	r2, #2097152	; 0x200000
   dc88a:	18b1      	adds	r1, r6, r2
   dc88c:	4299      	cmp	r1, r3
   dc88e:	dc02      	bgt.n	dc896 <__ieee754_sqrt+0x5a>
   dc890:	1a5b      	subs	r3, r3, r1
   dc892:	188e      	adds	r6, r1, r2
   dc894:	4494      	add	ip, r2
   dc896:	005b      	lsls	r3, r3, #1
   dc898:	3d01      	subs	r5, #1
   dc89a:	eb03 73d4 	add.w	r3, r3, r4, lsr #31
   dc89e:	ea4f 0252 	mov.w	r2, r2, lsr #1
   dc8a2:	ea4f 0444 	mov.w	r4, r4, lsl #1
   dc8a6:	d1f0      	bne.n	dc88a <__ieee754_sqrt+0x4e>
   dc8a8:	462f      	mov	r7, r5
   dc8aa:	2020      	movs	r0, #32
   dc8ac:	f04f 4200 	mov.w	r2, #2147483648	; 0x80000000
   dc8b0:	e009      	b.n	dc8c6 <__ieee754_sqrt+0x8a>
   dc8b2:	d03e      	beq.n	dc932 <__ieee754_sqrt+0xf6>
   dc8b4:	0fe1      	lsrs	r1, r4, #31
   dc8b6:	3801      	subs	r0, #1
   dc8b8:	ea4f 0252 	mov.w	r2, r2, lsr #1
   dc8bc:	eb01 0343 	add.w	r3, r1, r3, lsl #1
   dc8c0:	ea4f 0444 	mov.w	r4, r4, lsl #1
   dc8c4:	d03e      	beq.n	dc944 <__ieee754_sqrt+0x108>
   dc8c6:	42b3      	cmp	r3, r6
   dc8c8:	eb02 0105 	add.w	r1, r2, r5
   dc8cc:	ddf1      	ble.n	dc8b2 <__ieee754_sqrt+0x76>
   dc8ce:	2900      	cmp	r1, #0
   dc8d0:	eb01 0502 	add.w	r5, r1, r2
   dc8d4:	db09      	blt.n	dc8ea <__ieee754_sqrt+0xae>
   dc8d6:	46b0      	mov	r8, r6
   dc8d8:	1b9b      	subs	r3, r3, r6
   dc8da:	42a1      	cmp	r1, r4
   dc8dc:	bf88      	it	hi
   dc8de:	f103 33ff 	addhi.w	r3, r3, #4294967295
   dc8e2:	1a64      	subs	r4, r4, r1
   dc8e4:	4417      	add	r7, r2
   dc8e6:	4646      	mov	r6, r8
   dc8e8:	e7e4      	b.n	dc8b4 <__ieee754_sqrt+0x78>
   dc8ea:	2d00      	cmp	r5, #0
   dc8ec:	dbf3      	blt.n	dc8d6 <__ieee754_sqrt+0x9a>
   dc8ee:	f106 0801 	add.w	r8, r6, #1
   dc8f2:	e7f1      	b.n	dc8d8 <__ieee754_sqrt+0x9c>
   dc8f4:	f027 4200 	bic.w	r2, r7, #2147483648	; 0x80000000
   dc8f8:	4332      	orrs	r2, r6
   dc8fa:	d036      	beq.n	dc96a <__ieee754_sqrt+0x12e>
   dc8fc:	2f00      	cmp	r7, #0
   dc8fe:	d14d      	bne.n	dc99c <__ieee754_sqrt+0x160>
   dc900:	4639      	mov	r1, r7
   dc902:	0ae2      	lsrs	r2, r4, #11
   dc904:	3915      	subs	r1, #21
   dc906:	0564      	lsls	r4, r4, #21
   dc908:	4613      	mov	r3, r2
   dc90a:	2a00      	cmp	r2, #0
   dc90c:	d0f9      	beq.n	dc902 <__ieee754_sqrt+0xc6>
   dc90e:	02d7      	lsls	r7, r2, #11
   dc910:	d451      	bmi.n	dc9b6 <__ieee754_sqrt+0x17a>
   dc912:	2000      	movs	r0, #0
   dc914:	005b      	lsls	r3, r3, #1
   dc916:	02de      	lsls	r6, r3, #11
   dc918:	4605      	mov	r5, r0
   dc91a:	f100 0001 	add.w	r0, r0, #1
   dc91e:	d5f9      	bpl.n	dc914 <__ieee754_sqrt+0xd8>
   dc920:	461a      	mov	r2, r3
   dc922:	4623      	mov	r3, r4
   dc924:	4084      	lsls	r4, r0
   dc926:	f1c0 0020 	rsb	r0, r0, #32
   dc92a:	40c3      	lsrs	r3, r0
   dc92c:	4313      	orrs	r3, r2
   dc92e:	1b49      	subs	r1, r1, r5
   dc930:	e793      	b.n	dc85a <__ieee754_sqrt+0x1e>
   dc932:	42a1      	cmp	r1, r4
   dc934:	d8be      	bhi.n	dc8b4 <__ieee754_sqrt+0x78>
   dc936:	2900      	cmp	r1, #0
   dc938:	eb01 0502 	add.w	r5, r1, r2
   dc93c:	dbd5      	blt.n	dc8ea <__ieee754_sqrt+0xae>
   dc93e:	4698      	mov	r8, r3
   dc940:	2300      	movs	r3, #0
   dc942:	e7ce      	b.n	dc8e2 <__ieee754_sqrt+0xa6>
   dc944:	4323      	orrs	r3, r4
   dc946:	d112      	bne.n	dc96e <__ieee754_sqrt+0x132>
   dc948:	0878      	lsrs	r0, r7, #1
   dc94a:	ea4f 016c 	mov.w	r1, ip, asr #1
   dc94e:	f101 517f 	add.w	r1, r1, #1069547520	; 0x3fc00000
   dc952:	f01c 0f01 	tst.w	ip, #1
   dc956:	f501 1100 	add.w	r1, r1, #2097152	; 0x200000
   dc95a:	bf18      	it	ne
   dc95c:	f040 4000 	orrne.w	r0, r0, #2147483648	; 0x80000000
   dc960:	eb01 530e 	add.w	r3, r1, lr, lsl #20
   dc964:	4602      	mov	r2, r0
   dc966:	ec43 2b10 	vmov	d0, r2, r3
   dc96a:	e8bd 81f0 	ldmia.w	sp!, {r4, r5, r6, r7, r8, pc}
   dc96e:	1c7b      	adds	r3, r7, #1
   dc970:	bf16      	itet	ne
   dc972:	1c78      	addne	r0, r7, #1
   dc974:	f10c 0c01 	addeq.w	ip, ip, #1
   dc978:	0840      	lsrne	r0, r0, #1
   dc97a:	e7e6      	b.n	dc94a <__ieee754_sqrt+0x10e>
   dc97c:	ee10 2a10 	vmov	r2, s0
   dc980:	ee10 0a10 	vmov	r0, s0
   dc984:	463b      	mov	r3, r7
   dc986:	4639      	mov	r1, r7
   dc988:	f000 fb20 	bl	dcfcc <__aeabi_dmul>
   dc98c:	4632      	mov	r2, r6
   dc98e:	463b      	mov	r3, r7
   dc990:	f000 f966 	bl	dcc60 <__adddf3>
   dc994:	ec41 0b10 	vmov	d0, r0, r1
   dc998:	e8bd 81f0 	ldmia.w	sp!, {r4, r5, r6, r7, r8, pc}
   dc99c:	ee10 2a10 	vmov	r2, s0
   dc9a0:	4630      	mov	r0, r6
   dc9a2:	4639      	mov	r1, r7
   dc9a4:	f000 f95a 	bl	dcc5c <__aeabi_dsub>
   dc9a8:	4602      	mov	r2, r0
   dc9aa:	460b      	mov	r3, r1
   dc9ac:	f000 fc38 	bl	dd220 <__aeabi_ddiv>
   dc9b0:	ec41 0b10 	vmov	d0, r0, r1
   dc9b4:	e7d9      	b.n	dc96a <__ieee754_sqrt+0x12e>
   dc9b6:	4623      	mov	r3, r4
   dc9b8:	2020      	movs	r0, #32
   dc9ba:	f04f 35ff 	mov.w	r5, #4294967295
   dc9be:	e7b4      	b.n	dc92a <__ieee754_sqrt+0xee>
   dc9c0:	7ff00000 	.word	0x7ff00000

000dc9c4 <fabs>:
   dc9c4:	ec51 0b10 	vmov	r0, r1, d0
   dc9c8:	ee10 2a10 	vmov	r2, s0
   dc9cc:	f021 4300 	bic.w	r3, r1, #2147483648	; 0x80000000
   dc9d0:	ec43 2b10 	vmov	d0, r2, r3
   dc9d4:	4770      	bx	lr
   dc9d6:	bf00      	nop

000dc9d8 <finite>:
   dc9d8:	b082      	sub	sp, #8
   dc9da:	ed8d 0b00 	vstr	d0, [sp]
   dc9de:	9801      	ldr	r0, [sp, #4]
   dc9e0:	f040 4000 	orr.w	r0, r0, #2147483648	; 0x80000000
   dc9e4:	f500 1080 	add.w	r0, r0, #1048576	; 0x100000
   dc9e8:	0fc0      	lsrs	r0, r0, #31
   dc9ea:	b002      	add	sp, #8
   dc9ec:	4770      	bx	lr
   dc9ee:	bf00      	nop

000dc9f0 <matherr>:
   dc9f0:	2000      	movs	r0, #0
   dc9f2:	4770      	bx	lr
   dc9f4:	0000      	movs	r0, r0
	...

000dc9f8 <nan>:
   dc9f8:	ed9f 0b01 	vldr	d0, [pc, #4]	; dca00 <nan+0x8>
   dc9fc:	4770      	bx	lr
   dc9fe:	bf00      	nop
   dca00:	00000000 	.word	0x00000000
   dca04:	7ff80000 	.word	0x7ff80000

000dca08 <rint>:
   dca08:	b5f0      	push	{r4, r5, r6, r7, lr}
   dca0a:	ec53 2b10 	vmov	r2, r3, d0
   dca0e:	f3c3 560a 	ubfx	r6, r3, #20, #11
   dca12:	f2a6 30ff 	subw	r0, r6, #1023	; 0x3ff
   dca16:	2813      	cmp	r0, #19
   dca18:	ee10 5a10 	vmov	r5, s0
   dca1c:	b083      	sub	sp, #12
   dca1e:	4619      	mov	r1, r3
   dca20:	ea4f 74d3 	mov.w	r4, r3, lsr #31
   dca24:	dc31      	bgt.n	dca8a <rint+0x82>
   dca26:	2800      	cmp	r0, #0
   dca28:	db4c      	blt.n	dcac4 <rint+0xbc>
   dca2a:	4e3e      	ldr	r6, [pc, #248]	; (dcb24 <rint+0x11c>)
   dca2c:	4106      	asrs	r6, r0
   dca2e:	ea03 0706 	and.w	r7, r3, r6
   dca32:	4317      	orrs	r7, r2
   dca34:	d02e      	beq.n	dca94 <rint+0x8c>
   dca36:	ea03 0356 	and.w	r3, r3, r6, lsr #1
   dca3a:	431d      	orrs	r5, r3
   dca3c:	ea4f 0656 	mov.w	r6, r6, lsr #1
   dca40:	d00c      	beq.n	dca5c <rint+0x54>
   dca42:	f44f 2380 	mov.w	r3, #262144	; 0x40000
   dca46:	2813      	cmp	r0, #19
   dca48:	ea21 0606 	bic.w	r6, r1, r6
   dca4c:	fa43 f100 	asr.w	r1, r3, r0
   dca50:	ea41 0106 	orr.w	r1, r1, r6
   dca54:	bf0c      	ite	eq
   dca56:	f04f 4500 	moveq.w	r5, #2147483648	; 0x80000000
   dca5a:	2500      	movne	r5, #0
   dca5c:	4832      	ldr	r0, [pc, #200]	; (dcb28 <rint+0x120>)
   dca5e:	eb00 04c4 	add.w	r4, r0, r4, lsl #3
   dca62:	462a      	mov	r2, r5
   dca64:	e9d4 4500 	ldrd	r4, r5, [r4]
   dca68:	460b      	mov	r3, r1
   dca6a:	4620      	mov	r0, r4
   dca6c:	4629      	mov	r1, r5
   dca6e:	f000 f8f7 	bl	dcc60 <__adddf3>
   dca72:	e9cd 0100 	strd	r0, r1, [sp]
   dca76:	e9dd 0100 	ldrd	r0, r1, [sp]
   dca7a:	4622      	mov	r2, r4
   dca7c:	462b      	mov	r3, r5
   dca7e:	f000 f8ed 	bl	dcc5c <__aeabi_dsub>
   dca82:	ec41 0b10 	vmov	d0, r0, r1
   dca86:	b003      	add	sp, #12
   dca88:	bdf0      	pop	{r4, r5, r6, r7, pc}
   dca8a:	2833      	cmp	r0, #51	; 0x33
   dca8c:	dd06      	ble.n	dca9c <rint+0x94>
   dca8e:	f5b0 6f80 	cmp.w	r0, #1024	; 0x400
   dca92:	d040      	beq.n	dcb16 <rint+0x10e>
   dca94:	ec43 2b10 	vmov	d0, r2, r3
   dca98:	b003      	add	sp, #12
   dca9a:	bdf0      	pop	{r4, r5, r6, r7, pc}
   dca9c:	f2a6 4613 	subw	r6, r6, #1043	; 0x413
   dcaa0:	f04f 30ff 	mov.w	r0, #4294967295
   dcaa4:	40f0      	lsrs	r0, r6
   dcaa6:	4202      	tst	r2, r0
   dcaa8:	d0f4      	beq.n	dca94 <rint+0x8c>
   dcaaa:	ea15 0250 	ands.w	r2, r5, r0, lsr #1
   dcaae:	ea4f 0350 	mov.w	r3, r0, lsr #1
   dcab2:	d0d3      	beq.n	dca5c <rint+0x54>
   dcab4:	f04f 4280 	mov.w	r2, #1073741824	; 0x40000000
   dcab8:	ea25 0503 	bic.w	r5, r5, r3
   dcabc:	fa42 f606 	asr.w	r6, r2, r6
   dcac0:	4335      	orrs	r5, r6
   dcac2:	e7cb      	b.n	dca5c <rint+0x54>
   dcac4:	f023 4000 	bic.w	r0, r3, #2147483648	; 0x80000000
   dcac8:	4310      	orrs	r0, r2
   dcaca:	d0e3      	beq.n	dca94 <rint+0x8c>
   dcacc:	f3c3 0013 	ubfx	r0, r3, #0, #20
   dcad0:	4310      	orrs	r0, r2
   dcad2:	4245      	negs	r5, r0
   dcad4:	4305      	orrs	r5, r0
   dcad6:	4814      	ldr	r0, [pc, #80]	; (dcb28 <rint+0x120>)
   dcad8:	eb00 00c4 	add.w	r0, r0, r4, lsl #3
   dcadc:	e9d0 6700 	ldrd	r6, r7, [r0]
   dcae0:	0c59      	lsrs	r1, r3, #17
   dcae2:	0b2d      	lsrs	r5, r5, #12
   dcae4:	0449      	lsls	r1, r1, #17
   dcae6:	f405 2500 	and.w	r5, r5, #524288	; 0x80000
   dcaea:	ea45 0301 	orr.w	r3, r5, r1
   dcaee:	4630      	mov	r0, r6
   dcaf0:	4639      	mov	r1, r7
   dcaf2:	f000 f8b5 	bl	dcc60 <__adddf3>
   dcaf6:	e9cd 0100 	strd	r0, r1, [sp]
   dcafa:	463b      	mov	r3, r7
   dcafc:	e9dd 0100 	ldrd	r0, r1, [sp]
   dcb00:	4632      	mov	r2, r6
   dcb02:	f000 f8ab 	bl	dcc5c <__aeabi_dsub>
   dcb06:	f021 4300 	bic.w	r3, r1, #2147483648	; 0x80000000
   dcb0a:	ea43 71c4 	orr.w	r1, r3, r4, lsl #31
   dcb0e:	ec41 0b10 	vmov	d0, r0, r1
   dcb12:	b003      	add	sp, #12
   dcb14:	bdf0      	pop	{r4, r5, r6, r7, pc}
   dcb16:	ee10 0a10 	vmov	r0, s0
   dcb1a:	f000 f8a1 	bl	dcc60 <__adddf3>
   dcb1e:	ec41 0b10 	vmov	d0, r0, r1
   dcb22:	e7b9      	b.n	dca98 <rint+0x90>
   dcb24:	000fffff 	.word	0x000fffff
   dcb28:	000ded70 	.word	0x000ded70
   dcb2c:	00000000 	.word	0x00000000

000dcb30 <scalbn>:
   dcb30:	b538      	push	{r3, r4, r5, lr}
   dcb32:	ec53 2b10 	vmov	r2, r3, d0
   dcb36:	f3c3 510a 	ubfx	r1, r3, #20, #11
   dcb3a:	461c      	mov	r4, r3
   dcb3c:	4605      	mov	r5, r0
   dcb3e:	bb81      	cbnz	r1, dcba2 <scalbn+0x72>
   dcb40:	ee10 1a10 	vmov	r1, s0
   dcb44:	f023 4400 	bic.w	r4, r3, #2147483648	; 0x80000000
   dcb48:	4321      	orrs	r1, r4
   dcb4a:	d029      	beq.n	dcba0 <scalbn+0x70>
   dcb4c:	4619      	mov	r1, r3
   dcb4e:	2200      	movs	r2, #0
   dcb50:	4b3d      	ldr	r3, [pc, #244]	; (dcc48 <scalbn+0x118>)
   dcb52:	4c3e      	ldr	r4, [pc, #248]	; (dcc4c <scalbn+0x11c>)
   dcb54:	ee10 0a10 	vmov	r0, s0
   dcb58:	f000 fa38 	bl	dcfcc <__aeabi_dmul>
   dcb5c:	42a5      	cmp	r5, r4
   dcb5e:	4602      	mov	r2, r0
   dcb60:	460b      	mov	r3, r1
   dcb62:	db16      	blt.n	dcb92 <scalbn+0x62>
   dcb64:	460c      	mov	r4, r1
   dcb66:	f3c1 510a 	ubfx	r1, r1, #20, #11
   dcb6a:	3936      	subs	r1, #54	; 0x36
   dcb6c:	4429      	add	r1, r5
   dcb6e:	f240 70fe 	movw	r0, #2046	; 0x7fe
   dcb72:	4281      	cmp	r1, r0
   dcb74:	dc21      	bgt.n	dcbba <scalbn+0x8a>
   dcb76:	2900      	cmp	r1, #0
   dcb78:	dc47      	bgt.n	dcc0a <scalbn+0xda>
   dcb7a:	f111 0f35 	cmn.w	r1, #53	; 0x35
   dcb7e:	da34      	bge.n	dcbea <scalbn+0xba>
   dcb80:	f24c 3150 	movw	r1, #50000	; 0xc350
   dcb84:	428d      	cmp	r5, r1
   dcb86:	dc18      	bgt.n	dcbba <scalbn+0x8a>
   dcb88:	2b00      	cmp	r3, #0
   dcb8a:	a127      	add	r1, pc, #156	; (adr r1, dcc28 <scalbn+0xf8>)
   dcb8c:	e9d1 0100 	ldrd	r0, r1, [r1]
   dcb90:	db44      	blt.n	dcc1c <scalbn+0xec>
   dcb92:	a325      	add	r3, pc, #148	; (adr r3, dcc28 <scalbn+0xf8>)
   dcb94:	e9d3 2300 	ldrd	r2, r3, [r3]
   dcb98:	f000 fa18 	bl	dcfcc <__aeabi_dmul>
   dcb9c:	ec41 0b10 	vmov	d0, r0, r1
   dcba0:	bd38      	pop	{r3, r4, r5, pc}
   dcba2:	f240 70ff 	movw	r0, #2047	; 0x7ff
   dcba6:	4281      	cmp	r1, r0
   dcba8:	d1e0      	bne.n	dcb6c <scalbn+0x3c>
   dcbaa:	ee10 0a10 	vmov	r0, s0
   dcbae:	4619      	mov	r1, r3
   dcbb0:	f000 f856 	bl	dcc60 <__adddf3>
   dcbb4:	ec41 0b10 	vmov	d0, r0, r1
   dcbb8:	bd38      	pop	{r3, r4, r5, pc}
   dcbba:	2b00      	cmp	r3, #0
   dcbbc:	a11c      	add	r1, pc, #112	; (adr r1, dcc30 <scalbn+0x100>)
   dcbbe:	e9d1 0100 	ldrd	r0, r1, [r1]
   dcbc2:	db07      	blt.n	dcbd4 <scalbn+0xa4>
   dcbc4:	a31a      	add	r3, pc, #104	; (adr r3, dcc30 <scalbn+0x100>)
   dcbc6:	e9d3 2300 	ldrd	r2, r3, [r3]
   dcbca:	f000 f9ff 	bl	dcfcc <__aeabi_dmul>
   dcbce:	ec41 0b10 	vmov	d0, r0, r1
   dcbd2:	bd38      	pop	{r3, r4, r5, pc}
   dcbd4:	a118      	add	r1, pc, #96	; (adr r1, dcc38 <scalbn+0x108>)
   dcbd6:	e9d1 0100 	ldrd	r0, r1, [r1]
   dcbda:	a315      	add	r3, pc, #84	; (adr r3, dcc30 <scalbn+0x100>)
   dcbdc:	e9d3 2300 	ldrd	r2, r3, [r3]
   dcbe0:	f000 f9f4 	bl	dcfcc <__aeabi_dmul>
   dcbe4:	ec41 0b10 	vmov	d0, r0, r1
   dcbe8:	e7f3      	b.n	dcbd2 <scalbn+0xa2>
   dcbea:	f024 44ff 	bic.w	r4, r4, #2139095040	; 0x7f800000
   dcbee:	f424 04e0 	bic.w	r4, r4, #7340032	; 0x700000
   dcbf2:	3136      	adds	r1, #54	; 0x36
   dcbf4:	ea44 5301 	orr.w	r3, r4, r1, lsl #20
   dcbf8:	4610      	mov	r0, r2
   dcbfa:	4619      	mov	r1, r3
   dcbfc:	2200      	movs	r2, #0
   dcbfe:	4b14      	ldr	r3, [pc, #80]	; (dcc50 <scalbn+0x120>)
   dcc00:	f000 f9e4 	bl	dcfcc <__aeabi_dmul>
   dcc04:	ec41 0b10 	vmov	d0, r0, r1
   dcc08:	bd38      	pop	{r3, r4, r5, pc}
   dcc0a:	f024 44ff 	bic.w	r4, r4, #2139095040	; 0x7f800000
   dcc0e:	f424 04e0 	bic.w	r4, r4, #7340032	; 0x700000
   dcc12:	ea44 5301 	orr.w	r3, r4, r1, lsl #20
   dcc16:	ec43 2b10 	vmov	d0, r2, r3
   dcc1a:	bd38      	pop	{r3, r4, r5, pc}
   dcc1c:	a108      	add	r1, pc, #32	; (adr r1, dcc40 <scalbn+0x110>)
   dcc1e:	e9d1 0100 	ldrd	r0, r1, [r1]
   dcc22:	e7b6      	b.n	dcb92 <scalbn+0x62>
   dcc24:	f3af 8000 	nop.w
   dcc28:	c2f8f359 	.word	0xc2f8f359
   dcc2c:	01a56e1f 	.word	0x01a56e1f
   dcc30:	8800759c 	.word	0x8800759c
   dcc34:	7e37e43c 	.word	0x7e37e43c
   dcc38:	8800759c 	.word	0x8800759c
   dcc3c:	fe37e43c 	.word	0xfe37e43c
   dcc40:	c2f8f359 	.word	0xc2f8f359
   dcc44:	81a56e1f 	.word	0x81a56e1f
   dcc48:	43500000 	.word	0x43500000
   dcc4c:	ffff3cb0 	.word	0xffff3cb0
   dcc50:	3c900000 	.word	0x3c900000

000dcc54 <__aeabi_drsub>:
   dcc54:	f081 4100 	eor.w	r1, r1, #2147483648	; 0x80000000
   dcc58:	e002      	b.n	dcc60 <__adddf3>
   dcc5a:	bf00      	nop

000dcc5c <__aeabi_dsub>:
   dcc5c:	f083 4300 	eor.w	r3, r3, #2147483648	; 0x80000000

000dcc60 <__adddf3>:
   dcc60:	b530      	push	{r4, r5, lr}
   dcc62:	ea4f 0441 	mov.w	r4, r1, lsl #1
   dcc66:	ea4f 0543 	mov.w	r5, r3, lsl #1
   dcc6a:	ea94 0f05 	teq	r4, r5
   dcc6e:	bf08      	it	eq
   dcc70:	ea90 0f02 	teqeq	r0, r2
   dcc74:	bf1f      	itttt	ne
   dcc76:	ea54 0c00 	orrsne.w	ip, r4, r0
   dcc7a:	ea55 0c02 	orrsne.w	ip, r5, r2
   dcc7e:	ea7f 5c64 	mvnsne.w	ip, r4, asr #21
   dcc82:	ea7f 5c65 	mvnsne.w	ip, r5, asr #21
   dcc86:	f000 80e2 	beq.w	dce4e <__adddf3+0x1ee>
   dcc8a:	ea4f 5454 	mov.w	r4, r4, lsr #21
   dcc8e:	ebd4 5555 	rsbs	r5, r4, r5, lsr #21
   dcc92:	bfb8      	it	lt
   dcc94:	426d      	neglt	r5, r5
   dcc96:	dd0c      	ble.n	dccb2 <__adddf3+0x52>
   dcc98:	442c      	add	r4, r5
   dcc9a:	ea80 0202 	eor.w	r2, r0, r2
   dcc9e:	ea81 0303 	eor.w	r3, r1, r3
   dcca2:	ea82 0000 	eor.w	r0, r2, r0
   dcca6:	ea83 0101 	eor.w	r1, r3, r1
   dccaa:	ea80 0202 	eor.w	r2, r0, r2
   dccae:	ea81 0303 	eor.w	r3, r1, r3
   dccb2:	2d36      	cmp	r5, #54	; 0x36
   dccb4:	bf88      	it	hi
   dccb6:	bd30      	pophi	{r4, r5, pc}
   dccb8:	f011 4f00 	tst.w	r1, #2147483648	; 0x80000000
   dccbc:	ea4f 3101 	mov.w	r1, r1, lsl #12
   dccc0:	f44f 1c80 	mov.w	ip, #1048576	; 0x100000
   dccc4:	ea4c 3111 	orr.w	r1, ip, r1, lsr #12
   dccc8:	d002      	beq.n	dccd0 <__adddf3+0x70>
   dccca:	4240      	negs	r0, r0
   dcccc:	eb61 0141 	sbc.w	r1, r1, r1, lsl #1
   dccd0:	f013 4f00 	tst.w	r3, #2147483648	; 0x80000000
   dccd4:	ea4f 3303 	mov.w	r3, r3, lsl #12
   dccd8:	ea4c 3313 	orr.w	r3, ip, r3, lsr #12
   dccdc:	d002      	beq.n	dcce4 <__adddf3+0x84>
   dccde:	4252      	negs	r2, r2
   dcce0:	eb63 0343 	sbc.w	r3, r3, r3, lsl #1
   dcce4:	ea94 0f05 	teq	r4, r5
   dcce8:	f000 80a7 	beq.w	dce3a <__adddf3+0x1da>
   dccec:	f1a4 0401 	sub.w	r4, r4, #1
   dccf0:	f1d5 0e20 	rsbs	lr, r5, #32
   dccf4:	db0d      	blt.n	dcd12 <__adddf3+0xb2>
   dccf6:	fa02 fc0e 	lsl.w	ip, r2, lr
   dccfa:	fa22 f205 	lsr.w	r2, r2, r5
   dccfe:	1880      	adds	r0, r0, r2
   dcd00:	f141 0100 	adc.w	r1, r1, #0
   dcd04:	fa03 f20e 	lsl.w	r2, r3, lr
   dcd08:	1880      	adds	r0, r0, r2
   dcd0a:	fa43 f305 	asr.w	r3, r3, r5
   dcd0e:	4159      	adcs	r1, r3
   dcd10:	e00e      	b.n	dcd30 <__adddf3+0xd0>
   dcd12:	f1a5 0520 	sub.w	r5, r5, #32
   dcd16:	f10e 0e20 	add.w	lr, lr, #32
   dcd1a:	2a01      	cmp	r2, #1
   dcd1c:	fa03 fc0e 	lsl.w	ip, r3, lr
   dcd20:	bf28      	it	cs
   dcd22:	f04c 0c02 	orrcs.w	ip, ip, #2
   dcd26:	fa43 f305 	asr.w	r3, r3, r5
   dcd2a:	18c0      	adds	r0, r0, r3
   dcd2c:	eb51 71e3 	adcs.w	r1, r1, r3, asr #31
   dcd30:	f001 4500 	and.w	r5, r1, #2147483648	; 0x80000000
   dcd34:	d507      	bpl.n	dcd46 <__adddf3+0xe6>
   dcd36:	f04f 0e00 	mov.w	lr, #0
   dcd3a:	f1dc 0c00 	rsbs	ip, ip, #0
   dcd3e:	eb7e 0000 	sbcs.w	r0, lr, r0
   dcd42:	eb6e 0101 	sbc.w	r1, lr, r1
   dcd46:	f5b1 1f80 	cmp.w	r1, #1048576	; 0x100000
   dcd4a:	d31b      	bcc.n	dcd84 <__adddf3+0x124>
   dcd4c:	f5b1 1f00 	cmp.w	r1, #2097152	; 0x200000
   dcd50:	d30c      	bcc.n	dcd6c <__adddf3+0x10c>
   dcd52:	0849      	lsrs	r1, r1, #1
   dcd54:	ea5f 0030 	movs.w	r0, r0, rrx
   dcd58:	ea4f 0c3c 	mov.w	ip, ip, rrx
   dcd5c:	f104 0401 	add.w	r4, r4, #1
   dcd60:	ea4f 5244 	mov.w	r2, r4, lsl #21
   dcd64:	f512 0f80 	cmn.w	r2, #4194304	; 0x400000
   dcd68:	f080 809a 	bcs.w	dcea0 <__adddf3+0x240>
   dcd6c:	f1bc 4f00 	cmp.w	ip, #2147483648	; 0x80000000
   dcd70:	bf08      	it	eq
   dcd72:	ea5f 0c50 	movseq.w	ip, r0, lsr #1
   dcd76:	f150 0000 	adcs.w	r0, r0, #0
   dcd7a:	eb41 5104 	adc.w	r1, r1, r4, lsl #20
   dcd7e:	ea41 0105 	orr.w	r1, r1, r5
   dcd82:	bd30      	pop	{r4, r5, pc}
   dcd84:	ea5f 0c4c 	movs.w	ip, ip, lsl #1
   dcd88:	4140      	adcs	r0, r0
   dcd8a:	eb41 0101 	adc.w	r1, r1, r1
   dcd8e:	3c01      	subs	r4, #1
   dcd90:	bf28      	it	cs
   dcd92:	f5b1 1f80 	cmpcs.w	r1, #1048576	; 0x100000
   dcd96:	d2e9      	bcs.n	dcd6c <__adddf3+0x10c>
   dcd98:	f091 0f00 	teq	r1, #0
   dcd9c:	bf04      	itt	eq
   dcd9e:	4601      	moveq	r1, r0
   dcda0:	2000      	moveq	r0, #0
   dcda2:	fab1 f381 	clz	r3, r1
   dcda6:	bf08      	it	eq
   dcda8:	3320      	addeq	r3, #32
   dcdaa:	f1a3 030b 	sub.w	r3, r3, #11
   dcdae:	f1b3 0220 	subs.w	r2, r3, #32
   dcdb2:	da0c      	bge.n	dcdce <__adddf3+0x16e>
   dcdb4:	320c      	adds	r2, #12
   dcdb6:	dd08      	ble.n	dcdca <__adddf3+0x16a>
   dcdb8:	f102 0c14 	add.w	ip, r2, #20
   dcdbc:	f1c2 020c 	rsb	r2, r2, #12
   dcdc0:	fa01 f00c 	lsl.w	r0, r1, ip
   dcdc4:	fa21 f102 	lsr.w	r1, r1, r2
   dcdc8:	e00c      	b.n	dcde4 <__adddf3+0x184>
   dcdca:	f102 0214 	add.w	r2, r2, #20
   dcdce:	bfd8      	it	le
   dcdd0:	f1c2 0c20 	rsble	ip, r2, #32
   dcdd4:	fa01 f102 	lsl.w	r1, r1, r2
   dcdd8:	fa20 fc0c 	lsr.w	ip, r0, ip
   dcddc:	bfdc      	itt	le
   dcdde:	ea41 010c 	orrle.w	r1, r1, ip
   dcde2:	4090      	lslle	r0, r2
   dcde4:	1ae4      	subs	r4, r4, r3
   dcde6:	bfa2      	ittt	ge
   dcde8:	eb01 5104 	addge.w	r1, r1, r4, lsl #20
   dcdec:	4329      	orrge	r1, r5
   dcdee:	bd30      	popge	{r4, r5, pc}
   dcdf0:	ea6f 0404 	mvn.w	r4, r4
   dcdf4:	3c1f      	subs	r4, #31
   dcdf6:	da1c      	bge.n	dce32 <__adddf3+0x1d2>
   dcdf8:	340c      	adds	r4, #12
   dcdfa:	dc0e      	bgt.n	dce1a <__adddf3+0x1ba>
   dcdfc:	f104 0414 	add.w	r4, r4, #20
   dce00:	f1c4 0220 	rsb	r2, r4, #32
   dce04:	fa20 f004 	lsr.w	r0, r0, r4
   dce08:	fa01 f302 	lsl.w	r3, r1, r2
   dce0c:	ea40 0003 	orr.w	r0, r0, r3
   dce10:	fa21 f304 	lsr.w	r3, r1, r4
   dce14:	ea45 0103 	orr.w	r1, r5, r3
   dce18:	bd30      	pop	{r4, r5, pc}
   dce1a:	f1c4 040c 	rsb	r4, r4, #12
   dce1e:	f1c4 0220 	rsb	r2, r4, #32
   dce22:	fa20 f002 	lsr.w	r0, r0, r2
   dce26:	fa01 f304 	lsl.w	r3, r1, r4
   dce2a:	ea40 0003 	orr.w	r0, r0, r3
   dce2e:	4629      	mov	r1, r5
   dce30:	bd30      	pop	{r4, r5, pc}
   dce32:	fa21 f004 	lsr.w	r0, r1, r4
   dce36:	4629      	mov	r1, r5
   dce38:	bd30      	pop	{r4, r5, pc}
   dce3a:	f094 0f00 	teq	r4, #0
   dce3e:	f483 1380 	eor.w	r3, r3, #1048576	; 0x100000
   dce42:	bf06      	itte	eq
   dce44:	f481 1180 	eoreq.w	r1, r1, #1048576	; 0x100000
   dce48:	3401      	addeq	r4, #1
   dce4a:	3d01      	subne	r5, #1
   dce4c:	e74e      	b.n	dccec <__adddf3+0x8c>
   dce4e:	ea7f 5c64 	mvns.w	ip, r4, asr #21
   dce52:	bf18      	it	ne
   dce54:	ea7f 5c65 	mvnsne.w	ip, r5, asr #21
   dce58:	d029      	beq.n	dceae <__adddf3+0x24e>
   dce5a:	ea94 0f05 	teq	r4, r5
   dce5e:	bf08      	it	eq
   dce60:	ea90 0f02 	teqeq	r0, r2
   dce64:	d005      	beq.n	dce72 <__adddf3+0x212>
   dce66:	ea54 0c00 	orrs.w	ip, r4, r0
   dce6a:	bf04      	itt	eq
   dce6c:	4619      	moveq	r1, r3
   dce6e:	4610      	moveq	r0, r2
   dce70:	bd30      	pop	{r4, r5, pc}
   dce72:	ea91 0f03 	teq	r1, r3
   dce76:	bf1e      	ittt	ne
   dce78:	2100      	movne	r1, #0
   dce7a:	2000      	movne	r0, #0
   dce7c:	bd30      	popne	{r4, r5, pc}
   dce7e:	ea5f 5c54 	movs.w	ip, r4, lsr #21
   dce82:	d105      	bne.n	dce90 <__adddf3+0x230>
   dce84:	0040      	lsls	r0, r0, #1
   dce86:	4149      	adcs	r1, r1
   dce88:	bf28      	it	cs
   dce8a:	f041 4100 	orrcs.w	r1, r1, #2147483648	; 0x80000000
   dce8e:	bd30      	pop	{r4, r5, pc}
   dce90:	f514 0480 	adds.w	r4, r4, #4194304	; 0x400000
   dce94:	bf3c      	itt	cc
   dce96:	f501 1180 	addcc.w	r1, r1, #1048576	; 0x100000
   dce9a:	bd30      	popcc	{r4, r5, pc}
   dce9c:	f001 4500 	and.w	r5, r1, #2147483648	; 0x80000000
   dcea0:	f045 41fe 	orr.w	r1, r5, #2130706432	; 0x7f000000
   dcea4:	f441 0170 	orr.w	r1, r1, #15728640	; 0xf00000
   dcea8:	f04f 0000 	mov.w	r0, #0
   dceac:	bd30      	pop	{r4, r5, pc}
   dceae:	ea7f 5c64 	mvns.w	ip, r4, asr #21
   dceb2:	bf1a      	itte	ne
   dceb4:	4619      	movne	r1, r3
   dceb6:	4610      	movne	r0, r2
   dceb8:	ea7f 5c65 	mvnseq.w	ip, r5, asr #21
   dcebc:	bf1c      	itt	ne
   dcebe:	460b      	movne	r3, r1
   dcec0:	4602      	movne	r2, r0
   dcec2:	ea50 3401 	orrs.w	r4, r0, r1, lsl #12
   dcec6:	bf06      	itte	eq
   dcec8:	ea52 3503 	orrseq.w	r5, r2, r3, lsl #12
   dcecc:	ea91 0f03 	teqeq	r1, r3
   dced0:	f441 2100 	orrne.w	r1, r1, #524288	; 0x80000
   dced4:	bd30      	pop	{r4, r5, pc}
   dced6:	bf00      	nop

000dced8 <__aeabi_ui2d>:
   dced8:	f090 0f00 	teq	r0, #0
   dcedc:	bf04      	itt	eq
   dcede:	2100      	moveq	r1, #0
   dcee0:	4770      	bxeq	lr
   dcee2:	b530      	push	{r4, r5, lr}
   dcee4:	f44f 6480 	mov.w	r4, #1024	; 0x400
   dcee8:	f104 0432 	add.w	r4, r4, #50	; 0x32
   dceec:	f04f 0500 	mov.w	r5, #0
   dcef0:	f04f 0100 	mov.w	r1, #0
   dcef4:	e750      	b.n	dcd98 <__adddf3+0x138>
   dcef6:	bf00      	nop

000dcef8 <__aeabi_i2d>:
   dcef8:	f090 0f00 	teq	r0, #0
   dcefc:	bf04      	itt	eq
   dcefe:	2100      	moveq	r1, #0
   dcf00:	4770      	bxeq	lr
   dcf02:	b530      	push	{r4, r5, lr}
   dcf04:	f44f 6480 	mov.w	r4, #1024	; 0x400
   dcf08:	f104 0432 	add.w	r4, r4, #50	; 0x32
   dcf0c:	f010 4500 	ands.w	r5, r0, #2147483648	; 0x80000000
   dcf10:	bf48      	it	mi
   dcf12:	4240      	negmi	r0, r0
   dcf14:	f04f 0100 	mov.w	r1, #0
   dcf18:	e73e      	b.n	dcd98 <__adddf3+0x138>
   dcf1a:	bf00      	nop

000dcf1c <__aeabi_f2d>:
   dcf1c:	0042      	lsls	r2, r0, #1
   dcf1e:	ea4f 01e2 	mov.w	r1, r2, asr #3
   dcf22:	ea4f 0131 	mov.w	r1, r1, rrx
   dcf26:	ea4f 7002 	mov.w	r0, r2, lsl #28
   dcf2a:	bf1f      	itttt	ne
   dcf2c:	f012 437f 	andsne.w	r3, r2, #4278190080	; 0xff000000
   dcf30:	f093 4f7f 	teqne	r3, #4278190080	; 0xff000000
   dcf34:	f081 5160 	eorne.w	r1, r1, #939524096	; 0x38000000
   dcf38:	4770      	bxne	lr
   dcf3a:	f032 427f 	bics.w	r2, r2, #4278190080	; 0xff000000
   dcf3e:	bf08      	it	eq
   dcf40:	4770      	bxeq	lr
   dcf42:	f093 4f7f 	teq	r3, #4278190080	; 0xff000000
   dcf46:	bf04      	itt	eq
   dcf48:	f441 2100 	orreq.w	r1, r1, #524288	; 0x80000
   dcf4c:	4770      	bxeq	lr
   dcf4e:	b530      	push	{r4, r5, lr}
   dcf50:	f44f 7460 	mov.w	r4, #896	; 0x380
   dcf54:	f001 4500 	and.w	r5, r1, #2147483648	; 0x80000000
   dcf58:	f021 4100 	bic.w	r1, r1, #2147483648	; 0x80000000
   dcf5c:	e71c      	b.n	dcd98 <__adddf3+0x138>
   dcf5e:	bf00      	nop

000dcf60 <__aeabi_ul2d>:
   dcf60:	ea50 0201 	orrs.w	r2, r0, r1
   dcf64:	bf08      	it	eq
   dcf66:	4770      	bxeq	lr
   dcf68:	b530      	push	{r4, r5, lr}
   dcf6a:	f04f 0500 	mov.w	r5, #0
   dcf6e:	e00a      	b.n	dcf86 <__aeabi_l2d+0x16>

000dcf70 <__aeabi_l2d>:
   dcf70:	ea50 0201 	orrs.w	r2, r0, r1
   dcf74:	bf08      	it	eq
   dcf76:	4770      	bxeq	lr
   dcf78:	b530      	push	{r4, r5, lr}
   dcf7a:	f011 4500 	ands.w	r5, r1, #2147483648	; 0x80000000
   dcf7e:	d502      	bpl.n	dcf86 <__aeabi_l2d+0x16>
   dcf80:	4240      	negs	r0, r0
   dcf82:	eb61 0141 	sbc.w	r1, r1, r1, lsl #1
   dcf86:	f44f 6480 	mov.w	r4, #1024	; 0x400
   dcf8a:	f104 0432 	add.w	r4, r4, #50	; 0x32
   dcf8e:	ea5f 5c91 	movs.w	ip, r1, lsr #22
   dcf92:	f43f aed8 	beq.w	dcd46 <__adddf3+0xe6>
   dcf96:	f04f 0203 	mov.w	r2, #3
   dcf9a:	ea5f 0cdc 	movs.w	ip, ip, lsr #3
   dcf9e:	bf18      	it	ne
   dcfa0:	3203      	addne	r2, #3
   dcfa2:	ea5f 0cdc 	movs.w	ip, ip, lsr #3
   dcfa6:	bf18      	it	ne
   dcfa8:	3203      	addne	r2, #3
   dcfaa:	eb02 02dc 	add.w	r2, r2, ip, lsr #3
   dcfae:	f1c2 0320 	rsb	r3, r2, #32
   dcfb2:	fa00 fc03 	lsl.w	ip, r0, r3
   dcfb6:	fa20 f002 	lsr.w	r0, r0, r2
   dcfba:	fa01 fe03 	lsl.w	lr, r1, r3
   dcfbe:	ea40 000e 	orr.w	r0, r0, lr
   dcfc2:	fa21 f102 	lsr.w	r1, r1, r2
   dcfc6:	4414      	add	r4, r2
   dcfc8:	e6bd      	b.n	dcd46 <__adddf3+0xe6>
   dcfca:	bf00      	nop

000dcfcc <__aeabi_dmul>:
   dcfcc:	b570      	push	{r4, r5, r6, lr}
   dcfce:	f04f 0cff 	mov.w	ip, #255	; 0xff
   dcfd2:	f44c 6ce0 	orr.w	ip, ip, #1792	; 0x700
   dcfd6:	ea1c 5411 	ands.w	r4, ip, r1, lsr #20
   dcfda:	bf1d      	ittte	ne
   dcfdc:	ea1c 5513 	andsne.w	r5, ip, r3, lsr #20
   dcfe0:	ea94 0f0c 	teqne	r4, ip
   dcfe4:	ea95 0f0c 	teqne	r5, ip
   dcfe8:	f000 f8de 	bleq	dd1a8 <__aeabi_dmul+0x1dc>
   dcfec:	442c      	add	r4, r5
   dcfee:	ea81 0603 	eor.w	r6, r1, r3
   dcff2:	ea21 514c 	bic.w	r1, r1, ip, lsl #21
   dcff6:	ea23 534c 	bic.w	r3, r3, ip, lsl #21
   dcffa:	ea50 3501 	orrs.w	r5, r0, r1, lsl #12
   dcffe:	bf18      	it	ne
   dd000:	ea52 3503 	orrsne.w	r5, r2, r3, lsl #12
   dd004:	f441 1180 	orr.w	r1, r1, #1048576	; 0x100000
   dd008:	f443 1380 	orr.w	r3, r3, #1048576	; 0x100000
   dd00c:	d038      	beq.n	dd080 <__aeabi_dmul+0xb4>
   dd00e:	fba0 ce02 	umull	ip, lr, r0, r2
   dd012:	f04f 0500 	mov.w	r5, #0
   dd016:	fbe1 e502 	umlal	lr, r5, r1, r2
   dd01a:	f006 4200 	and.w	r2, r6, #2147483648	; 0x80000000
   dd01e:	fbe0 e503 	umlal	lr, r5, r0, r3
   dd022:	f04f 0600 	mov.w	r6, #0
   dd026:	fbe1 5603 	umlal	r5, r6, r1, r3
   dd02a:	f09c 0f00 	teq	ip, #0
   dd02e:	bf18      	it	ne
   dd030:	f04e 0e01 	orrne.w	lr, lr, #1
   dd034:	f1a4 04ff 	sub.w	r4, r4, #255	; 0xff
   dd038:	f5b6 7f00 	cmp.w	r6, #512	; 0x200
   dd03c:	f564 7440 	sbc.w	r4, r4, #768	; 0x300
   dd040:	d204      	bcs.n	dd04c <__aeabi_dmul+0x80>
   dd042:	ea5f 0e4e 	movs.w	lr, lr, lsl #1
   dd046:	416d      	adcs	r5, r5
   dd048:	eb46 0606 	adc.w	r6, r6, r6
   dd04c:	ea42 21c6 	orr.w	r1, r2, r6, lsl #11
   dd050:	ea41 5155 	orr.w	r1, r1, r5, lsr #21
   dd054:	ea4f 20c5 	mov.w	r0, r5, lsl #11
   dd058:	ea40 505e 	orr.w	r0, r0, lr, lsr #21
   dd05c:	ea4f 2ece 	mov.w	lr, lr, lsl #11
   dd060:	f1b4 0cfd 	subs.w	ip, r4, #253	; 0xfd
   dd064:	bf88      	it	hi
   dd066:	f5bc 6fe0 	cmphi.w	ip, #1792	; 0x700
   dd06a:	d81e      	bhi.n	dd0aa <__aeabi_dmul+0xde>
   dd06c:	f1be 4f00 	cmp.w	lr, #2147483648	; 0x80000000
   dd070:	bf08      	it	eq
   dd072:	ea5f 0e50 	movseq.w	lr, r0, lsr #1
   dd076:	f150 0000 	adcs.w	r0, r0, #0
   dd07a:	eb41 5104 	adc.w	r1, r1, r4, lsl #20
   dd07e:	bd70      	pop	{r4, r5, r6, pc}
   dd080:	f006 4600 	and.w	r6, r6, #2147483648	; 0x80000000
   dd084:	ea46 0101 	orr.w	r1, r6, r1
   dd088:	ea40 0002 	orr.w	r0, r0, r2
   dd08c:	ea81 0103 	eor.w	r1, r1, r3
   dd090:	ebb4 045c 	subs.w	r4, r4, ip, lsr #1
   dd094:	bfc2      	ittt	gt
   dd096:	ebd4 050c 	rsbsgt	r5, r4, ip
   dd09a:	ea41 5104 	orrgt.w	r1, r1, r4, lsl #20
   dd09e:	bd70      	popgt	{r4, r5, r6, pc}
   dd0a0:	f441 1180 	orr.w	r1, r1, #1048576	; 0x100000
   dd0a4:	f04f 0e00 	mov.w	lr, #0
   dd0a8:	3c01      	subs	r4, #1
   dd0aa:	f300 80ab 	bgt.w	dd204 <__aeabi_dmul+0x238>
   dd0ae:	f114 0f36 	cmn.w	r4, #54	; 0x36
   dd0b2:	bfde      	ittt	le
   dd0b4:	2000      	movle	r0, #0
   dd0b6:	f001 4100 	andle.w	r1, r1, #2147483648	; 0x80000000
   dd0ba:	bd70      	pople	{r4, r5, r6, pc}
   dd0bc:	f1c4 0400 	rsb	r4, r4, #0
   dd0c0:	3c20      	subs	r4, #32
   dd0c2:	da35      	bge.n	dd130 <__aeabi_dmul+0x164>
   dd0c4:	340c      	adds	r4, #12
   dd0c6:	dc1b      	bgt.n	dd100 <__aeabi_dmul+0x134>
   dd0c8:	f104 0414 	add.w	r4, r4, #20
   dd0cc:	f1c4 0520 	rsb	r5, r4, #32
   dd0d0:	fa00 f305 	lsl.w	r3, r0, r5
   dd0d4:	fa20 f004 	lsr.w	r0, r0, r4
   dd0d8:	fa01 f205 	lsl.w	r2, r1, r5
   dd0dc:	ea40 0002 	orr.w	r0, r0, r2
   dd0e0:	f001 4200 	and.w	r2, r1, #2147483648	; 0x80000000
   dd0e4:	f021 4100 	bic.w	r1, r1, #2147483648	; 0x80000000
   dd0e8:	eb10 70d3 	adds.w	r0, r0, r3, lsr #31
   dd0ec:	fa21 f604 	lsr.w	r6, r1, r4
   dd0f0:	eb42 0106 	adc.w	r1, r2, r6
   dd0f4:	ea5e 0e43 	orrs.w	lr, lr, r3, lsl #1
   dd0f8:	bf08      	it	eq
   dd0fa:	ea20 70d3 	biceq.w	r0, r0, r3, lsr #31
   dd0fe:	bd70      	pop	{r4, r5, r6, pc}
   dd100:	f1c4 040c 	rsb	r4, r4, #12
   dd104:	f1c4 0520 	rsb	r5, r4, #32
   dd108:	fa00 f304 	lsl.w	r3, r0, r4
   dd10c:	fa20 f005 	lsr.w	r0, r0, r5
   dd110:	fa01 f204 	lsl.w	r2, r1, r4
   dd114:	ea40 0002 	orr.w	r0, r0, r2
   dd118:	f001 4100 	and.w	r1, r1, #2147483648	; 0x80000000
   dd11c:	eb10 70d3 	adds.w	r0, r0, r3, lsr #31
   dd120:	f141 0100 	adc.w	r1, r1, #0
   dd124:	ea5e 0e43 	orrs.w	lr, lr, r3, lsl #1
   dd128:	bf08      	it	eq
   dd12a:	ea20 70d3 	biceq.w	r0, r0, r3, lsr #31
   dd12e:	bd70      	pop	{r4, r5, r6, pc}
   dd130:	f1c4 0520 	rsb	r5, r4, #32
   dd134:	fa00 f205 	lsl.w	r2, r0, r5
   dd138:	ea4e 0e02 	orr.w	lr, lr, r2
   dd13c:	fa20 f304 	lsr.w	r3, r0, r4
   dd140:	fa01 f205 	lsl.w	r2, r1, r5
   dd144:	ea43 0302 	orr.w	r3, r3, r2
   dd148:	fa21 f004 	lsr.w	r0, r1, r4
   dd14c:	f001 4100 	and.w	r1, r1, #2147483648	; 0x80000000
   dd150:	fa21 f204 	lsr.w	r2, r1, r4
   dd154:	ea20 0002 	bic.w	r0, r0, r2
   dd158:	eb00 70d3 	add.w	r0, r0, r3, lsr #31
   dd15c:	ea5e 0e43 	orrs.w	lr, lr, r3, lsl #1
   dd160:	bf08      	it	eq
   dd162:	ea20 70d3 	biceq.w	r0, r0, r3, lsr #31
   dd166:	bd70      	pop	{r4, r5, r6, pc}
   dd168:	f094 0f00 	teq	r4, #0
   dd16c:	d10f      	bne.n	dd18e <__aeabi_dmul+0x1c2>
   dd16e:	f001 4600 	and.w	r6, r1, #2147483648	; 0x80000000
   dd172:	0040      	lsls	r0, r0, #1
   dd174:	eb41 0101 	adc.w	r1, r1, r1
   dd178:	f411 1f80 	tst.w	r1, #1048576	; 0x100000
   dd17c:	bf08      	it	eq
   dd17e:	3c01      	subeq	r4, #1
   dd180:	d0f7      	beq.n	dd172 <__aeabi_dmul+0x1a6>
   dd182:	ea41 0106 	orr.w	r1, r1, r6
   dd186:	f095 0f00 	teq	r5, #0
   dd18a:	bf18      	it	ne
   dd18c:	4770      	bxne	lr
   dd18e:	f003 4600 	and.w	r6, r3, #2147483648	; 0x80000000
   dd192:	0052      	lsls	r2, r2, #1
   dd194:	eb43 0303 	adc.w	r3, r3, r3
   dd198:	f413 1f80 	tst.w	r3, #1048576	; 0x100000
   dd19c:	bf08      	it	eq
   dd19e:	3d01      	subeq	r5, #1
   dd1a0:	d0f7      	beq.n	dd192 <__aeabi_dmul+0x1c6>
   dd1a2:	ea43 0306 	orr.w	r3, r3, r6
   dd1a6:	4770      	bx	lr
   dd1a8:	ea94 0f0c 	teq	r4, ip
   dd1ac:	ea0c 5513 	and.w	r5, ip, r3, lsr #20
   dd1b0:	bf18      	it	ne
   dd1b2:	ea95 0f0c 	teqne	r5, ip
   dd1b6:	d00c      	beq.n	dd1d2 <__aeabi_dmul+0x206>
   dd1b8:	ea50 0641 	orrs.w	r6, r0, r1, lsl #1
   dd1bc:	bf18      	it	ne
   dd1be:	ea52 0643 	orrsne.w	r6, r2, r3, lsl #1
   dd1c2:	d1d1      	bne.n	dd168 <__aeabi_dmul+0x19c>
   dd1c4:	ea81 0103 	eor.w	r1, r1, r3
   dd1c8:	f001 4100 	and.w	r1, r1, #2147483648	; 0x80000000
   dd1cc:	f04f 0000 	mov.w	r0, #0
   dd1d0:	bd70      	pop	{r4, r5, r6, pc}
   dd1d2:	ea50 0641 	orrs.w	r6, r0, r1, lsl #1
   dd1d6:	bf06      	itte	eq
   dd1d8:	4610      	moveq	r0, r2
   dd1da:	4619      	moveq	r1, r3
   dd1dc:	ea52 0643 	orrsne.w	r6, r2, r3, lsl #1
   dd1e0:	d019      	beq.n	dd216 <__aeabi_dmul+0x24a>
   dd1e2:	ea94 0f0c 	teq	r4, ip
   dd1e6:	d102      	bne.n	dd1ee <__aeabi_dmul+0x222>
   dd1e8:	ea50 3601 	orrs.w	r6, r0, r1, lsl #12
   dd1ec:	d113      	bne.n	dd216 <__aeabi_dmul+0x24a>
   dd1ee:	ea95 0f0c 	teq	r5, ip
   dd1f2:	d105      	bne.n	dd200 <__aeabi_dmul+0x234>
   dd1f4:	ea52 3603 	orrs.w	r6, r2, r3, lsl #12
   dd1f8:	bf1c      	itt	ne
   dd1fa:	4610      	movne	r0, r2
   dd1fc:	4619      	movne	r1, r3
   dd1fe:	d10a      	bne.n	dd216 <__aeabi_dmul+0x24a>
   dd200:	ea81 0103 	eor.w	r1, r1, r3
   dd204:	f001 4100 	and.w	r1, r1, #2147483648	; 0x80000000
   dd208:	f041 41fe 	orr.w	r1, r1, #2130706432	; 0x7f000000
   dd20c:	f441 0170 	orr.w	r1, r1, #15728640	; 0xf00000
   dd210:	f04f 0000 	mov.w	r0, #0
   dd214:	bd70      	pop	{r4, r5, r6, pc}
   dd216:	f041 41fe 	orr.w	r1, r1, #2130706432	; 0x7f000000
   dd21a:	f441 0178 	orr.w	r1, r1, #16252928	; 0xf80000
   dd21e:	bd70      	pop	{r4, r5, r6, pc}

000dd220 <__aeabi_ddiv>:
   dd220:	b570      	push	{r4, r5, r6, lr}
   dd222:	f04f 0cff 	mov.w	ip, #255	; 0xff
   dd226:	f44c 6ce0 	orr.w	ip, ip, #1792	; 0x700
   dd22a:	ea1c 5411 	ands.w	r4, ip, r1, lsr #20
   dd22e:	bf1d      	ittte	ne
   dd230:	ea1c 5513 	andsne.w	r5, ip, r3, lsr #20
   dd234:	ea94 0f0c 	teqne	r4, ip
   dd238:	ea95 0f0c 	teqne	r5, ip
   dd23c:	f000 f8a7 	bleq	dd38e <__aeabi_ddiv+0x16e>
   dd240:	eba4 0405 	sub.w	r4, r4, r5
   dd244:	ea81 0e03 	eor.w	lr, r1, r3
   dd248:	ea52 3503 	orrs.w	r5, r2, r3, lsl #12
   dd24c:	ea4f 3101 	mov.w	r1, r1, lsl #12
   dd250:	f000 8088 	beq.w	dd364 <__aeabi_ddiv+0x144>
   dd254:	ea4f 3303 	mov.w	r3, r3, lsl #12
   dd258:	f04f 5580 	mov.w	r5, #268435456	; 0x10000000
   dd25c:	ea45 1313 	orr.w	r3, r5, r3, lsr #4
   dd260:	ea43 6312 	orr.w	r3, r3, r2, lsr #24
   dd264:	ea4f 2202 	mov.w	r2, r2, lsl #8
   dd268:	ea45 1511 	orr.w	r5, r5, r1, lsr #4
   dd26c:	ea45 6510 	orr.w	r5, r5, r0, lsr #24
   dd270:	ea4f 2600 	mov.w	r6, r0, lsl #8
   dd274:	f00e 4100 	and.w	r1, lr, #2147483648	; 0x80000000
   dd278:	429d      	cmp	r5, r3
   dd27a:	bf08      	it	eq
   dd27c:	4296      	cmpeq	r6, r2
   dd27e:	f144 04fd 	adc.w	r4, r4, #253	; 0xfd
   dd282:	f504 7440 	add.w	r4, r4, #768	; 0x300
   dd286:	d202      	bcs.n	dd28e <__aeabi_ddiv+0x6e>
   dd288:	085b      	lsrs	r3, r3, #1
   dd28a:	ea4f 0232 	mov.w	r2, r2, rrx
   dd28e:	1ab6      	subs	r6, r6, r2
   dd290:	eb65 0503 	sbc.w	r5, r5, r3
   dd294:	085b      	lsrs	r3, r3, #1
   dd296:	ea4f 0232 	mov.w	r2, r2, rrx
   dd29a:	f44f 1080 	mov.w	r0, #1048576	; 0x100000
   dd29e:	f44f 2c00 	mov.w	ip, #524288	; 0x80000
   dd2a2:	ebb6 0e02 	subs.w	lr, r6, r2
   dd2a6:	eb75 0e03 	sbcs.w	lr, r5, r3
   dd2aa:	bf22      	ittt	cs
   dd2ac:	1ab6      	subcs	r6, r6, r2
   dd2ae:	4675      	movcs	r5, lr
   dd2b0:	ea40 000c 	orrcs.w	r0, r0, ip
   dd2b4:	085b      	lsrs	r3, r3, #1
   dd2b6:	ea4f 0232 	mov.w	r2, r2, rrx
   dd2ba:	ebb6 0e02 	subs.w	lr, r6, r2
   dd2be:	eb75 0e03 	sbcs.w	lr, r5, r3
   dd2c2:	bf22      	ittt	cs
   dd2c4:	1ab6      	subcs	r6, r6, r2
   dd2c6:	4675      	movcs	r5, lr
   dd2c8:	ea40 005c 	orrcs.w	r0, r0, ip, lsr #1
   dd2cc:	085b      	lsrs	r3, r3, #1
   dd2ce:	ea4f 0232 	mov.w	r2, r2, rrx
   dd2d2:	ebb6 0e02 	subs.w	lr, r6, r2
   dd2d6:	eb75 0e03 	sbcs.w	lr, r5, r3
   dd2da:	bf22      	ittt	cs
   dd2dc:	1ab6      	subcs	r6, r6, r2
   dd2de:	4675      	movcs	r5, lr
   dd2e0:	ea40 009c 	orrcs.w	r0, r0, ip, lsr #2
   dd2e4:	085b      	lsrs	r3, r3, #1
   dd2e6:	ea4f 0232 	mov.w	r2, r2, rrx
   dd2ea:	ebb6 0e02 	subs.w	lr, r6, r2
   dd2ee:	eb75 0e03 	sbcs.w	lr, r5, r3
   dd2f2:	bf22      	ittt	cs
   dd2f4:	1ab6      	subcs	r6, r6, r2
   dd2f6:	4675      	movcs	r5, lr
   dd2f8:	ea40 00dc 	orrcs.w	r0, r0, ip, lsr #3
   dd2fc:	ea55 0e06 	orrs.w	lr, r5, r6
   dd300:	d018      	beq.n	dd334 <__aeabi_ddiv+0x114>
   dd302:	ea4f 1505 	mov.w	r5, r5, lsl #4
   dd306:	ea45 7516 	orr.w	r5, r5, r6, lsr #28
   dd30a:	ea4f 1606 	mov.w	r6, r6, lsl #4
   dd30e:	ea4f 03c3 	mov.w	r3, r3, lsl #3
   dd312:	ea43 7352 	orr.w	r3, r3, r2, lsr #29
   dd316:	ea4f 02c2 	mov.w	r2, r2, lsl #3
   dd31a:	ea5f 1c1c 	movs.w	ip, ip, lsr #4
   dd31e:	d1c0      	bne.n	dd2a2 <__aeabi_ddiv+0x82>
   dd320:	f411 1f80 	tst.w	r1, #1048576	; 0x100000
   dd324:	d10b      	bne.n	dd33e <__aeabi_ddiv+0x11e>
   dd326:	ea41 0100 	orr.w	r1, r1, r0
   dd32a:	f04f 0000 	mov.w	r0, #0
   dd32e:	f04f 4c00 	mov.w	ip, #2147483648	; 0x80000000
   dd332:	e7b6      	b.n	dd2a2 <__aeabi_ddiv+0x82>
   dd334:	f411 1f80 	tst.w	r1, #1048576	; 0x100000
   dd338:	bf04      	itt	eq
   dd33a:	4301      	orreq	r1, r0
   dd33c:	2000      	moveq	r0, #0
   dd33e:	f1b4 0cfd 	subs.w	ip, r4, #253	; 0xfd
   dd342:	bf88      	it	hi
   dd344:	f5bc 6fe0 	cmphi.w	ip, #1792	; 0x700
   dd348:	f63f aeaf 	bhi.w	dd0aa <__aeabi_dmul+0xde>
   dd34c:	ebb5 0c03 	subs.w	ip, r5, r3
   dd350:	bf04      	itt	eq
   dd352:	ebb6 0c02 	subseq.w	ip, r6, r2
   dd356:	ea5f 0c50 	movseq.w	ip, r0, lsr #1
   dd35a:	f150 0000 	adcs.w	r0, r0, #0
   dd35e:	eb41 5104 	adc.w	r1, r1, r4, lsl #20
   dd362:	bd70      	pop	{r4, r5, r6, pc}
   dd364:	f00e 4e00 	and.w	lr, lr, #2147483648	; 0x80000000
   dd368:	ea4e 3111 	orr.w	r1, lr, r1, lsr #12
   dd36c:	eb14 045c 	adds.w	r4, r4, ip, lsr #1
   dd370:	bfc2      	ittt	gt
   dd372:	ebd4 050c 	rsbsgt	r5, r4, ip
   dd376:	ea41 5104 	orrgt.w	r1, r1, r4, lsl #20
   dd37a:	bd70      	popgt	{r4, r5, r6, pc}
   dd37c:	f441 1180 	orr.w	r1, r1, #1048576	; 0x100000
   dd380:	f04f 0e00 	mov.w	lr, #0
   dd384:	3c01      	subs	r4, #1
   dd386:	e690      	b.n	dd0aa <__aeabi_dmul+0xde>
   dd388:	ea45 0e06 	orr.w	lr, r5, r6
   dd38c:	e68d      	b.n	dd0aa <__aeabi_dmul+0xde>
   dd38e:	ea0c 5513 	and.w	r5, ip, r3, lsr #20
   dd392:	ea94 0f0c 	teq	r4, ip
   dd396:	bf08      	it	eq
   dd398:	ea95 0f0c 	teqeq	r5, ip
   dd39c:	f43f af3b 	beq.w	dd216 <__aeabi_dmul+0x24a>
   dd3a0:	ea94 0f0c 	teq	r4, ip
   dd3a4:	d10a      	bne.n	dd3bc <__aeabi_ddiv+0x19c>
   dd3a6:	ea50 3401 	orrs.w	r4, r0, r1, lsl #12
   dd3aa:	f47f af34 	bne.w	dd216 <__aeabi_dmul+0x24a>
   dd3ae:	ea95 0f0c 	teq	r5, ip
   dd3b2:	f47f af25 	bne.w	dd200 <__aeabi_dmul+0x234>
   dd3b6:	4610      	mov	r0, r2
   dd3b8:	4619      	mov	r1, r3
   dd3ba:	e72c      	b.n	dd216 <__aeabi_dmul+0x24a>
   dd3bc:	ea95 0f0c 	teq	r5, ip
   dd3c0:	d106      	bne.n	dd3d0 <__aeabi_ddiv+0x1b0>
   dd3c2:	ea52 3503 	orrs.w	r5, r2, r3, lsl #12
   dd3c6:	f43f aefd 	beq.w	dd1c4 <__aeabi_dmul+0x1f8>
   dd3ca:	4610      	mov	r0, r2
   dd3cc:	4619      	mov	r1, r3
   dd3ce:	e722      	b.n	dd216 <__aeabi_dmul+0x24a>
   dd3d0:	ea50 0641 	orrs.w	r6, r0, r1, lsl #1
   dd3d4:	bf18      	it	ne
   dd3d6:	ea52 0643 	orrsne.w	r6, r2, r3, lsl #1
   dd3da:	f47f aec5 	bne.w	dd168 <__aeabi_dmul+0x19c>
   dd3de:	ea50 0441 	orrs.w	r4, r0, r1, lsl #1
   dd3e2:	f47f af0d 	bne.w	dd200 <__aeabi_dmul+0x234>
   dd3e6:	ea52 0543 	orrs.w	r5, r2, r3, lsl #1
   dd3ea:	f47f aeeb 	bne.w	dd1c4 <__aeabi_dmul+0x1f8>
   dd3ee:	e712      	b.n	dd216 <__aeabi_dmul+0x24a>

000dd3f0 <__gedf2>:
   dd3f0:	f04f 3cff 	mov.w	ip, #4294967295
   dd3f4:	e006      	b.n	dd404 <__cmpdf2+0x4>
   dd3f6:	bf00      	nop

000dd3f8 <__ledf2>:
   dd3f8:	f04f 0c01 	mov.w	ip, #1
   dd3fc:	e002      	b.n	dd404 <__cmpdf2+0x4>
   dd3fe:	bf00      	nop

000dd400 <__cmpdf2>:
   dd400:	f04f 0c01 	mov.w	ip, #1
   dd404:	f84d cd04 	str.w	ip, [sp, #-4]!
   dd408:	ea4f 0c41 	mov.w	ip, r1, lsl #1
   dd40c:	ea7f 5c6c 	mvns.w	ip, ip, asr #21
   dd410:	ea4f 0c43 	mov.w	ip, r3, lsl #1
   dd414:	bf18      	it	ne
   dd416:	ea7f 5c6c 	mvnsne.w	ip, ip, asr #21
   dd41a:	d01b      	beq.n	dd454 <__cmpdf2+0x54>
   dd41c:	b001      	add	sp, #4
   dd41e:	ea50 0c41 	orrs.w	ip, r0, r1, lsl #1
   dd422:	bf0c      	ite	eq
   dd424:	ea52 0c43 	orrseq.w	ip, r2, r3, lsl #1
   dd428:	ea91 0f03 	teqne	r1, r3
   dd42c:	bf02      	ittt	eq
   dd42e:	ea90 0f02 	teqeq	r0, r2
   dd432:	2000      	moveq	r0, #0
   dd434:	4770      	bxeq	lr
   dd436:	f110 0f00 	cmn.w	r0, #0
   dd43a:	ea91 0f03 	teq	r1, r3
   dd43e:	bf58      	it	pl
   dd440:	4299      	cmppl	r1, r3
   dd442:	bf08      	it	eq
   dd444:	4290      	cmpeq	r0, r2
   dd446:	bf2c      	ite	cs
   dd448:	17d8      	asrcs	r0, r3, #31
   dd44a:	ea6f 70e3 	mvncc.w	r0, r3, asr #31
   dd44e:	f040 0001 	orr.w	r0, r0, #1
   dd452:	4770      	bx	lr
   dd454:	ea4f 0c41 	mov.w	ip, r1, lsl #1
   dd458:	ea7f 5c6c 	mvns.w	ip, ip, asr #21
   dd45c:	d102      	bne.n	dd464 <__cmpdf2+0x64>
   dd45e:	ea50 3c01 	orrs.w	ip, r0, r1, lsl #12
   dd462:	d107      	bne.n	dd474 <__cmpdf2+0x74>
   dd464:	ea4f 0c43 	mov.w	ip, r3, lsl #1
   dd468:	ea7f 5c6c 	mvns.w	ip, ip, asr #21
   dd46c:	d1d6      	bne.n	dd41c <__cmpdf2+0x1c>
   dd46e:	ea52 3c03 	orrs.w	ip, r2, r3, lsl #12
   dd472:	d0d3      	beq.n	dd41c <__cmpdf2+0x1c>
   dd474:	f85d 0b04 	ldr.w	r0, [sp], #4
   dd478:	4770      	bx	lr
   dd47a:	bf00      	nop

000dd47c <__aeabi_cdrcmple>:
   dd47c:	4684      	mov	ip, r0
   dd47e:	4610      	mov	r0, r2
   dd480:	4662      	mov	r2, ip
   dd482:	468c      	mov	ip, r1
   dd484:	4619      	mov	r1, r3
   dd486:	4663      	mov	r3, ip
   dd488:	e000      	b.n	dd48c <__aeabi_cdcmpeq>
   dd48a:	bf00      	nop

000dd48c <__aeabi_cdcmpeq>:
   dd48c:	b501      	push	{r0, lr}
   dd48e:	f7ff ffb7 	bl	dd400 <__cmpdf2>
   dd492:	2800      	cmp	r0, #0
   dd494:	bf48      	it	mi
   dd496:	f110 0f00 	cmnmi.w	r0, #0
   dd49a:	bd01      	pop	{r0, pc}

000dd49c <__aeabi_dcmpeq>:
   dd49c:	f84d ed08 	str.w	lr, [sp, #-8]!
   dd4a0:	f7ff fff4 	bl	dd48c <__aeabi_cdcmpeq>
   dd4a4:	bf0c      	ite	eq
   dd4a6:	2001      	moveq	r0, #1
   dd4a8:	2000      	movne	r0, #0
   dd4aa:	f85d fb08 	ldr.w	pc, [sp], #8
   dd4ae:	bf00      	nop

000dd4b0 <__aeabi_dcmplt>:
   dd4b0:	f84d ed08 	str.w	lr, [sp, #-8]!
   dd4b4:	f7ff ffea 	bl	dd48c <__aeabi_cdcmpeq>
   dd4b8:	bf34      	ite	cc
   dd4ba:	2001      	movcc	r0, #1
   dd4bc:	2000      	movcs	r0, #0
   dd4be:	f85d fb08 	ldr.w	pc, [sp], #8
   dd4c2:	bf00      	nop

000dd4c4 <__aeabi_dcmple>:
   dd4c4:	f84d ed08 	str.w	lr, [sp, #-8]!
   dd4c8:	f7ff ffe0 	bl	dd48c <__aeabi_cdcmpeq>
   dd4cc:	bf94      	ite	ls
   dd4ce:	2001      	movls	r0, #1
   dd4d0:	2000      	movhi	r0, #0
   dd4d2:	f85d fb08 	ldr.w	pc, [sp], #8
   dd4d6:	bf00      	nop

000dd4d8 <__aeabi_dcmpge>:
   dd4d8:	f84d ed08 	str.w	lr, [sp, #-8]!
   dd4dc:	f7ff ffce 	bl	dd47c <__aeabi_cdrcmple>
   dd4e0:	bf94      	ite	ls
   dd4e2:	2001      	movls	r0, #1
   dd4e4:	2000      	movhi	r0, #0
   dd4e6:	f85d fb08 	ldr.w	pc, [sp], #8
   dd4ea:	bf00      	nop

000dd4ec <__aeabi_dcmpgt>:
   dd4ec:	f84d ed08 	str.w	lr, [sp, #-8]!
   dd4f0:	f7ff ffc4 	bl	dd47c <__aeabi_cdrcmple>
   dd4f4:	bf34      	ite	cc
   dd4f6:	2001      	movcc	r0, #1
   dd4f8:	2000      	movcs	r0, #0
   dd4fa:	f85d fb08 	ldr.w	pc, [sp], #8
   dd4fe:	bf00      	nop

000dd500 <__aeabi_dcmpun>:
   dd500:	ea4f 0c41 	mov.w	ip, r1, lsl #1
   dd504:	ea7f 5c6c 	mvns.w	ip, ip, asr #21
   dd508:	d102      	bne.n	dd510 <__aeabi_dcmpun+0x10>
   dd50a:	ea50 3c01 	orrs.w	ip, r0, r1, lsl #12
   dd50e:	d10a      	bne.n	dd526 <__aeabi_dcmpun+0x26>
   dd510:	ea4f 0c43 	mov.w	ip, r3, lsl #1
   dd514:	ea7f 5c6c 	mvns.w	ip, ip, asr #21
   dd518:	d102      	bne.n	dd520 <__aeabi_dcmpun+0x20>
   dd51a:	ea52 3c03 	orrs.w	ip, r2, r3, lsl #12
   dd51e:	d102      	bne.n	dd526 <__aeabi_dcmpun+0x26>
   dd520:	f04f 0000 	mov.w	r0, #0
   dd524:	4770      	bx	lr
   dd526:	f04f 0001 	mov.w	r0, #1
   dd52a:	4770      	bx	lr

000dd52c <__aeabi_d2iz>:
   dd52c:	ea4f 0241 	mov.w	r2, r1, lsl #1
   dd530:	f512 1200 	adds.w	r2, r2, #2097152	; 0x200000
   dd534:	d215      	bcs.n	dd562 <__aeabi_d2iz+0x36>
   dd536:	d511      	bpl.n	dd55c <__aeabi_d2iz+0x30>
   dd538:	f46f 7378 	mvn.w	r3, #992	; 0x3e0
   dd53c:	ebb3 5262 	subs.w	r2, r3, r2, asr #21
   dd540:	d912      	bls.n	dd568 <__aeabi_d2iz+0x3c>
   dd542:	ea4f 23c1 	mov.w	r3, r1, lsl #11
   dd546:	f043 4300 	orr.w	r3, r3, #2147483648	; 0x80000000
   dd54a:	ea43 5350 	orr.w	r3, r3, r0, lsr #21
   dd54e:	f011 4f00 	tst.w	r1, #2147483648	; 0x80000000
   dd552:	fa23 f002 	lsr.w	r0, r3, r2
   dd556:	bf18      	it	ne
   dd558:	4240      	negne	r0, r0
   dd55a:	4770      	bx	lr
   dd55c:	f04f 0000 	mov.w	r0, #0
   dd560:	4770      	bx	lr
   dd562:	ea50 3001 	orrs.w	r0, r0, r1, lsl #12
   dd566:	d105      	bne.n	dd574 <__aeabi_d2iz+0x48>
   dd568:	f011 4000 	ands.w	r0, r1, #2147483648	; 0x80000000
   dd56c:	bf08      	it	eq
   dd56e:	f06f 4000 	mvneq.w	r0, #2147483648	; 0x80000000
   dd572:	4770      	bx	lr
   dd574:	f04f 0000 	mov.w	r0, #0
   dd578:	4770      	bx	lr
   dd57a:	bf00      	nop

000dd57c <__aeabi_d2uiz>:
   dd57c:	004a      	lsls	r2, r1, #1
   dd57e:	d211      	bcs.n	dd5a4 <__aeabi_d2uiz+0x28>
   dd580:	f512 1200 	adds.w	r2, r2, #2097152	; 0x200000
   dd584:	d211      	bcs.n	dd5aa <__aeabi_d2uiz+0x2e>
   dd586:	d50d      	bpl.n	dd5a4 <__aeabi_d2uiz+0x28>
   dd588:	f46f 7378 	mvn.w	r3, #992	; 0x3e0
   dd58c:	ebb3 5262 	subs.w	r2, r3, r2, asr #21
   dd590:	d40e      	bmi.n	dd5b0 <__aeabi_d2uiz+0x34>
   dd592:	ea4f 23c1 	mov.w	r3, r1, lsl #11
   dd596:	f043 4300 	orr.w	r3, r3, #2147483648	; 0x80000000
   dd59a:	ea43 5350 	orr.w	r3, r3, r0, lsr #21
   dd59e:	fa23 f002 	lsr.w	r0, r3, r2
   dd5a2:	4770      	bx	lr
   dd5a4:	f04f 0000 	mov.w	r0, #0
   dd5a8:	4770      	bx	lr
   dd5aa:	ea50 3001 	orrs.w	r0, r0, r1, lsl #12
   dd5ae:	d102      	bne.n	dd5b6 <__aeabi_d2uiz+0x3a>
   dd5b0:	f04f 30ff 	mov.w	r0, #4294967295
   dd5b4:	4770      	bx	lr
   dd5b6:	f04f 0000 	mov.w	r0, #0
   dd5ba:	4770      	bx	lr

000dd5bc <__aeabi_d2f>:
   dd5bc:	ea4f 0241 	mov.w	r2, r1, lsl #1
   dd5c0:	f1b2 43e0 	subs.w	r3, r2, #1879048192	; 0x70000000
   dd5c4:	bf24      	itt	cs
   dd5c6:	f5b3 1c00 	subscs.w	ip, r3, #2097152	; 0x200000
   dd5ca:	f1dc 5cfe 	rsbscs	ip, ip, #532676608	; 0x1fc00000
   dd5ce:	d90d      	bls.n	dd5ec <__aeabi_d2f+0x30>
   dd5d0:	f001 4c00 	and.w	ip, r1, #2147483648	; 0x80000000
   dd5d4:	ea4f 02c0 	mov.w	r2, r0, lsl #3
   dd5d8:	ea4c 7050 	orr.w	r0, ip, r0, lsr #29
   dd5dc:	f1b2 4f00 	cmp.w	r2, #2147483648	; 0x80000000
   dd5e0:	eb40 0083 	adc.w	r0, r0, r3, lsl #2
   dd5e4:	bf08      	it	eq
   dd5e6:	f020 0001 	biceq.w	r0, r0, #1
   dd5ea:	4770      	bx	lr
   dd5ec:	f011 4f80 	tst.w	r1, #1073741824	; 0x40000000
   dd5f0:	d121      	bne.n	dd636 <__aeabi_d2f+0x7a>
   dd5f2:	f113 7238 	adds.w	r2, r3, #48234496	; 0x2e00000
   dd5f6:	bfbc      	itt	lt
   dd5f8:	f001 4000 	andlt.w	r0, r1, #2147483648	; 0x80000000
   dd5fc:	4770      	bxlt	lr
   dd5fe:	f441 1180 	orr.w	r1, r1, #1048576	; 0x100000
   dd602:	ea4f 5252 	mov.w	r2, r2, lsr #21
   dd606:	f1c2 0218 	rsb	r2, r2, #24
   dd60a:	f1c2 0c20 	rsb	ip, r2, #32
   dd60e:	fa10 f30c 	lsls.w	r3, r0, ip
   dd612:	fa20 f002 	lsr.w	r0, r0, r2
   dd616:	bf18      	it	ne
   dd618:	f040 0001 	orrne.w	r0, r0, #1
   dd61c:	ea4f 23c1 	mov.w	r3, r1, lsl #11
   dd620:	ea4f 23d3 	mov.w	r3, r3, lsr #11
   dd624:	fa03 fc0c 	lsl.w	ip, r3, ip
   dd628:	ea40 000c 	orr.w	r0, r0, ip
   dd62c:	fa23 f302 	lsr.w	r3, r3, r2
   dd630:	ea4f 0343 	mov.w	r3, r3, lsl #1
   dd634:	e7cc      	b.n	dd5d0 <__aeabi_d2f+0x14>
   dd636:	ea7f 5362 	mvns.w	r3, r2, asr #21
   dd63a:	d107      	bne.n	dd64c <__aeabi_d2f+0x90>
   dd63c:	ea50 3301 	orrs.w	r3, r0, r1, lsl #12
   dd640:	bf1e      	ittt	ne
   dd642:	f04f 40fe 	movne.w	r0, #2130706432	; 0x7f000000
   dd646:	f440 0040 	orrne.w	r0, r0, #12582912	; 0xc00000
   dd64a:	4770      	bxne	lr
   dd64c:	f001 4000 	and.w	r0, r1, #2147483648	; 0x80000000
   dd650:	f040 40fe 	orr.w	r0, r0, #2130706432	; 0x7f000000
   dd654:	f440 0000 	orr.w	r0, r0, #8388608	; 0x800000
   dd658:	4770      	bx	lr
   dd65a:	bf00      	nop

000dd65c <__aeabi_frsub>:
   dd65c:	f080 4000 	eor.w	r0, r0, #2147483648	; 0x80000000
   dd660:	e002      	b.n	dd668 <__addsf3>
   dd662:	bf00      	nop

000dd664 <__aeabi_fsub>:
   dd664:	f081 4100 	eor.w	r1, r1, #2147483648	; 0x80000000

000dd668 <__addsf3>:
   dd668:	0042      	lsls	r2, r0, #1
   dd66a:	bf1f      	itttt	ne
   dd66c:	ea5f 0341 	movsne.w	r3, r1, lsl #1
   dd670:	ea92 0f03 	teqne	r2, r3
   dd674:	ea7f 6c22 	mvnsne.w	ip, r2, asr #24
   dd678:	ea7f 6c23 	mvnsne.w	ip, r3, asr #24
   dd67c:	d06a      	beq.n	dd754 <__addsf3+0xec>
   dd67e:	ea4f 6212 	mov.w	r2, r2, lsr #24
   dd682:	ebd2 6313 	rsbs	r3, r2, r3, lsr #24
   dd686:	bfc1      	itttt	gt
   dd688:	18d2      	addgt	r2, r2, r3
   dd68a:	4041      	eorgt	r1, r0
   dd68c:	4048      	eorgt	r0, r1
   dd68e:	4041      	eorgt	r1, r0
   dd690:	bfb8      	it	lt
   dd692:	425b      	neglt	r3, r3
   dd694:	2b19      	cmp	r3, #25
   dd696:	bf88      	it	hi
   dd698:	4770      	bxhi	lr
   dd69a:	f010 4f00 	tst.w	r0, #2147483648	; 0x80000000
   dd69e:	f440 0000 	orr.w	r0, r0, #8388608	; 0x800000
   dd6a2:	f020 407f 	bic.w	r0, r0, #4278190080	; 0xff000000
   dd6a6:	bf18      	it	ne
   dd6a8:	4240      	negne	r0, r0
   dd6aa:	f011 4f00 	tst.w	r1, #2147483648	; 0x80000000
   dd6ae:	f441 0100 	orr.w	r1, r1, #8388608	; 0x800000
   dd6b2:	f021 417f 	bic.w	r1, r1, #4278190080	; 0xff000000
   dd6b6:	bf18      	it	ne
   dd6b8:	4249      	negne	r1, r1
   dd6ba:	ea92 0f03 	teq	r2, r3
   dd6be:	d03f      	beq.n	dd740 <__addsf3+0xd8>
   dd6c0:	f1a2 0201 	sub.w	r2, r2, #1
   dd6c4:	fa41 fc03 	asr.w	ip, r1, r3
   dd6c8:	eb10 000c 	adds.w	r0, r0, ip
   dd6cc:	f1c3 0320 	rsb	r3, r3, #32
   dd6d0:	fa01 f103 	lsl.w	r1, r1, r3
   dd6d4:	f000 4300 	and.w	r3, r0, #2147483648	; 0x80000000
   dd6d8:	d502      	bpl.n	dd6e0 <__addsf3+0x78>
   dd6da:	4249      	negs	r1, r1
   dd6dc:	eb60 0040 	sbc.w	r0, r0, r0, lsl #1
   dd6e0:	f5b0 0f00 	cmp.w	r0, #8388608	; 0x800000
   dd6e4:	d313      	bcc.n	dd70e <__addsf3+0xa6>
   dd6e6:	f1b0 7f80 	cmp.w	r0, #16777216	; 0x1000000
   dd6ea:	d306      	bcc.n	dd6fa <__addsf3+0x92>
   dd6ec:	0840      	lsrs	r0, r0, #1
   dd6ee:	ea4f 0131 	mov.w	r1, r1, rrx
   dd6f2:	f102 0201 	add.w	r2, r2, #1
   dd6f6:	2afe      	cmp	r2, #254	; 0xfe
   dd6f8:	d251      	bcs.n	dd79e <__addsf3+0x136>
   dd6fa:	f1b1 4f00 	cmp.w	r1, #2147483648	; 0x80000000
   dd6fe:	eb40 50c2 	adc.w	r0, r0, r2, lsl #23
   dd702:	bf08      	it	eq
   dd704:	f020 0001 	biceq.w	r0, r0, #1
   dd708:	ea40 0003 	orr.w	r0, r0, r3
   dd70c:	4770      	bx	lr
   dd70e:	0049      	lsls	r1, r1, #1
   dd710:	eb40 0000 	adc.w	r0, r0, r0
   dd714:	3a01      	subs	r2, #1
   dd716:	bf28      	it	cs
   dd718:	f5b0 0f00 	cmpcs.w	r0, #8388608	; 0x800000
   dd71c:	d2ed      	bcs.n	dd6fa <__addsf3+0x92>
   dd71e:	fab0 fc80 	clz	ip, r0
   dd722:	f1ac 0c08 	sub.w	ip, ip, #8
   dd726:	ebb2 020c 	subs.w	r2, r2, ip
   dd72a:	fa00 f00c 	lsl.w	r0, r0, ip
   dd72e:	bfaa      	itet	ge
   dd730:	eb00 50c2 	addge.w	r0, r0, r2, lsl #23
   dd734:	4252      	neglt	r2, r2
   dd736:	4318      	orrge	r0, r3
   dd738:	bfbc      	itt	lt
   dd73a:	40d0      	lsrlt	r0, r2
   dd73c:	4318      	orrlt	r0, r3
   dd73e:	4770      	bx	lr
   dd740:	f092 0f00 	teq	r2, #0
   dd744:	f481 0100 	eor.w	r1, r1, #8388608	; 0x800000
   dd748:	bf06      	itte	eq
   dd74a:	f480 0000 	eoreq.w	r0, r0, #8388608	; 0x800000
   dd74e:	3201      	addeq	r2, #1
   dd750:	3b01      	subne	r3, #1
   dd752:	e7b5      	b.n	dd6c0 <__addsf3+0x58>
   dd754:	ea4f 0341 	mov.w	r3, r1, lsl #1
   dd758:	ea7f 6c22 	mvns.w	ip, r2, asr #24
   dd75c:	bf18      	it	ne
   dd75e:	ea7f 6c23 	mvnsne.w	ip, r3, asr #24
   dd762:	d021      	beq.n	dd7a8 <__addsf3+0x140>
   dd764:	ea92 0f03 	teq	r2, r3
   dd768:	d004      	beq.n	dd774 <__addsf3+0x10c>
   dd76a:	f092 0f00 	teq	r2, #0
   dd76e:	bf08      	it	eq
   dd770:	4608      	moveq	r0, r1
   dd772:	4770      	bx	lr
   dd774:	ea90 0f01 	teq	r0, r1
   dd778:	bf1c      	itt	ne
   dd77a:	2000      	movne	r0, #0
   dd77c:	4770      	bxne	lr
   dd77e:	f012 4f7f 	tst.w	r2, #4278190080	; 0xff000000
   dd782:	d104      	bne.n	dd78e <__addsf3+0x126>
   dd784:	0040      	lsls	r0, r0, #1
   dd786:	bf28      	it	cs
   dd788:	f040 4000 	orrcs.w	r0, r0, #2147483648	; 0x80000000
   dd78c:	4770      	bx	lr
   dd78e:	f112 7200 	adds.w	r2, r2, #33554432	; 0x2000000
   dd792:	bf3c      	itt	cc
   dd794:	f500 0000 	addcc.w	r0, r0, #8388608	; 0x800000
   dd798:	4770      	bxcc	lr
   dd79a:	f000 4300 	and.w	r3, r0, #2147483648	; 0x80000000
   dd79e:	f043 40fe 	orr.w	r0, r3, #2130706432	; 0x7f000000
   dd7a2:	f440 0000 	orr.w	r0, r0, #8388608	; 0x800000
   dd7a6:	4770      	bx	lr
   dd7a8:	ea7f 6222 	mvns.w	r2, r2, asr #24
   dd7ac:	bf16      	itet	ne
   dd7ae:	4608      	movne	r0, r1
   dd7b0:	ea7f 6323 	mvnseq.w	r3, r3, asr #24
   dd7b4:	4601      	movne	r1, r0
   dd7b6:	0242      	lsls	r2, r0, #9
   dd7b8:	bf06      	itte	eq
   dd7ba:	ea5f 2341 	movseq.w	r3, r1, lsl #9
   dd7be:	ea90 0f01 	teqeq	r0, r1
   dd7c2:	f440 0080 	orrne.w	r0, r0, #4194304	; 0x400000
   dd7c6:	4770      	bx	lr

000dd7c8 <__aeabi_ui2f>:
   dd7c8:	f04f 0300 	mov.w	r3, #0
   dd7cc:	e004      	b.n	dd7d8 <__aeabi_i2f+0x8>
   dd7ce:	bf00      	nop

000dd7d0 <__aeabi_i2f>:
   dd7d0:	f010 4300 	ands.w	r3, r0, #2147483648	; 0x80000000
   dd7d4:	bf48      	it	mi
   dd7d6:	4240      	negmi	r0, r0
   dd7d8:	ea5f 0c00 	movs.w	ip, r0
   dd7dc:	bf08      	it	eq
   dd7de:	4770      	bxeq	lr
   dd7e0:	f043 4396 	orr.w	r3, r3, #1258291200	; 0x4b000000
   dd7e4:	4601      	mov	r1, r0
   dd7e6:	f04f 0000 	mov.w	r0, #0
   dd7ea:	e01c      	b.n	dd826 <__aeabi_l2f+0x2a>

000dd7ec <__aeabi_ul2f>:
   dd7ec:	ea50 0201 	orrs.w	r2, r0, r1
   dd7f0:	bf08      	it	eq
   dd7f2:	4770      	bxeq	lr
   dd7f4:	f04f 0300 	mov.w	r3, #0
   dd7f8:	e00a      	b.n	dd810 <__aeabi_l2f+0x14>
   dd7fa:	bf00      	nop

000dd7fc <__aeabi_l2f>:
   dd7fc:	ea50 0201 	orrs.w	r2, r0, r1
   dd800:	bf08      	it	eq
   dd802:	4770      	bxeq	lr
   dd804:	f011 4300 	ands.w	r3, r1, #2147483648	; 0x80000000
   dd808:	d502      	bpl.n	dd810 <__aeabi_l2f+0x14>
   dd80a:	4240      	negs	r0, r0
   dd80c:	eb61 0141 	sbc.w	r1, r1, r1, lsl #1
   dd810:	ea5f 0c01 	movs.w	ip, r1
   dd814:	bf02      	ittt	eq
   dd816:	4684      	moveq	ip, r0
   dd818:	4601      	moveq	r1, r0
   dd81a:	2000      	moveq	r0, #0
   dd81c:	f043 43b6 	orr.w	r3, r3, #1526726656	; 0x5b000000
   dd820:	bf08      	it	eq
   dd822:	f1a3 5380 	subeq.w	r3, r3, #268435456	; 0x10000000
   dd826:	f5a3 0300 	sub.w	r3, r3, #8388608	; 0x800000
   dd82a:	fabc f28c 	clz	r2, ip
   dd82e:	3a08      	subs	r2, #8
   dd830:	eba3 53c2 	sub.w	r3, r3, r2, lsl #23
   dd834:	db10      	blt.n	dd858 <__aeabi_l2f+0x5c>
   dd836:	fa01 fc02 	lsl.w	ip, r1, r2
   dd83a:	4463      	add	r3, ip
   dd83c:	fa00 fc02 	lsl.w	ip, r0, r2
   dd840:	f1c2 0220 	rsb	r2, r2, #32
   dd844:	f1bc 4f00 	cmp.w	ip, #2147483648	; 0x80000000
   dd848:	fa20 f202 	lsr.w	r2, r0, r2
   dd84c:	eb43 0002 	adc.w	r0, r3, r2
   dd850:	bf08      	it	eq
   dd852:	f020 0001 	biceq.w	r0, r0, #1
   dd856:	4770      	bx	lr
   dd858:	f102 0220 	add.w	r2, r2, #32
   dd85c:	fa01 fc02 	lsl.w	ip, r1, r2
   dd860:	f1c2 0220 	rsb	r2, r2, #32
   dd864:	ea50 004c 	orrs.w	r0, r0, ip, lsl #1
   dd868:	fa21 f202 	lsr.w	r2, r1, r2
   dd86c:	eb43 0002 	adc.w	r0, r3, r2
   dd870:	bf08      	it	eq
   dd872:	ea20 70dc 	biceq.w	r0, r0, ip, lsr #31
   dd876:	4770      	bx	lr

000dd878 <__aeabi_ldivmod>:
   dd878:	b97b      	cbnz	r3, dd89a <__aeabi_ldivmod+0x22>
   dd87a:	b972      	cbnz	r2, dd89a <__aeabi_ldivmod+0x22>
   dd87c:	2900      	cmp	r1, #0
   dd87e:	bfbe      	ittt	lt
   dd880:	2000      	movlt	r0, #0
   dd882:	f04f 4100 	movlt.w	r1, #2147483648	; 0x80000000
   dd886:	e006      	blt.n	dd896 <__aeabi_ldivmod+0x1e>
   dd888:	bf08      	it	eq
   dd88a:	2800      	cmpeq	r0, #0
   dd88c:	bf1c      	itt	ne
   dd88e:	f06f 4100 	mvnne.w	r1, #2147483648	; 0x80000000
   dd892:	f04f 30ff 	movne.w	r0, #4294967295
   dd896:	f000 b9a1 	b.w	ddbdc <__aeabi_idiv0>
   dd89a:	f1ad 0c08 	sub.w	ip, sp, #8
   dd89e:	e96d ce04 	strd	ip, lr, [sp, #-16]!
   dd8a2:	2900      	cmp	r1, #0
   dd8a4:	db09      	blt.n	dd8ba <__aeabi_ldivmod+0x42>
   dd8a6:	2b00      	cmp	r3, #0
   dd8a8:	db1a      	blt.n	dd8e0 <__aeabi_ldivmod+0x68>
   dd8aa:	f000 f835 	bl	dd918 <__udivmoddi4>
   dd8ae:	f8dd e004 	ldr.w	lr, [sp, #4]
   dd8b2:	e9dd 2302 	ldrd	r2, r3, [sp, #8]
   dd8b6:	b004      	add	sp, #16
   dd8b8:	4770      	bx	lr
   dd8ba:	4240      	negs	r0, r0
   dd8bc:	eb61 0141 	sbc.w	r1, r1, r1, lsl #1
   dd8c0:	2b00      	cmp	r3, #0
   dd8c2:	db1b      	blt.n	dd8fc <__aeabi_ldivmod+0x84>
   dd8c4:	f000 f828 	bl	dd918 <__udivmoddi4>
   dd8c8:	f8dd e004 	ldr.w	lr, [sp, #4]
   dd8cc:	e9dd 2302 	ldrd	r2, r3, [sp, #8]
   dd8d0:	b004      	add	sp, #16
   dd8d2:	4240      	negs	r0, r0
   dd8d4:	eb61 0141 	sbc.w	r1, r1, r1, lsl #1
   dd8d8:	4252      	negs	r2, r2
   dd8da:	eb63 0343 	sbc.w	r3, r3, r3, lsl #1
   dd8de:	4770      	bx	lr
   dd8e0:	4252      	negs	r2, r2
   dd8e2:	eb63 0343 	sbc.w	r3, r3, r3, lsl #1
   dd8e6:	f000 f817 	bl	dd918 <__udivmoddi4>
   dd8ea:	f8dd e004 	ldr.w	lr, [sp, #4]
   dd8ee:	e9dd 2302 	ldrd	r2, r3, [sp, #8]
   dd8f2:	b004      	add	sp, #16
   dd8f4:	4240      	negs	r0, r0
   dd8f6:	eb61 0141 	sbc.w	r1, r1, r1, lsl #1
   dd8fa:	4770      	bx	lr
   dd8fc:	4252      	negs	r2, r2
   dd8fe:	eb63 0343 	sbc.w	r3, r3, r3, lsl #1
   dd902:	f000 f809 	bl	dd918 <__udivmoddi4>
   dd906:	f8dd e004 	ldr.w	lr, [sp, #4]
   dd90a:	e9dd 2302 	ldrd	r2, r3, [sp, #8]
   dd90e:	b004      	add	sp, #16
   dd910:	4252      	negs	r2, r2
   dd912:	eb63 0343 	sbc.w	r3, r3, r3, lsl #1
   dd916:	4770      	bx	lr

000dd918 <__udivmoddi4>:
   dd918:	e92d 47f0 	stmdb	sp!, {r4, r5, r6, r7, r8, r9, sl, lr}
   dd91c:	9d08      	ldr	r5, [sp, #32]
   dd91e:	4604      	mov	r4, r0
   dd920:	468c      	mov	ip, r1
   dd922:	2b00      	cmp	r3, #0
   dd924:	f040 8083 	bne.w	dda2e <__udivmoddi4+0x116>
   dd928:	428a      	cmp	r2, r1
   dd92a:	4617      	mov	r7, r2
   dd92c:	d947      	bls.n	dd9be <__udivmoddi4+0xa6>
   dd92e:	fab2 f282 	clz	r2, r2
   dd932:	b142      	cbz	r2, dd946 <__udivmoddi4+0x2e>
   dd934:	f1c2 0020 	rsb	r0, r2, #32
   dd938:	fa24 f000 	lsr.w	r0, r4, r0
   dd93c:	4091      	lsls	r1, r2
   dd93e:	4097      	lsls	r7, r2
   dd940:	ea40 0c01 	orr.w	ip, r0, r1
   dd944:	4094      	lsls	r4, r2
   dd946:	ea4f 4817 	mov.w	r8, r7, lsr #16
   dd94a:	0c23      	lsrs	r3, r4, #16
   dd94c:	fbbc f6f8 	udiv	r6, ip, r8
   dd950:	fa1f fe87 	uxth.w	lr, r7
   dd954:	fb08 c116 	mls	r1, r8, r6, ip
   dd958:	ea43 4301 	orr.w	r3, r3, r1, lsl #16
   dd95c:	fb06 f10e 	mul.w	r1, r6, lr
   dd960:	4299      	cmp	r1, r3
   dd962:	d909      	bls.n	dd978 <__udivmoddi4+0x60>
   dd964:	18fb      	adds	r3, r7, r3
   dd966:	f106 30ff 	add.w	r0, r6, #4294967295
   dd96a:	f080 8119 	bcs.w	ddba0 <__udivmoddi4+0x288>
   dd96e:	4299      	cmp	r1, r3
   dd970:	f240 8116 	bls.w	ddba0 <__udivmoddi4+0x288>
   dd974:	3e02      	subs	r6, #2
   dd976:	443b      	add	r3, r7
   dd978:	1a5b      	subs	r3, r3, r1
   dd97a:	b2a4      	uxth	r4, r4
   dd97c:	fbb3 f0f8 	udiv	r0, r3, r8
   dd980:	fb08 3310 	mls	r3, r8, r0, r3
   dd984:	ea44 4403 	orr.w	r4, r4, r3, lsl #16
   dd988:	fb00 fe0e 	mul.w	lr, r0, lr
   dd98c:	45a6      	cmp	lr, r4
   dd98e:	d909      	bls.n	dd9a4 <__udivmoddi4+0x8c>
   dd990:	193c      	adds	r4, r7, r4
   dd992:	f100 33ff 	add.w	r3, r0, #4294967295
   dd996:	f080 8105 	bcs.w	ddba4 <__udivmoddi4+0x28c>
   dd99a:	45a6      	cmp	lr, r4
   dd99c:	f240 8102 	bls.w	ddba4 <__udivmoddi4+0x28c>
   dd9a0:	3802      	subs	r0, #2
   dd9a2:	443c      	add	r4, r7
   dd9a4:	ea40 4006 	orr.w	r0, r0, r6, lsl #16
   dd9a8:	eba4 040e 	sub.w	r4, r4, lr
   dd9ac:	2600      	movs	r6, #0
   dd9ae:	b11d      	cbz	r5, dd9b8 <__udivmoddi4+0xa0>
   dd9b0:	40d4      	lsrs	r4, r2
   dd9b2:	2300      	movs	r3, #0
   dd9b4:	e9c5 4300 	strd	r4, r3, [r5]
   dd9b8:	4631      	mov	r1, r6
   dd9ba:	e8bd 87f0 	ldmia.w	sp!, {r4, r5, r6, r7, r8, r9, sl, pc}
   dd9be:	b902      	cbnz	r2, dd9c2 <__udivmoddi4+0xaa>
   dd9c0:	deff      	udf	#255	; 0xff
   dd9c2:	fab2 f282 	clz	r2, r2
   dd9c6:	2a00      	cmp	r2, #0
   dd9c8:	d150      	bne.n	dda6c <__udivmoddi4+0x154>
   dd9ca:	1bcb      	subs	r3, r1, r7
   dd9cc:	ea4f 4e17 	mov.w	lr, r7, lsr #16
   dd9d0:	fa1f f887 	uxth.w	r8, r7
   dd9d4:	2601      	movs	r6, #1
   dd9d6:	fbb3 fcfe 	udiv	ip, r3, lr
   dd9da:	0c21      	lsrs	r1, r4, #16
   dd9dc:	fb0e 331c 	mls	r3, lr, ip, r3
   dd9e0:	ea41 4103 	orr.w	r1, r1, r3, lsl #16
   dd9e4:	fb08 f30c 	mul.w	r3, r8, ip
   dd9e8:	428b      	cmp	r3, r1
   dd9ea:	d907      	bls.n	dd9fc <__udivmoddi4+0xe4>
   dd9ec:	1879      	adds	r1, r7, r1
   dd9ee:	f10c 30ff 	add.w	r0, ip, #4294967295
   dd9f2:	d202      	bcs.n	dd9fa <__udivmoddi4+0xe2>
   dd9f4:	428b      	cmp	r3, r1
   dd9f6:	f200 80e9 	bhi.w	ddbcc <__udivmoddi4+0x2b4>
   dd9fa:	4684      	mov	ip, r0
   dd9fc:	1ac9      	subs	r1, r1, r3
   dd9fe:	b2a3      	uxth	r3, r4
   dda00:	fbb1 f0fe 	udiv	r0, r1, lr
   dda04:	fb0e 1110 	mls	r1, lr, r0, r1
   dda08:	ea43 4401 	orr.w	r4, r3, r1, lsl #16
   dda0c:	fb08 f800 	mul.w	r8, r8, r0
   dda10:	45a0      	cmp	r8, r4
   dda12:	d907      	bls.n	dda24 <__udivmoddi4+0x10c>
   dda14:	193c      	adds	r4, r7, r4
   dda16:	f100 33ff 	add.w	r3, r0, #4294967295
   dda1a:	d202      	bcs.n	dda22 <__udivmoddi4+0x10a>
   dda1c:	45a0      	cmp	r8, r4
   dda1e:	f200 80d9 	bhi.w	ddbd4 <__udivmoddi4+0x2bc>
   dda22:	4618      	mov	r0, r3
   dda24:	eba4 0408 	sub.w	r4, r4, r8
   dda28:	ea40 400c 	orr.w	r0, r0, ip, lsl #16
   dda2c:	e7bf      	b.n	dd9ae <__udivmoddi4+0x96>
   dda2e:	428b      	cmp	r3, r1
   dda30:	d909      	bls.n	dda46 <__udivmoddi4+0x12e>
   dda32:	2d00      	cmp	r5, #0
   dda34:	f000 80b1 	beq.w	ddb9a <__udivmoddi4+0x282>
   dda38:	2600      	movs	r6, #0
   dda3a:	e9c5 0100 	strd	r0, r1, [r5]
   dda3e:	4630      	mov	r0, r6
   dda40:	4631      	mov	r1, r6
   dda42:	e8bd 87f0 	ldmia.w	sp!, {r4, r5, r6, r7, r8, r9, sl, pc}
   dda46:	fab3 f683 	clz	r6, r3
   dda4a:	2e00      	cmp	r6, #0
   dda4c:	d14a      	bne.n	ddae4 <__udivmoddi4+0x1cc>
   dda4e:	428b      	cmp	r3, r1
   dda50:	d302      	bcc.n	dda58 <__udivmoddi4+0x140>
   dda52:	4282      	cmp	r2, r0
   dda54:	f200 80b8 	bhi.w	ddbc8 <__udivmoddi4+0x2b0>
   dda58:	1a84      	subs	r4, r0, r2
   dda5a:	eb61 0103 	sbc.w	r1, r1, r3
   dda5e:	2001      	movs	r0, #1
   dda60:	468c      	mov	ip, r1
   dda62:	2d00      	cmp	r5, #0
   dda64:	d0a8      	beq.n	dd9b8 <__udivmoddi4+0xa0>
   dda66:	e9c5 4c00 	strd	r4, ip, [r5]
   dda6a:	e7a5      	b.n	dd9b8 <__udivmoddi4+0xa0>
   dda6c:	f1c2 0320 	rsb	r3, r2, #32
   dda70:	fa20 f603 	lsr.w	r6, r0, r3
   dda74:	4097      	lsls	r7, r2
   dda76:	fa01 f002 	lsl.w	r0, r1, r2
   dda7a:	ea4f 4e17 	mov.w	lr, r7, lsr #16
   dda7e:	40d9      	lsrs	r1, r3
   dda80:	4330      	orrs	r0, r6
   dda82:	0c03      	lsrs	r3, r0, #16
   dda84:	fbb1 f6fe 	udiv	r6, r1, lr
   dda88:	fa1f f887 	uxth.w	r8, r7
   dda8c:	fb0e 1116 	mls	r1, lr, r6, r1
   dda90:	ea43 4301 	orr.w	r3, r3, r1, lsl #16
   dda94:	fb06 f108 	mul.w	r1, r6, r8
   dda98:	4299      	cmp	r1, r3
   dda9a:	fa04 f402 	lsl.w	r4, r4, r2
   dda9e:	d909      	bls.n	ddab4 <__udivmoddi4+0x19c>
   ddaa0:	18fb      	adds	r3, r7, r3
   ddaa2:	f106 3cff 	add.w	ip, r6, #4294967295
   ddaa6:	f080 808d 	bcs.w	ddbc4 <__udivmoddi4+0x2ac>
   ddaaa:	4299      	cmp	r1, r3
   ddaac:	f240 808a 	bls.w	ddbc4 <__udivmoddi4+0x2ac>
   ddab0:	3e02      	subs	r6, #2
   ddab2:	443b      	add	r3, r7
   ddab4:	1a5b      	subs	r3, r3, r1
   ddab6:	b281      	uxth	r1, r0
   ddab8:	fbb3 f0fe 	udiv	r0, r3, lr
   ddabc:	fb0e 3310 	mls	r3, lr, r0, r3
   ddac0:	ea41 4103 	orr.w	r1, r1, r3, lsl #16
   ddac4:	fb00 f308 	mul.w	r3, r0, r8
   ddac8:	428b      	cmp	r3, r1
   ddaca:	d907      	bls.n	ddadc <__udivmoddi4+0x1c4>
   ddacc:	1879      	adds	r1, r7, r1
   ddace:	f100 3cff 	add.w	ip, r0, #4294967295
   ddad2:	d273      	bcs.n	ddbbc <__udivmoddi4+0x2a4>
   ddad4:	428b      	cmp	r3, r1
   ddad6:	d971      	bls.n	ddbbc <__udivmoddi4+0x2a4>
   ddad8:	3802      	subs	r0, #2
   ddada:	4439      	add	r1, r7
   ddadc:	1acb      	subs	r3, r1, r3
   ddade:	ea40 4606 	orr.w	r6, r0, r6, lsl #16
   ddae2:	e778      	b.n	dd9d6 <__udivmoddi4+0xbe>
   ddae4:	f1c6 0c20 	rsb	ip, r6, #32
   ddae8:	fa03 f406 	lsl.w	r4, r3, r6
   ddaec:	fa22 f30c 	lsr.w	r3, r2, ip
   ddaf0:	431c      	orrs	r4, r3
   ddaf2:	fa20 f70c 	lsr.w	r7, r0, ip
   ddaf6:	fa01 f306 	lsl.w	r3, r1, r6
   ddafa:	ea4f 4e14 	mov.w	lr, r4, lsr #16
   ddafe:	fa21 f10c 	lsr.w	r1, r1, ip
   ddb02:	431f      	orrs	r7, r3
   ddb04:	0c3b      	lsrs	r3, r7, #16
   ddb06:	fbb1 f9fe 	udiv	r9, r1, lr
   ddb0a:	fa1f f884 	uxth.w	r8, r4
   ddb0e:	fb0e 1119 	mls	r1, lr, r9, r1
   ddb12:	ea43 4101 	orr.w	r1, r3, r1, lsl #16
   ddb16:	fb09 fa08 	mul.w	sl, r9, r8
   ddb1a:	458a      	cmp	sl, r1
   ddb1c:	fa02 f206 	lsl.w	r2, r2, r6
   ddb20:	fa00 f306 	lsl.w	r3, r0, r6
   ddb24:	d908      	bls.n	ddb38 <__udivmoddi4+0x220>
   ddb26:	1861      	adds	r1, r4, r1
   ddb28:	f109 30ff 	add.w	r0, r9, #4294967295
   ddb2c:	d248      	bcs.n	ddbc0 <__udivmoddi4+0x2a8>
   ddb2e:	458a      	cmp	sl, r1
   ddb30:	d946      	bls.n	ddbc0 <__udivmoddi4+0x2a8>
   ddb32:	f1a9 0902 	sub.w	r9, r9, #2
   ddb36:	4421      	add	r1, r4
   ddb38:	eba1 010a 	sub.w	r1, r1, sl
   ddb3c:	b2bf      	uxth	r7, r7
   ddb3e:	fbb1 f0fe 	udiv	r0, r1, lr
   ddb42:	fb0e 1110 	mls	r1, lr, r0, r1
   ddb46:	ea47 4701 	orr.w	r7, r7, r1, lsl #16
   ddb4a:	fb00 f808 	mul.w	r8, r0, r8
   ddb4e:	45b8      	cmp	r8, r7
   ddb50:	d907      	bls.n	ddb62 <__udivmoddi4+0x24a>
   ddb52:	19e7      	adds	r7, r4, r7
   ddb54:	f100 31ff 	add.w	r1, r0, #4294967295
   ddb58:	d22e      	bcs.n	ddbb8 <__udivmoddi4+0x2a0>
   ddb5a:	45b8      	cmp	r8, r7
   ddb5c:	d92c      	bls.n	ddbb8 <__udivmoddi4+0x2a0>
   ddb5e:	3802      	subs	r0, #2
   ddb60:	4427      	add	r7, r4
   ddb62:	ea40 4009 	orr.w	r0, r0, r9, lsl #16
   ddb66:	eba7 0708 	sub.w	r7, r7, r8
   ddb6a:	fba0 8902 	umull	r8, r9, r0, r2
   ddb6e:	454f      	cmp	r7, r9
   ddb70:	46c6      	mov	lr, r8
   ddb72:	4649      	mov	r1, r9
   ddb74:	d31a      	bcc.n	ddbac <__udivmoddi4+0x294>
   ddb76:	d017      	beq.n	ddba8 <__udivmoddi4+0x290>
   ddb78:	b15d      	cbz	r5, ddb92 <__udivmoddi4+0x27a>
   ddb7a:	ebb3 020e 	subs.w	r2, r3, lr
   ddb7e:	eb67 0701 	sbc.w	r7, r7, r1
   ddb82:	fa07 fc0c 	lsl.w	ip, r7, ip
   ddb86:	40f2      	lsrs	r2, r6
   ddb88:	ea4c 0202 	orr.w	r2, ip, r2
   ddb8c:	40f7      	lsrs	r7, r6
   ddb8e:	e9c5 2700 	strd	r2, r7, [r5]
   ddb92:	2600      	movs	r6, #0
   ddb94:	4631      	mov	r1, r6
   ddb96:	e8bd 87f0 	ldmia.w	sp!, {r4, r5, r6, r7, r8, r9, sl, pc}
   ddb9a:	462e      	mov	r6, r5
   ddb9c:	4628      	mov	r0, r5
   ddb9e:	e70b      	b.n	dd9b8 <__udivmoddi4+0xa0>
   ddba0:	4606      	mov	r6, r0
   ddba2:	e6e9      	b.n	dd978 <__udivmoddi4+0x60>
   ddba4:	4618      	mov	r0, r3
   ddba6:	e6fd      	b.n	dd9a4 <__udivmoddi4+0x8c>
   ddba8:	4543      	cmp	r3, r8
   ddbaa:	d2e5      	bcs.n	ddb78 <__udivmoddi4+0x260>
   ddbac:	ebb8 0e02 	subs.w	lr, r8, r2
   ddbb0:	eb69 0104 	sbc.w	r1, r9, r4
   ddbb4:	3801      	subs	r0, #1
   ddbb6:	e7df      	b.n	ddb78 <__udivmoddi4+0x260>
   ddbb8:	4608      	mov	r0, r1
   ddbba:	e7d2      	b.n	ddb62 <__udivmoddi4+0x24a>
   ddbbc:	4660      	mov	r0, ip
   ddbbe:	e78d      	b.n	ddadc <__udivmoddi4+0x1c4>
   ddbc0:	4681      	mov	r9, r0
   ddbc2:	e7b9      	b.n	ddb38 <__udivmoddi4+0x220>
   ddbc4:	4666      	mov	r6, ip
   ddbc6:	e775      	b.n	ddab4 <__udivmoddi4+0x19c>
   ddbc8:	4630      	mov	r0, r6
   ddbca:	e74a      	b.n	dda62 <__udivmoddi4+0x14a>
   ddbcc:	f1ac 0c02 	sub.w	ip, ip, #2
   ddbd0:	4439      	add	r1, r7
   ddbd2:	e713      	b.n	dd9fc <__udivmoddi4+0xe4>
   ddbd4:	3802      	subs	r0, #2
   ddbd6:	443c      	add	r4, r7
   ddbd8:	e724      	b.n	dda24 <__udivmoddi4+0x10c>
   ddbda:	bf00      	nop

000ddbdc <__aeabi_idiv0>:
   ddbdc:	4770      	bx	lr
   ddbde:	bf00      	nop

000ddbe0 <atol>:
   ddbe0:	220a      	movs	r2, #10
   ddbe2:	2100      	movs	r1, #0
   ddbe4:	f000 b932 	b.w	dde4c <strtol>

000ddbe8 <__cxa_atexit>:
   ddbe8:	b510      	push	{r4, lr}
   ddbea:	4c05      	ldr	r4, [pc, #20]	; (ddc00 <__cxa_atexit+0x18>)
   ddbec:	4613      	mov	r3, r2
   ddbee:	b12c      	cbz	r4, ddbfc <__cxa_atexit+0x14>
   ddbf0:	460a      	mov	r2, r1
   ddbf2:	4601      	mov	r1, r0
   ddbf4:	2002      	movs	r0, #2
   ddbf6:	f3af 8000 	nop.w
   ddbfa:	bd10      	pop	{r4, pc}
   ddbfc:	4620      	mov	r0, r4
   ddbfe:	e7fc      	b.n	ddbfa <__cxa_atexit+0x12>
   ddc00:	00000000 	.word	0x00000000

000ddc04 <memcmp>:
   ddc04:	b530      	push	{r4, r5, lr}
   ddc06:	3901      	subs	r1, #1
   ddc08:	2400      	movs	r4, #0
   ddc0a:	42a2      	cmp	r2, r4
   ddc0c:	d101      	bne.n	ddc12 <memcmp+0xe>
   ddc0e:	2000      	movs	r0, #0
   ddc10:	e005      	b.n	ddc1e <memcmp+0x1a>
   ddc12:	5d03      	ldrb	r3, [r0, r4]
   ddc14:	3401      	adds	r4, #1
   ddc16:	5d0d      	ldrb	r5, [r1, r4]
   ddc18:	42ab      	cmp	r3, r5
   ddc1a:	d0f6      	beq.n	ddc0a <memcmp+0x6>
   ddc1c:	1b58      	subs	r0, r3, r5
   ddc1e:	bd30      	pop	{r4, r5, pc}

000ddc20 <memcpy>:
   ddc20:	440a      	add	r2, r1
   ddc22:	4291      	cmp	r1, r2
   ddc24:	f100 33ff 	add.w	r3, r0, #4294967295
   ddc28:	d100      	bne.n	ddc2c <memcpy+0xc>
   ddc2a:	4770      	bx	lr
   ddc2c:	b510      	push	{r4, lr}
   ddc2e:	f811 4b01 	ldrb.w	r4, [r1], #1
   ddc32:	f803 4f01 	strb.w	r4, [r3, #1]!
   ddc36:	4291      	cmp	r1, r2
   ddc38:	d1f9      	bne.n	ddc2e <memcpy+0xe>
   ddc3a:	bd10      	pop	{r4, pc}

000ddc3c <memmove>:
   ddc3c:	4288      	cmp	r0, r1
   ddc3e:	b510      	push	{r4, lr}
   ddc40:	eb01 0402 	add.w	r4, r1, r2
   ddc44:	d902      	bls.n	ddc4c <memmove+0x10>
   ddc46:	4284      	cmp	r4, r0
   ddc48:	4623      	mov	r3, r4
   ddc4a:	d807      	bhi.n	ddc5c <memmove+0x20>
   ddc4c:	1e43      	subs	r3, r0, #1
   ddc4e:	42a1      	cmp	r1, r4
   ddc50:	d008      	beq.n	ddc64 <memmove+0x28>
   ddc52:	f811 2b01 	ldrb.w	r2, [r1], #1
   ddc56:	f803 2f01 	strb.w	r2, [r3, #1]!
   ddc5a:	e7f8      	b.n	ddc4e <memmove+0x12>
   ddc5c:	4402      	add	r2, r0
   ddc5e:	4601      	mov	r1, r0
   ddc60:	428a      	cmp	r2, r1
   ddc62:	d100      	bne.n	ddc66 <memmove+0x2a>
   ddc64:	bd10      	pop	{r4, pc}
   ddc66:	f813 4d01 	ldrb.w	r4, [r3, #-1]!
   ddc6a:	f802 4d01 	strb.w	r4, [r2, #-1]!
   ddc6e:	e7f7      	b.n	ddc60 <memmove+0x24>

000ddc70 <memset>:
   ddc70:	4402      	add	r2, r0
   ddc72:	4603      	mov	r3, r0
   ddc74:	4293      	cmp	r3, r2
   ddc76:	d100      	bne.n	ddc7a <memset+0xa>
   ddc78:	4770      	bx	lr
   ddc7a:	f803 1b01 	strb.w	r1, [r3], #1
   ddc7e:	e7f9      	b.n	ddc74 <memset+0x4>

000ddc80 <srand>:
   ddc80:	b538      	push	{r3, r4, r5, lr}
   ddc82:	4b0d      	ldr	r3, [pc, #52]	; (ddcb8 <srand+0x38>)
   ddc84:	681d      	ldr	r5, [r3, #0]
   ddc86:	6bab      	ldr	r3, [r5, #56]	; 0x38
   ddc88:	4604      	mov	r4, r0
   ddc8a:	b97b      	cbnz	r3, ddcac <srand+0x2c>
   ddc8c:	2018      	movs	r0, #24
   ddc8e:	f7fb f945 	bl	d8f1c <malloc>
   ddc92:	4a0a      	ldr	r2, [pc, #40]	; (ddcbc <srand+0x3c>)
   ddc94:	4b0a      	ldr	r3, [pc, #40]	; (ddcc0 <srand+0x40>)
   ddc96:	63a8      	str	r0, [r5, #56]	; 0x38
   ddc98:	e9c0 2300 	strd	r2, r3, [r0]
   ddc9c:	4b09      	ldr	r3, [pc, #36]	; (ddcc4 <srand+0x44>)
   ddc9e:	6083      	str	r3, [r0, #8]
   ddca0:	230b      	movs	r3, #11
   ddca2:	8183      	strh	r3, [r0, #12]
   ddca4:	2201      	movs	r2, #1
   ddca6:	2300      	movs	r3, #0
   ddca8:	e9c0 2304 	strd	r2, r3, [r0, #16]
   ddcac:	6bab      	ldr	r3, [r5, #56]	; 0x38
   ddcae:	2200      	movs	r2, #0
   ddcb0:	611c      	str	r4, [r3, #16]
   ddcb2:	615a      	str	r2, [r3, #20]
   ddcb4:	bd38      	pop	{r3, r4, r5, pc}
   ddcb6:	bf00      	nop
   ddcb8:	2003ddb8 	.word	0x2003ddb8
   ddcbc:	abcd330e 	.word	0xabcd330e
   ddcc0:	e66d1234 	.word	0xe66d1234
   ddcc4:	0005deec 	.word	0x0005deec

000ddcc8 <strchr>:
   ddcc8:	b2c9      	uxtb	r1, r1
   ddcca:	4603      	mov	r3, r0
   ddccc:	f810 2b01 	ldrb.w	r2, [r0], #1
   ddcd0:	b11a      	cbz	r2, ddcda <strchr+0x12>
   ddcd2:	428a      	cmp	r2, r1
   ddcd4:	d1f9      	bne.n	ddcca <strchr+0x2>
   ddcd6:	4618      	mov	r0, r3
   ddcd8:	4770      	bx	lr
   ddcda:	2900      	cmp	r1, #0
   ddcdc:	bf18      	it	ne
   ddcde:	2300      	movne	r3, #0
   ddce0:	e7f9      	b.n	ddcd6 <strchr+0xe>

000ddce2 <strcmp>:
   ddce2:	f810 2b01 	ldrb.w	r2, [r0], #1
   ddce6:	f811 3b01 	ldrb.w	r3, [r1], #1
   ddcea:	2a01      	cmp	r2, #1
   ddcec:	bf28      	it	cs
   ddcee:	429a      	cmpcs	r2, r3
   ddcf0:	d0f7      	beq.n	ddce2 <strcmp>
   ddcf2:	1ad0      	subs	r0, r2, r3
   ddcf4:	4770      	bx	lr

000ddcf6 <strcpy>:
   ddcf6:	4603      	mov	r3, r0
   ddcf8:	f811 2b01 	ldrb.w	r2, [r1], #1
   ddcfc:	f803 2b01 	strb.w	r2, [r3], #1
   ddd00:	2a00      	cmp	r2, #0
   ddd02:	d1f9      	bne.n	ddcf8 <strcpy+0x2>
   ddd04:	4770      	bx	lr

000ddd06 <strlen>:
   ddd06:	4603      	mov	r3, r0
   ddd08:	f813 2b01 	ldrb.w	r2, [r3], #1
   ddd0c:	2a00      	cmp	r2, #0
   ddd0e:	d1fb      	bne.n	ddd08 <strlen+0x2>
   ddd10:	1a18      	subs	r0, r3, r0
   ddd12:	3801      	subs	r0, #1
   ddd14:	4770      	bx	lr

000ddd16 <strncpy>:
   ddd16:	b510      	push	{r4, lr}
   ddd18:	3901      	subs	r1, #1
   ddd1a:	4603      	mov	r3, r0
   ddd1c:	b132      	cbz	r2, ddd2c <strncpy+0x16>
   ddd1e:	f811 4f01 	ldrb.w	r4, [r1, #1]!
   ddd22:	f803 4b01 	strb.w	r4, [r3], #1
   ddd26:	3a01      	subs	r2, #1
   ddd28:	2c00      	cmp	r4, #0
   ddd2a:	d1f7      	bne.n	ddd1c <strncpy+0x6>
   ddd2c:	441a      	add	r2, r3
   ddd2e:	2100      	movs	r1, #0
   ddd30:	4293      	cmp	r3, r2
   ddd32:	d100      	bne.n	ddd36 <strncpy+0x20>
   ddd34:	bd10      	pop	{r4, pc}
   ddd36:	f803 1b01 	strb.w	r1, [r3], #1
   ddd3a:	e7f9      	b.n	ddd30 <strncpy+0x1a>

000ddd3c <strnlen>:
   ddd3c:	b510      	push	{r4, lr}
   ddd3e:	4602      	mov	r2, r0
   ddd40:	4401      	add	r1, r0
   ddd42:	428a      	cmp	r2, r1
   ddd44:	4613      	mov	r3, r2
   ddd46:	d101      	bne.n	ddd4c <strnlen+0x10>
   ddd48:	1a18      	subs	r0, r3, r0
   ddd4a:	bd10      	pop	{r4, pc}
   ddd4c:	781c      	ldrb	r4, [r3, #0]
   ddd4e:	3201      	adds	r2, #1
   ddd50:	2c00      	cmp	r4, #0
   ddd52:	d1f6      	bne.n	ddd42 <strnlen+0x6>
   ddd54:	e7f8      	b.n	ddd48 <strnlen+0xc>
	...

000ddd58 <_strtol_l.isra.0>:
   ddd58:	e92d 47f0 	stmdb	sp!, {r4, r5, r6, r7, r8, r9, sl, lr}
   ddd5c:	4e3a      	ldr	r6, [pc, #232]	; (dde48 <_strtol_l.isra.0+0xf0>)
   ddd5e:	4686      	mov	lr, r0
   ddd60:	468c      	mov	ip, r1
   ddd62:	4660      	mov	r0, ip
   ddd64:	f81c 4b01 	ldrb.w	r4, [ip], #1
   ddd68:	5da5      	ldrb	r5, [r4, r6]
   ddd6a:	f015 0508 	ands.w	r5, r5, #8
   ddd6e:	d1f8      	bne.n	ddd62 <_strtol_l.isra.0+0xa>
   ddd70:	2c2d      	cmp	r4, #45	; 0x2d
   ddd72:	d133      	bne.n	ddddc <_strtol_l.isra.0+0x84>
   ddd74:	f89c 4000 	ldrb.w	r4, [ip]
   ddd78:	f04f 0801 	mov.w	r8, #1
   ddd7c:	f100 0c02 	add.w	ip, r0, #2
   ddd80:	2b00      	cmp	r3, #0
   ddd82:	d05c      	beq.n	dde3e <_strtol_l.isra.0+0xe6>
   ddd84:	2b10      	cmp	r3, #16
   ddd86:	d10c      	bne.n	ddda2 <_strtol_l.isra.0+0x4a>
   ddd88:	2c30      	cmp	r4, #48	; 0x30
   ddd8a:	d10a      	bne.n	ddda2 <_strtol_l.isra.0+0x4a>
   ddd8c:	f89c 0000 	ldrb.w	r0, [ip]
   ddd90:	f000 00df 	and.w	r0, r0, #223	; 0xdf
   ddd94:	2858      	cmp	r0, #88	; 0x58
   ddd96:	d14d      	bne.n	dde34 <_strtol_l.isra.0+0xdc>
   ddd98:	f89c 4001 	ldrb.w	r4, [ip, #1]
   ddd9c:	2310      	movs	r3, #16
   ddd9e:	f10c 0c02 	add.w	ip, ip, #2
   ddda2:	f108 4700 	add.w	r7, r8, #2147483648	; 0x80000000
   ddda6:	3f01      	subs	r7, #1
   ddda8:	2600      	movs	r6, #0
   dddaa:	fbb7 f9f3 	udiv	r9, r7, r3
   dddae:	4630      	mov	r0, r6
   dddb0:	fb03 7a19 	mls	sl, r3, r9, r7
   dddb4:	f1a4 0530 	sub.w	r5, r4, #48	; 0x30
   dddb8:	2d09      	cmp	r5, #9
   dddba:	d818      	bhi.n	dddee <_strtol_l.isra.0+0x96>
   dddbc:	462c      	mov	r4, r5
   dddbe:	42a3      	cmp	r3, r4
   dddc0:	dd24      	ble.n	dde0c <_strtol_l.isra.0+0xb4>
   dddc2:	1c75      	adds	r5, r6, #1
   dddc4:	d007      	beq.n	dddd6 <_strtol_l.isra.0+0x7e>
   dddc6:	4581      	cmp	r9, r0
   dddc8:	d31d      	bcc.n	dde06 <_strtol_l.isra.0+0xae>
   dddca:	d101      	bne.n	dddd0 <_strtol_l.isra.0+0x78>
   dddcc:	45a2      	cmp	sl, r4
   dddce:	db1a      	blt.n	dde06 <_strtol_l.isra.0+0xae>
   dddd0:	fb00 4003 	mla	r0, r0, r3, r4
   dddd4:	2601      	movs	r6, #1
   dddd6:	f81c 4b01 	ldrb.w	r4, [ip], #1
   dddda:	e7eb      	b.n	dddb4 <_strtol_l.isra.0+0x5c>
   ddddc:	2c2b      	cmp	r4, #43	; 0x2b
   dddde:	bf08      	it	eq
   ddde0:	f89c 4000 	ldrbeq.w	r4, [ip]
   ddde4:	46a8      	mov	r8, r5
   ddde6:	bf08      	it	eq
   ddde8:	f100 0c02 	addeq.w	ip, r0, #2
   dddec:	e7c8      	b.n	ddd80 <_strtol_l.isra.0+0x28>
   dddee:	f1a4 0541 	sub.w	r5, r4, #65	; 0x41
   dddf2:	2d19      	cmp	r5, #25
   dddf4:	d801      	bhi.n	dddfa <_strtol_l.isra.0+0xa2>
   dddf6:	3c37      	subs	r4, #55	; 0x37
   dddf8:	e7e1      	b.n	dddbe <_strtol_l.isra.0+0x66>
   dddfa:	f1a4 0561 	sub.w	r5, r4, #97	; 0x61
   dddfe:	2d19      	cmp	r5, #25
   dde00:	d804      	bhi.n	dde0c <_strtol_l.isra.0+0xb4>
   dde02:	3c57      	subs	r4, #87	; 0x57
   dde04:	e7db      	b.n	dddbe <_strtol_l.isra.0+0x66>
   dde06:	f04f 36ff 	mov.w	r6, #4294967295
   dde0a:	e7e4      	b.n	dddd6 <_strtol_l.isra.0+0x7e>
   dde0c:	1c73      	adds	r3, r6, #1
   dde0e:	d106      	bne.n	dde1e <_strtol_l.isra.0+0xc6>
   dde10:	2322      	movs	r3, #34	; 0x22
   dde12:	f8ce 3000 	str.w	r3, [lr]
   dde16:	4638      	mov	r0, r7
   dde18:	b942      	cbnz	r2, dde2c <_strtol_l.isra.0+0xd4>
   dde1a:	e8bd 87f0 	ldmia.w	sp!, {r4, r5, r6, r7, r8, r9, sl, pc}
   dde1e:	f1b8 0f00 	cmp.w	r8, #0
   dde22:	d000      	beq.n	dde26 <_strtol_l.isra.0+0xce>
   dde24:	4240      	negs	r0, r0
   dde26:	2a00      	cmp	r2, #0
   dde28:	d0f7      	beq.n	dde1a <_strtol_l.isra.0+0xc2>
   dde2a:	b10e      	cbz	r6, dde30 <_strtol_l.isra.0+0xd8>
   dde2c:	f10c 31ff 	add.w	r1, ip, #4294967295
   dde30:	6011      	str	r1, [r2, #0]
   dde32:	e7f2      	b.n	dde1a <_strtol_l.isra.0+0xc2>
   dde34:	2430      	movs	r4, #48	; 0x30
   dde36:	2b00      	cmp	r3, #0
   dde38:	d1b3      	bne.n	ddda2 <_strtol_l.isra.0+0x4a>
   dde3a:	2308      	movs	r3, #8
   dde3c:	e7b1      	b.n	ddda2 <_strtol_l.isra.0+0x4a>
   dde3e:	2c30      	cmp	r4, #48	; 0x30
   dde40:	d0a4      	beq.n	ddd8c <_strtol_l.isra.0+0x34>
   dde42:	230a      	movs	r3, #10
   dde44:	e7ad      	b.n	ddda2 <_strtol_l.isra.0+0x4a>
   dde46:	bf00      	nop
   dde48:	000ded81 	.word	0x000ded81

000dde4c <strtol>:
   dde4c:	4613      	mov	r3, r2
   dde4e:	460a      	mov	r2, r1
   dde50:	4601      	mov	r1, r0
   dde52:	4802      	ldr	r0, [pc, #8]	; (dde5c <strtol+0x10>)
   dde54:	6800      	ldr	r0, [r0, #0]
   dde56:	f7ff bf7f 	b.w	ddd58 <_strtol_l.isra.0>
   dde5a:	bf00      	nop
   dde5c:	2003ddb8 	.word	0x2003ddb8

000dde60 <dynalib_user>:
   dde60:	000d4021 000d405d 000d4085 000d4089     !@..]@...@...@..
   dde70:	00000000 61666564 20746c75 42534d00     ....default .MSB
   dde80:	42534c00 50533c00 74655349 676e6974     .LSB.<SPISetting
   dde90:	65642073 6c756166 3c003e74 53495053     s default>.<SPIS
   ddea0:	69747465 2073676e 75257325 20732520     ettings %s%u %s 
   ddeb0:	45444f4d 003e7525 20656854 61446e6f     MODE%u>.The onDa
   ddec0:	65526174 65766963 73692064 726f7720     taRecived is wor
   dded0:	676e696b 000a202e 68206557 72206461     king. ..We had r
   ddee0:	69656365 20646576 206c6c61 61746164     eceived all data
   ddef0:	54000a73 65726568 65726120 6d6f7320     s..There are som
   ddf00:	72652065 73726f72 206e6920 20656874     e errors in the 
   ddf10:	61746164 646e6120 20657720 6465656e     data and we need
   ddf20:	206f7420 6e617274 74696d73 74616420      to transmit dat
   ddf30:	67612061 206e6961 6854000a 61442065     a again ..The Da
   ddf40:	69206174 64252073 56000a20 2e322e32     ta is %d ..V2.2.
   ddf50:	65440032 65636976 4100203a 36306520     2.Device: .A e06
   ddf60:	6e655200 20656d61 69766544 53006563     .Rename Device.S
   ddf70:	44207465 6c707369 52207961 20657461     et Display Rate 
   ddf80:	332d3128 65530029 75502074 73696c62     (1-3).Set Publis
   ddf90:	61522068 28206574 29332d31 74655300     h Rate (1-3).Set
   ddfa0:	6d615320 20656c70 65746152 2d312820      Sample Rate (1-
   ddfb0:	44002933 6c707369 52207961 65726665     3).Display Refre
   ddfc0:	52206873 00657461 736e6553 5320726f     sh Rate.Sensor S
   ddfd0:	6c706d61 61522065 50006574 696c6275     ample Rate.Publi
   ddfe0:	52206873 00657461 69766544 49206563     sh Rate.Device I
   ddff0:	20490044 656d6163 72656820 70202c65     D.I came here, p
   de000:	7361656c 69662065 6d20646e 42000a65     lease find me..B
   de010:	756b6361 78742e70 69460074 6520656c     ackup.txt.File e
   de020:	74736978 6e45000a 65727573 756f7920     xist..Ensure you
   de030:	616d2072 206f7263 656c6966 65706f20     r macro file ope
   de040:	63000a6e 656e6e6f 6f697463 6f6c206e     n..connection lo
   de050:	43007473 756d6d6f 6163696e 6e6f6974     st.Communication
   de060:	6f724220 61636461 42007473 554b4341      Broadcast.BACKU
   de070:	41545350 42005452 554b4341 444e4550     PSTART.BACKUPEND
   de080:	61204900 6568206d 000a6572 6d612049     .I am here..I am
   de090:	72656820 000a3265 2b202020 2020002b      here2..   ++.  
   de0a0:	002d2d20 6142002f 79726574 2500203a      --./.Batery: .%
   de0b0:	43002020 3a6c6c65 20202000 203a6843       .Cell:.   Ch: 
   de0c0:	20704400 3a332e30 20450020 31204d50     .Dp 0.3: .E PM 1
   de0d0:	203a302e 20704400 3a352e30 20450020     .0: .Dp 0.5: .E 
   de0e0:	32204d50 203a352e 20704400 3a302e31     PM 2.5: .Dp 1.0:
   de0f0:	20450020 31204d50 203a2030 20704400      .E PM 10 : .Dp 
   de100:	3a352e32 20530020 31204d50 203a302e     2.5: .S PM 1.0: 
   de110:	20704400 3a302e35 20530020 32204d50     .Dp 5.0: .S PM 2
   de120:	203a352e 31704400 3a302e30 20530020     .5: .Dp10.0: .S 
   de130:	31204d50 203a2030 6d655400 00203a70     PM 10 : .Temp: .
   de140:	52202043 00203a48 50202025 6b00203a     C  RH: .%  P: .k
   de150:	53006150 3a706d61 20730020 44202020     Pa.Samp: .s    D
   de160:	3a707369 20730020 50202020 203a6275     isp: .s    Pub: 
   de170:	54006800 20736968 70207369 74697261     .h.This is parit
   de180:	33656c63 6854000a 69207369 61702073     cle3..This is pa
   de190:	63746972 0a32656c 34453600 30303030     ritcle2..6E40000
   de1a0:	35422d31 462d3341 2d333933 39413045     1-B5A3-F393-E0A9
   de1b0:	3035452d 44343245 39414343 45360045     -E50E24DCCA9E.6E
   de1c0:	30303034 422d3230 2d334135 33393346     400002-B5A3-F393
   de1d0:	4130452d 35452d39 34324530 41434344     -E0A9-E50E24DCCA
   de1e0:	36004539 30303445 2d333030 33413542     9E.6E400003-B5A3
   de1f0:	3933462d 30452d33 452d3941 32453035     -F393-E0A9-E50E2
   de200:	43434434 00453941 72007874 00000078     4DCCA9E.tx.rx...

000de210 <_ZTVN8particle11SPISettingsE>:
	...
   de218:	000d42bd 000d40cd 000d40ed              .B...@...@..

000de224 <_ZTV4File>:
	...
   de22c:	000d40e9 000d40fb 000d413b 000d4135     .@...@..;A..5A..
   de23c:	000d40cf 000d4115 000d410f 000d4109     .@...A...A...A..
   de24c:	00080000 18000000 00000000 00000018     ................
   de25c:	00003800 00300000 70000000 00000000     .8....0....p....
   de26c:	000000e3 0000c300 80c70100 86010000     ................
   de27c:	03000080 0000c08c 00600803 60180700     ..........`....`
   de28c:	300e0000 0c000030 00001020 0018611c     ...00... ....a..
   de29c:	08431800 c3380000 3100008c 00008687     ..C...8....1....
   de2ac:	00c68f71 c30ce300 00c30000 c60100e1     q...............
   de2bc:	01807100 80300086 38fe8f03 000003c0     .q....0....8....
   de2cc:	00076018 0e601c00 300c0000 feffff0f     .`....`....0....
   de2dc:	ffff1f10 001018ff 000c0000 0c000000     ................
   de2ec:	00000000 00000006 ff7f0600               ...............

000de2fb <_ZL4font>:
   de2fb:	00000000 4f5b3e00 6b3e3e5b 1c3e6b4f     .....>[O[>>kOk>.
   de30b:	1c3e7c3e 3c7e3c18 7d571c18 5e1c1c57     >|>..<~<..W}W..^
   de31b:	001c5e7f 00183c18 e7c3e7ff 241800ff     .^...<.........$
   de32b:	e7ff0018 30ffe7db 0e063a48 29792926     .......0H:..&)y)
   de33b:	057f4026 7f400705 5a3f2505 5a3ce73c     &@....@..%?Z<.<Z
   de34b:	1c1c3e7f 1c1c0808 22147f3e 5f14227f     .>......>.."."._
   de35b:	5f5f005f 017f0906 8966007f 60606a95     _.__......f..j``
   de36b:	94606060 94a2ffa2 047e0408 7e201008     ```.......~... ~
   de37b:	08081020 08081c2a 08082a1c 1010101e      ...*....*......
   de38b:	0c1e0c10 38300c1e 0630383e 060e3e0e     ......08>80..>..
   de39b:	00000000 5f000000 07000000 14000700     ......._........
   de3ab:	147f147f 2a7f2a24 08132312 49366264     ....$*.*.#..db6I
   de3bb:	00502056 00030708 41221c00 22410000     V P......."A..A"
   de3cb:	1c2a001c 082a1c7f 08083e08 30708000     ..*...*..>....p0
   de3db:	08080800 00000808 20006060 02040810     ........``. ....
   de3eb:	4549513e 7f42003e 49720040 21464949     >QIE>.B.@.rIIIF!
   de3fb:	334d4941 7f121418 45452710 4a3c3945     AIM3.....'EEE9<J
   de40b:	41314949 07091121 49494936 49494636     II1A!...6III6FII
   de41b:	00001e29 00000014 00003440 22140800     ).......@4....."
   de42b:	14141441 41001414 02081422 06095901     A......A"....Y..
   de43b:	595d413e 11127c4e 497f7c12 3e364949     >A]YN|...|.III6>
   de44b:	22414141 4141417f 49497f3e 097f4149     AAA".AAA>.IIIA..
   de45b:	3e010909 73514141 0808087f 7f41007f     ...>AAQs......A.
   de46b:	40200041 7f013f41 41221408 4040407f     A. @A?...."A.@@@
   de47b:	1c027f40 047f7f02 3e7f1008 3e414141     @..........>AAA>
   de48b:	0909097f 51413e06 097f5e21 26462919     .....>AQ!^...)F&
   de49b:	32494949 017f0103 40403f03 201f3f40     III2.....?@@@?. 
   de4ab:	3f1f2040 3f403840 14081463 78040363     @ .?@8@?c...c..x
   de4bb:	59610304 00434d49 4141417f 10080402     ..aYIMC..AAA....
   de4cb:	41410020 02047f41 40040201 40404040      .AAA......@@@@@
   de4db:	08070300 54542000 287f4078 38384444     ..... TTx@.(DD88
   de4eb:	28444444 28444438 5454387f 08001854     DDD(8DD(.8TTT...
   de4fb:	1802097e 789ca4a4 0404087f 7d440078     ~......x....x.D}
   de50b:	40200040 7f003d40 00442810 407f4100     @. @@=...(D..A.@
   de51b:	78047c00 087c7804 38780404 38444444     .|.x.x|...x8DDD8
   de52b:	242418fc 24241818 087cfc18 48080404     ..$$..$$..|....H
   de53b:	24545454 443f0404 40403c24 201c7c20     TTT$..?D$<@@ |. 
   de54b:	3c1c2040 3c403040 28102844 90904c44     @ .<@0@<D(.(DL..
   de55b:	64447c90 00444c54 00413608 00770000     .|DdTLD..6A...w.
   de56b:	36410000 01020008 3c020402 3c262326     ..A6.......<&#&<
   de57b:	61a1a11e 40403a12 54387a20 21595554     ...a.:@@ z8TTUY!
   de58b:	41795555 78545422 54552142 54204078     UUyA"TTxB!UTx@ T
   de59b:	0c407955 1272521e 55555539 54543959     Uy@..Rr.9UUUY9TT
   de5ab:	55395954 00585454 417c4500 7d450200     TY9UTTX..E|A..E}
   de5bb:	45010042 127d407c f07d1211 f0282528     B..E|@}...}.(%(.
   de5cb:	4555547c 54542000 0a7c547c 32497f09     |TUE. TT|T|...I2
   de5db:	32494949 4444443a 484a323a 413a3048     III2:DDD:2JHH0:A
   de5eb:	3a7a2141 78204042 a0a09d00 42423d7d     A!z:B@ x....}=BB
   de5fb:	403d3d42 3c3d4040 2424ff24 43497e48     B==@@@=<$.$$H~IC
   de60b:	fc2f2b66 09ff2b2f c020f629 03097e88     f+/./+..). ..~..
   de61b:	79545420 44000041 4830417d 38324a48      TTyA..D}A0HHJ28
   de62b:	7a224040 0a0a7a00 190d7d72 29267d31     @@"z.z..r}..1}&)
   de63b:	26282f29 26292929 404d4830 08083820     )/(&)))&0HM@ 8..
   de64b:	08080808 2f380808 baacc810 3428102f     ......8/..../.(4
   de65b:	7b0000fa 14080000 2222142a 08142a14     ...{....*."".*..
   de66b:	00550055 aa55aa55 55ffaa55 00ff55ff     U.U.U.U.U..U.U..
   de67b:	00ff0000 ff101010 14141400 101000ff     ................
   de68b:	10ff00ff f010f010 fc141414 f7141400     ................
   de69b:	0000ff00 14ff00ff fc04f414 10171414     ................
   de6ab:	1f10101f 14141f10 10001f14 00f01010     ................
   de6bb:	1f000000 10101010 1010101f 0010f010     ................
   de6cb:	10ff0000 10101010 10101010 000010ff     ................
   de6db:	0014ff00 ff00ff00 101f0000 fc000017     ................
   de6eb:	1414f404 14171017 f404f414 00ff0000     ................
   de6fb:	141414f7 14141414 14f700f7 14171414     ................
   de70b:	101f1010 1414141f 101014f4 00f010f0     ................
   de71b:	1f101f00 1f000000 00000014 000014fc     ................
   de72b:	10f010f0 ff10ff10 ff141414 10101014     ................
   de73b:	0000001f ff10f000 ffffffff f0f0f0f0     ................
   de74b:	fffffff0 00000000 0fffff00 0f0f0f0f     ................
   de75b:	38444438 4a4afc44 027e344a 02060602     8DD8D.JJJ4~.....
   de76b:	027e027e 41495563 44443863 7e40043c     ~.~.cUIAc8DD<.@~
   de77b:	06201e20 02027e02 a5e7a599 492a1c99      . ..~........*I
   de78b:	724c1c2a 304c7201 304d4d4a 48784830     *.Lr.rL0JMM00HxH
   de79b:	5a62bc30 493e3d46 7e004949 7e010101     0.bZF=>III.~...~
   de7ab:	2a2a2a2a 5f44442a 51404444 4040444a     *****DD_DD@QJD@@
   de7bb:	40514a44 01ff0000 ff80e003 08080000     DJQ@............
   de7cb:	36086b6b 36243612 0f090f06 18000006     kk.6.6$6........
   de7db:	00000018 30001010 0101ff40 01011f00     .......0@.......
   de7eb:	1d19001e 3c001217 003c3c3c 00000000     .......<<<<.....
	...

000de7fc <_ZTV12Adafruit_GFX>:
	...
   de80c:	000d5bc1 000da6c9 000d40a5 000d55f1     .[.......@...U..
   de81c:	000d55f3 000d5625 000d5601 000d5613     .U..%V...V...V..
   de82c:	000d5535 000d55f1 000d581d 000d5797     5U...U...X...W..
   de83c:	000d563d 000d567b 000d56b5 000d56fb     =V..{V...V...V..
   de84c:	000d5799 000d5717                       .W...W..

000de854 <_ZTV15Adafruit_IL0373>:
	...
   de85c:	000d4155 000d5235 000d5bc1 000da6c9     UA..5R...[......
   de86c:	000d81cd 000d55f1 000d55f3 000d5625     .....U...U..%V..
   de87c:	000d5601 000d5613 000d5535 000d55f1     .V...V..5U...U..
   de88c:	000d581d 000d5797 000d563d 000d567b     .X...W..=V..{V..
   de89c:	000d56b5 000d56fb 000d5799 000d5717     .V...V...W...W..
   de8ac:	000d7c79 000d7c45 000d7d5d 000d7d2f     y|..E|..]}../}..
   de8bc:	000d7c47                                G|..

000de8c0 <_ZTV12Adafruit_EPD>:
	...
   de8d0:	000d5bc1 000da6c9 000d81cd 000d55f1     .[...........U..
   de8e0:	000d55f3 000d5625 000d5601 000d5613     .U..%V...V...V..
   de8f0:	000d5535 000d55f1 000d581d 000d5797     5U...U...X...W..
   de900:	000d563d 000d567b 000d56b5 000d56fb     =V..{V...V...V..
   de910:	000d5799 000d5717 000d40a5 000d40a5     .W...W...@...@..
   de920:	000d40a5 000d40a5 000d40a5              .@...@...@..

000de92c <_ZTVN5spark13EthernetClassE>:
	...
   de934:	000d8ffb 000d8ff1 000d8fe7 000d8fdd     ................
   de944:	000d8fd1 000d8fc5 000db38f 000db397     ................
   de954:	000d8fb9 000d8fb1 000d8fa7 000d8f9d     ................
   de964:	000db3c7                                ....

000de968 <_ZN12_GLOBAL__N_1L14clock_divisorsE>:
   de968:	18100800 38302820 69726977 622e676e     .... (08wiring.b
   de978:	5300656c 74726174 73696420 65766f63     le.Start discove
   de988:	676e6972 72657320 65636976 50002e73     ring services..P
   de998:	20726565 69766564 69206563 696d2073     eer device is mi
   de9a8:	6e697373 46002167 656c6961 6f742064     ssing!.Failed to
   de9b8:	70706120 20646e65 72656570 6e654320      append peer Cen
   de9c8:	6c617274 76656420 2e656369 6e6f4300     tral device..Con
   de9d8:	7463656e 62206465 65432079 6172746e     nected by Centra
   de9e8:	6564206c 65636976 6944002e 6e6f6373     l device..Discon
   de9f8:	7463656e 62206465 65722079 65746f6d     nected by remote
   dea08:	76656420 2e656369 70754400 6163696c      device..Duplica
   dea18:	20646574 72616863 65746361 74736972     ted characterist
   dea28:	63206369 6f6e6e61 65622074 64646120     ic cannot be add
   dea38:	002e6465 6c696146 74206465 7061206f     ed..Failed to ap
   dea48:	646e6570 636f6c20 63206c61 61726168     pend local chara
   dea58:	72657463 69747369 00002e63              cteristic...

000dea64 <_ZTVSt23_Sp_counted_ptr_inplaceIN8particle21BleCharacteristicImplESaIS1_ELN9__gnu_cxx12_Lock_policyE0EE>:
	...
   dea6c:	000d93e9 000d944d 000d9615 000d9477     ....M.......w...
   dea7c:	000d93ed                                ....

000dea80 <_ZTVSt23_Sp_counted_ptr_inplaceIN8particle14BleServiceImplESaIS1_ELN9__gnu_cxx12_Lock_policyE0EE>:
	...
   dea88:	000d93e5 000d945b 000d93e7 000d947b     ....[.......{...
   dea98:	000d940d                                ....

000dea9c <_ZTVSt23_Sp_counted_ptr_inplaceIN8particle17BlePeerDeviceImplESaIS1_ELN9__gnu_cxx12_Lock_policyE0EE>:
	...
   deaa4:	000d93e3 000d9469 000d9e09 000d947f     ....i...........
   deab4:	000d942d                                -...

000deab8 <_ZZNSt19_Sp_make_shared_tag5_S_tiEvE5__tag>:
	...
   deac0:	5f9b34fb 80000080 00001000 00000000     .4._............

000dead0 <_ZN8particle12_GLOBAL__N_1L29PARTICLE_DEFAULT_BLE_SVC_UUIDE>:
   dead0:	7427e37b ac15f87b 13a949dd f5720000     {.'t{....I....r.

000deae0 <_ZN8particle7BleUuid9BASE_UUIDE>:
   deae0:	5f9b34fb 80000080 00001000 00000000     .4._............
   deaf0:	006e616e 00666e69 0066766f 00707061     nan.inf.ovf.app.
   deb00:	252d5925 64252d6d 3a482554 253a4d25     %Y-%m-%dT%H:%M:%
   deb10:	007a2553 74637361 00656d69              S%z.asctime.

000deb1c <_ZTV14CellularSignal>:
	...
   deb24:	000dab51 000dabb5 000dab53 000dabc5     Q.......S.......
   deb34:	000dabf9 000dac25 000dac59 000dab79     ....%...Y...y...
   deb44:	000dab57 000dab73 fffffffc 00000000     W...s...........
   deb54:	000dabad                                ....

000deb58 <_ZTV9IPAddress>:
	...
   deb60:	000dae67 000dae57 000dae59              g...W...Y...

000deb6c <_ZTV9USBSerial>:
	...
   deb74:	000daf49 000dafb1 000daf87 000da6c9     I...............
   deb84:	000daf79 000daf4b 000daf5b 000dafab     y...K...[.......
   deb94:	000daf6b 000daf45                       k...E...

000deb9c <_ZTVN5spark13CellularClassE>:
	...
   deba4:	000db0ab 000db0a1 000db097 000db04d     ............M...
   debb4:	000db08b 000db07f 000db38f 000db397     ................
   debc4:	000db073 000db06b 000db061 000db057     s...k...a...W...
   debd4:	000db3c7                                ....

000debd8 <_ZTV11USARTSerial>:
	...
   debe0:	000db139 000db1a5 000db17d 000da6c9     9.......}.......
   debf0:	000db14d 000db169 000db15b 000db177     M...i...[...w...
   dec00:	000db13b 000db13f                       ;...?...

000dec08 <_ZTV7TwoWire>:
	...
   dec10:	000db235 000db27f 000db257 000db237     5.......W...7...
   dec20:	000db25f 000db267 000db26f 000db277     _...g...o...w...

000dec30 <_ZTVN5spark12NetworkClassE>:
	...
   dec38:	000db34f 000db359 000db363 000db36d     O...Y...c...m...
   dec48:	000db377 000db383 000db38f 000db397     w...............
   dec58:	000db39f 000db3ab 000db3b3 000db3bd     ................
   dec68:	000db3c7                                ....

000dec6c <_ZSt7nothrow>:
	...

000dec6d <_ZTSSt19_Sp_make_shared_tag>:
   dec6d:	39317453 5f70535f 656b616d 6168735f     St19_Sp_make_sha
   dec7d:	5f646572 00676174                        red_tag....

000dec88 <_ZTISt19_Sp_make_shared_tag>:
   dec88:	000decc8 000dec6d                       ....m...

000dec90 <_ZTIN10__cxxabiv117__class_type_infoE>:
   dec90:	000ded28 000dec9c 000ded4c              (.......L...

000dec9c <_ZTSN10__cxxabiv117__class_type_infoE>:
   dec9c:	5f30314e 7878635f 76696261 5f373131     N10__cxxabiv117_
   decac:	616c635f 745f7373 5f657079 6f666e69     _class_type_info
   decbc:	00000045                                E...

000decc0 <_ZTVN10__cxxabiv117__class_type_infoE>:
   decc0:	00000000 000dec90 000db741 000db755     ........A...U...
   decd0:	000db8e9 000db8e9 000db7bf 000db701     ................
   dece0:	000db7a7 000db769 000db735              ....i...5...

000decec <_ZTIN10__cxxabiv120__si_class_type_infoE>:
   decec:	000ded28 000decf8 000dec90              (...........

000decf8 <_ZTSN10__cxxabiv120__si_class_type_infoE>:
   decf8:	5f30314e 7878635f 76696261 5f303231     N10__cxxabiv120_
   ded08:	5f69735f 73616c63 79745f73 695f6570     _si_class_type_i
   ded18:	456f666e 00000000                       nfoE....

000ded20 <_ZTVN10__cxxabiv120__si_class_type_infoE>:
   ded20:	00000000 000decec 000db7e9 000db7fd     ................
   ded30:	000db8e9 000db8e9 000db7bf 000db701     ................
   ded40:	000db8bd 000db849 000db811              ....I.......

000ded4c <_ZTISt9type_info>:
   ded4c:	000decc8 000ded54                       ....T...

000ded54 <_ZTSSt9type_info>:
   ded54:	74397453 5f657079 6f666e69 00000000     St9type_info....
   ded64:	00776f70 00000000 00000000              pow.........

000ded70 <TWO52>:
   ded70:	00000000 43300000 00000000 c3300000     ......0C......0.

000ded80 <_ctype_>:
   ded80:	20202000 20202020 28282020 20282828     .         ((((( 
   ded90:	20202020 20202020 20202020 20202020                     
   deda0:	10108820 10101010 10101010 10101010      ...............
   dedb0:	04040410 04040404 10040404 10101010     ................
   dedc0:	41411010 41414141 01010101 01010101     ..AAAAAA........
   dedd0:	01010101 01010101 01010101 10101010     ................
   dede0:	42421010 42424242 02020202 02020202     ..BBBBBB........
   dedf0:	02020202 02020202 02020202 10101010     ................
   dee00:	00000020 00000000 00000000 00000000      ...............
	...

000dee81 <link_const_variable_data_end>:
   dee81:	00          	.byte	0x00
	...

000dee84 <link_constructors_location>:
   dee84:	000d5249 	.word	0x000d5249
   dee88:	000d9005 	.word	0x000d9005
   dee8c:	000d919d 	.word	0x000d919d
   dee90:	000da6a1 	.word	0x000da6a1
   dee94:	000da97d 	.word	0x000da97d
   dee98:	000dab0d 	.word	0x000dab0d
   dee9c:	000dab35 	.word	0x000dab35
   deea0:	000db109 	.word	0x000db109
   deea4:	000db4a5 	.word	0x000db4a5

000deea8 <link_constructors_end>:
	...
